   1              		.syntax unified
   2              		.cpu cortex-m4
   3              		.fpu softvfp
   4              		.eabi_attribute 20, 1
   5              		.eabi_attribute 21, 1
   6              		.eabi_attribute 23, 3
   7              		.eabi_attribute 24, 1
   8              		.eabi_attribute 25, 1
   9              		.eabi_attribute 26, 1
  10              		.eabi_attribute 30, 1
  11              		.eabi_attribute 34, 1
  12              		.eabi_attribute 18, 4
  13              		.thumb
  14              		.file	"stm32f4xx_flash.c"
  15              		.text
  16              	.Ltext0:
  17              		.cfi_sections	.debug_frame
  18              		.align	2
  19              		.global	FLASH_SetLatency
  20              		.thumb
  21              		.thumb_func
  23              	FLASH_SetLatency:
  24              	.LFB110:
  25              		.file 1 "../STM32F4xx_StdPeriph_Driver/src/stm32f4xx_flash.c"
   1:../STM32F4xx_StdPeriph_Driver/src/stm32f4xx_flash.c **** /**
   2:../STM32F4xx_StdPeriph_Driver/src/stm32f4xx_flash.c ****   ******************************************************************************
   3:../STM32F4xx_StdPeriph_Driver/src/stm32f4xx_flash.c ****   * @file    stm32f4xx_flash.c
   4:../STM32F4xx_StdPeriph_Driver/src/stm32f4xx_flash.c ****   * @author  MCD Application Team
   5:../STM32F4xx_StdPeriph_Driver/src/stm32f4xx_flash.c ****   * @version V1.0.0
   6:../STM32F4xx_StdPeriph_Driver/src/stm32f4xx_flash.c ****   * @date    30-September-2011
   7:../STM32F4xx_StdPeriph_Driver/src/stm32f4xx_flash.c ****   * @brief   This file provides firmware functions to manage the following 
   8:../STM32F4xx_StdPeriph_Driver/src/stm32f4xx_flash.c ****   *          functionalities of the FLASH peripheral:
   9:../STM32F4xx_StdPeriph_Driver/src/stm32f4xx_flash.c ****   *            - FLASH Interface configuration
  10:../STM32F4xx_StdPeriph_Driver/src/stm32f4xx_flash.c ****   *            - FLASH Memory Programming
  11:../STM32F4xx_StdPeriph_Driver/src/stm32f4xx_flash.c ****   *            - Option Bytes Programming
  12:../STM32F4xx_StdPeriph_Driver/src/stm32f4xx_flash.c ****   *            - Interrupts and flags management
  13:../STM32F4xx_StdPeriph_Driver/src/stm32f4xx_flash.c ****   *  
  14:../STM32F4xx_StdPeriph_Driver/src/stm32f4xx_flash.c ****   *  @verbatim
  15:../STM32F4xx_StdPeriph_Driver/src/stm32f4xx_flash.c ****   *  
  16:../STM32F4xx_StdPeriph_Driver/src/stm32f4xx_flash.c ****   *          ===================================================================
  17:../STM32F4xx_StdPeriph_Driver/src/stm32f4xx_flash.c ****   *                                 How to use this driver
  18:../STM32F4xx_StdPeriph_Driver/src/stm32f4xx_flash.c ****   *          ===================================================================
  19:../STM32F4xx_StdPeriph_Driver/src/stm32f4xx_flash.c ****   *                           
  20:../STM32F4xx_StdPeriph_Driver/src/stm32f4xx_flash.c ****   *          This driver provides functions to configure and program the FLASH 
  21:../STM32F4xx_StdPeriph_Driver/src/stm32f4xx_flash.c ****   *          memory of all STM32F4xx devices.
  22:../STM32F4xx_StdPeriph_Driver/src/stm32f4xx_flash.c ****   *          These functions are split in 4 groups:
  23:../STM32F4xx_StdPeriph_Driver/src/stm32f4xx_flash.c ****   * 
  24:../STM32F4xx_StdPeriph_Driver/src/stm32f4xx_flash.c ****   *           1. FLASH Interface configuration functions: this group includes the
  25:../STM32F4xx_StdPeriph_Driver/src/stm32f4xx_flash.c ****   *              management of the following features:
  26:../STM32F4xx_StdPeriph_Driver/src/stm32f4xx_flash.c ****   *                    - Set the latency
  27:../STM32F4xx_StdPeriph_Driver/src/stm32f4xx_flash.c ****   *                    - Enable/Disable the prefetch buffer
  28:../STM32F4xx_StdPeriph_Driver/src/stm32f4xx_flash.c ****   *                    - Enable/Disable the Instruction cache and the Data cache
  29:../STM32F4xx_StdPeriph_Driver/src/stm32f4xx_flash.c ****   *                    - Reset the Instruction cache and the Data cache
  30:../STM32F4xx_StdPeriph_Driver/src/stm32f4xx_flash.c ****   *  
  31:../STM32F4xx_StdPeriph_Driver/src/stm32f4xx_flash.c ****   *           2. FLASH Memory Programming functions: this group includes all needed
  32:../STM32F4xx_StdPeriph_Driver/src/stm32f4xx_flash.c ****   *              functions to erase and program the main memory:
  33:../STM32F4xx_StdPeriph_Driver/src/stm32f4xx_flash.c ****   *                    - Lock and Unlock the FLASH interface
  34:../STM32F4xx_StdPeriph_Driver/src/stm32f4xx_flash.c ****   *                    - Erase function: Erase sector, erase all sectors
  35:../STM32F4xx_StdPeriph_Driver/src/stm32f4xx_flash.c ****   *                    - Program functions: byte, half word, word and double word
  36:../STM32F4xx_StdPeriph_Driver/src/stm32f4xx_flash.c ****   *  
  37:../STM32F4xx_StdPeriph_Driver/src/stm32f4xx_flash.c ****   *           3. Option Bytes Programming functions: this group includes all needed
  38:../STM32F4xx_StdPeriph_Driver/src/stm32f4xx_flash.c ****   *              functions to manage the Option Bytes:
  39:../STM32F4xx_StdPeriph_Driver/src/stm32f4xx_flash.c ****   *                    - Set/Reset the write protection
  40:../STM32F4xx_StdPeriph_Driver/src/stm32f4xx_flash.c ****   *                    - Set the Read protection Level
  41:../STM32F4xx_StdPeriph_Driver/src/stm32f4xx_flash.c ****   *                    - Set the BOR level
  42:../STM32F4xx_StdPeriph_Driver/src/stm32f4xx_flash.c ****   *                    - Program the user Option Bytes
  43:../STM32F4xx_StdPeriph_Driver/src/stm32f4xx_flash.c ****   *                    - Launch the Option Bytes loader
  44:../STM32F4xx_StdPeriph_Driver/src/stm32f4xx_flash.c ****   *  
  45:../STM32F4xx_StdPeriph_Driver/src/stm32f4xx_flash.c ****   *           4. Interrupts and flags management functions: this group 
  46:../STM32F4xx_StdPeriph_Driver/src/stm32f4xx_flash.c ****   *              includes all needed functions to:
  47:../STM32F4xx_StdPeriph_Driver/src/stm32f4xx_flash.c ****   *                    - Enable/Disable the FLASH interrupt sources
  48:../STM32F4xx_StdPeriph_Driver/src/stm32f4xx_flash.c ****   *                    - Get flags status
  49:../STM32F4xx_StdPeriph_Driver/src/stm32f4xx_flash.c ****   *                    - Clear flags
  50:../STM32F4xx_StdPeriph_Driver/src/stm32f4xx_flash.c ****   *                    - Get FLASH operation status
  51:../STM32F4xx_StdPeriph_Driver/src/stm32f4xx_flash.c ****   *                    - Wait for last FLASH operation
  52:../STM32F4xx_StdPeriph_Driver/src/stm32f4xx_flash.c ****   * 
  53:../STM32F4xx_StdPeriph_Driver/src/stm32f4xx_flash.c ****   *  @endverbatim
  54:../STM32F4xx_StdPeriph_Driver/src/stm32f4xx_flash.c ****   *                      
  55:../STM32F4xx_StdPeriph_Driver/src/stm32f4xx_flash.c ****   ******************************************************************************
  56:../STM32F4xx_StdPeriph_Driver/src/stm32f4xx_flash.c ****   * @attention
  57:../STM32F4xx_StdPeriph_Driver/src/stm32f4xx_flash.c ****   *
  58:../STM32F4xx_StdPeriph_Driver/src/stm32f4xx_flash.c ****   * THE PRESENT FIRMWARE WHICH IS FOR GUIDANCE ONLY AIMS AT PROVIDING CUSTOMERS
  59:../STM32F4xx_StdPeriph_Driver/src/stm32f4xx_flash.c ****   * WITH CODING INFORMATION REGARDING THEIR PRODUCTS IN ORDER FOR THEM TO SAVE
  60:../STM32F4xx_StdPeriph_Driver/src/stm32f4xx_flash.c ****   * TIME. AS A RESULT, STMICROELECTRONICS SHALL NOT BE HELD LIABLE FOR ANY
  61:../STM32F4xx_StdPeriph_Driver/src/stm32f4xx_flash.c ****   * DIRECT, INDIRECT OR CONSEQUENTIAL DAMAGES WITH RESPECT TO ANY CLAIMS ARISING
  62:../STM32F4xx_StdPeriph_Driver/src/stm32f4xx_flash.c ****   * FROM THE CONTENT OF SUCH FIRMWARE AND/OR THE USE MADE BY CUSTOMERS OF THE
  63:../STM32F4xx_StdPeriph_Driver/src/stm32f4xx_flash.c ****   * CODING INFORMATION CONTAINED HEREIN IN CONNECTION WITH THEIR PRODUCTS.
  64:../STM32F4xx_StdPeriph_Driver/src/stm32f4xx_flash.c ****   *
  65:../STM32F4xx_StdPeriph_Driver/src/stm32f4xx_flash.c ****   * <h2><center>&copy; COPYRIGHT 2011 STMicroelectronics</center></h2>
  66:../STM32F4xx_StdPeriph_Driver/src/stm32f4xx_flash.c ****   ******************************************************************************
  67:../STM32F4xx_StdPeriph_Driver/src/stm32f4xx_flash.c ****   */
  68:../STM32F4xx_StdPeriph_Driver/src/stm32f4xx_flash.c **** 
  69:../STM32F4xx_StdPeriph_Driver/src/stm32f4xx_flash.c **** /* Includes ------------------------------------------------------------------*/
  70:../STM32F4xx_StdPeriph_Driver/src/stm32f4xx_flash.c **** #include "stm32f4xx_flash.h"
  71:../STM32F4xx_StdPeriph_Driver/src/stm32f4xx_flash.c **** 
  72:../STM32F4xx_StdPeriph_Driver/src/stm32f4xx_flash.c **** /** @addtogroup STM32F4xx_StdPeriph_Driver
  73:../STM32F4xx_StdPeriph_Driver/src/stm32f4xx_flash.c ****   * @{
  74:../STM32F4xx_StdPeriph_Driver/src/stm32f4xx_flash.c ****   */
  75:../STM32F4xx_StdPeriph_Driver/src/stm32f4xx_flash.c **** 
  76:../STM32F4xx_StdPeriph_Driver/src/stm32f4xx_flash.c **** /** @defgroup FLASH 
  77:../STM32F4xx_StdPeriph_Driver/src/stm32f4xx_flash.c ****   * @brief FLASH driver modules
  78:../STM32F4xx_StdPeriph_Driver/src/stm32f4xx_flash.c ****   * @{
  79:../STM32F4xx_StdPeriph_Driver/src/stm32f4xx_flash.c ****   */ 
  80:../STM32F4xx_StdPeriph_Driver/src/stm32f4xx_flash.c **** 
  81:../STM32F4xx_StdPeriph_Driver/src/stm32f4xx_flash.c **** /* Private typedef -----------------------------------------------------------*/
  82:../STM32F4xx_StdPeriph_Driver/src/stm32f4xx_flash.c **** /* Private define ------------------------------------------------------------*/ 
  83:../STM32F4xx_StdPeriph_Driver/src/stm32f4xx_flash.c **** #define SECTOR_MASK               ((uint32_t)0xFFFFFF07)
  84:../STM32F4xx_StdPeriph_Driver/src/stm32f4xx_flash.c **** 
  85:../STM32F4xx_StdPeriph_Driver/src/stm32f4xx_flash.c **** /* Private macro -------------------------------------------------------------*/
  86:../STM32F4xx_StdPeriph_Driver/src/stm32f4xx_flash.c **** /* Private variables ---------------------------------------------------------*/
  87:../STM32F4xx_StdPeriph_Driver/src/stm32f4xx_flash.c **** /* Private function prototypes -----------------------------------------------*/
  88:../STM32F4xx_StdPeriph_Driver/src/stm32f4xx_flash.c **** /* Private functions ---------------------------------------------------------*/
  89:../STM32F4xx_StdPeriph_Driver/src/stm32f4xx_flash.c **** 
  90:../STM32F4xx_StdPeriph_Driver/src/stm32f4xx_flash.c **** /** @defgroup FLASH_Private_Functions
  91:../STM32F4xx_StdPeriph_Driver/src/stm32f4xx_flash.c ****   * @{
  92:../STM32F4xx_StdPeriph_Driver/src/stm32f4xx_flash.c ****   */ 
  93:../STM32F4xx_StdPeriph_Driver/src/stm32f4xx_flash.c **** 
  94:../STM32F4xx_StdPeriph_Driver/src/stm32f4xx_flash.c **** /** @defgroup FLASH_Group1 FLASH Interface configuration functions
  95:../STM32F4xx_StdPeriph_Driver/src/stm32f4xx_flash.c ****   *  @brief   FLASH Interface configuration functions 
  96:../STM32F4xx_StdPeriph_Driver/src/stm32f4xx_flash.c ****  *
  97:../STM32F4xx_StdPeriph_Driver/src/stm32f4xx_flash.c **** 
  98:../STM32F4xx_StdPeriph_Driver/src/stm32f4xx_flash.c **** @verbatim   
  99:../STM32F4xx_StdPeriph_Driver/src/stm32f4xx_flash.c ****  ===============================================================================
 100:../STM32F4xx_StdPeriph_Driver/src/stm32f4xx_flash.c ****                        FLASH Interface configuration functions
 101:../STM32F4xx_StdPeriph_Driver/src/stm32f4xx_flash.c ****  ===============================================================================
 102:../STM32F4xx_StdPeriph_Driver/src/stm32f4xx_flash.c **** 
 103:../STM32F4xx_StdPeriph_Driver/src/stm32f4xx_flash.c ****    This group includes the following functions:
 104:../STM32F4xx_StdPeriph_Driver/src/stm32f4xx_flash.c ****     - void FLASH_SetLatency(uint32_t FLASH_Latency)
 105:../STM32F4xx_StdPeriph_Driver/src/stm32f4xx_flash.c ****        To correctly read data from FLASH memory, the number of wait states (LATENCY) 
 106:../STM32F4xx_StdPeriph_Driver/src/stm32f4xx_flash.c ****        must be correctly programmed according to the frequency of the CPU clock 
 107:../STM32F4xx_StdPeriph_Driver/src/stm32f4xx_flash.c ****       (HCLK) and the supply voltage of the device.
 108:../STM32F4xx_StdPeriph_Driver/src/stm32f4xx_flash.c ****  +-------------------------------------------------------------------------------------+     
 109:../STM32F4xx_StdPeriph_Driver/src/stm32f4xx_flash.c ****  | Latency       |                HCLK clock frequency (MHz)                           |
 110:../STM32F4xx_StdPeriph_Driver/src/stm32f4xx_flash.c ****  |               |---------------------------------------------------------------------|     
 111:../STM32F4xx_StdPeriph_Driver/src/stm32f4xx_flash.c ****  |               | voltage range  | voltage range  | voltage range   | voltage range   |
 112:../STM32F4xx_StdPeriph_Driver/src/stm32f4xx_flash.c ****  |               | 2.7 V - 3.6 V  | 2.4 V - 2.7 V  | 2.1 V - 2.4 V   | 1.8 V - 2.1 V   |
 113:../STM32F4xx_StdPeriph_Driver/src/stm32f4xx_flash.c ****  |---------------|----------------|----------------|-----------------|-----------------|           
 114:../STM32F4xx_StdPeriph_Driver/src/stm32f4xx_flash.c ****  |0WS(1CPU cycle)|0 < HCLK <= 30  |0 < HCLK <= 24  |0 < HCLK <= 18   |0 < HCLK <= 16   |
 115:../STM32F4xx_StdPeriph_Driver/src/stm32f4xx_flash.c ****  |---------------|----------------|----------------|-----------------|-----------------|   
 116:../STM32F4xx_StdPeriph_Driver/src/stm32f4xx_flash.c ****  |1WS(2CPU cycle)|30 < HCLK <= 60 |24 < HCLK <= 48 |18 < HCLK <= 36  |16 < HCLK <= 32  | 
 117:../STM32F4xx_StdPeriph_Driver/src/stm32f4xx_flash.c ****  |---------------|----------------|----------------|-----------------|-----------------|   
 118:../STM32F4xx_StdPeriph_Driver/src/stm32f4xx_flash.c ****  |2WS(3CPU cycle)|60 < HCLK <= 90 |48 < HCLK <= 72 |36 < HCLK <= 54  |32 < HCLK <= 48  |
 119:../STM32F4xx_StdPeriph_Driver/src/stm32f4xx_flash.c ****  |---------------|----------------|----------------|-----------------|-----------------| 
 120:../STM32F4xx_StdPeriph_Driver/src/stm32f4xx_flash.c ****  |3WS(4CPU cycle)|90 < HCLK <= 120|72 < HCLK <= 96 |54 < HCLK <= 72  |48 < HCLK <= 64  |
 121:../STM32F4xx_StdPeriph_Driver/src/stm32f4xx_flash.c ****  |---------------|----------------|----------------|-----------------|-----------------| 
 122:../STM32F4xx_StdPeriph_Driver/src/stm32f4xx_flash.c ****  |4WS(5CPU cycle)|120< HCLK <= 150|96 < HCLK <= 120|72 < HCLK <= 90  |64 < HCLK <= 80  |
 123:../STM32F4xx_StdPeriph_Driver/src/stm32f4xx_flash.c ****  |---------------|----------------|----------------|-----------------|-----------------| 
 124:../STM32F4xx_StdPeriph_Driver/src/stm32f4xx_flash.c ****  |5WS(6CPU cycle)|120< HCLK <= 168|120< HCLK <= 144|90 < HCLK <= 108 |80 < HCLK <= 96  | 
 125:../STM32F4xx_StdPeriph_Driver/src/stm32f4xx_flash.c ****  |---------------|----------------|----------------|-----------------|-----------------| 
 126:../STM32F4xx_StdPeriph_Driver/src/stm32f4xx_flash.c ****  |6WS(7CPU cycle)|      NA        |144< HCLK <= 168|108 < HCLK <= 120|96 < HCLK <= 112 | 
 127:../STM32F4xx_StdPeriph_Driver/src/stm32f4xx_flash.c ****  |---------------|----------------|----------------|-----------------|-----------------| 
 128:../STM32F4xx_StdPeriph_Driver/src/stm32f4xx_flash.c ****  |7WS(8CPU cycle)|      NA        |      NA        |120 < HCLK <= 138|112 < HCLK <= 120| 
 129:../STM32F4xx_StdPeriph_Driver/src/stm32f4xx_flash.c ****  |***************|****************|****************|*****************|*****************|***********
 130:../STM32F4xx_StdPeriph_Driver/src/stm32f4xx_flash.c ****  |               | voltage range  | voltage range  | voltage range   | voltage range   | voltage ra
 131:../STM32F4xx_StdPeriph_Driver/src/stm32f4xx_flash.c ****  |               | 2.7 V - 3.6 V  | 2.4 V - 2.7 V  | 2.1 V - 2.4 V   | 1.8 V - 2.1 V   | with Exter
 132:../STM32F4xx_StdPeriph_Driver/src/stm32f4xx_flash.c ****  |---------------|----------------|----------------|-----------------|-----------------|-----------
 133:../STM32F4xx_StdPeriph_Driver/src/stm32f4xx_flash.c ****  |Max Parallelism|      x32       |               x16                |       x8        |          x
 134:../STM32F4xx_StdPeriph_Driver/src/stm32f4xx_flash.c ****  |---------------|----------------|----------------|-----------------|-----------------|-----------
 135:../STM32F4xx_StdPeriph_Driver/src/stm32f4xx_flash.c ****  |PSIZE[1:0]     |      10        |               01                 |       00        |           
 136:../STM32F4xx_StdPeriph_Driver/src/stm32f4xx_flash.c ****  +-------------------------------------------------------------------------------------------------
 137:../STM32F4xx_StdPeriph_Driver/src/stm32f4xx_flash.c ****    @note When VOS bit (in PWR_CR register) is reset to '0’, the maximum value of HCLK is 144 MHz.
 138:../STM32F4xx_StdPeriph_Driver/src/stm32f4xx_flash.c ****          You can use PWR_MainRegulatorModeConfig() function to set or reset this bit.
 139:../STM32F4xx_StdPeriph_Driver/src/stm32f4xx_flash.c ****              
 140:../STM32F4xx_StdPeriph_Driver/src/stm32f4xx_flash.c ****     - void FLASH_PrefetchBufferCmd(FunctionalState NewState)
 141:../STM32F4xx_StdPeriph_Driver/src/stm32f4xx_flash.c ****     - void FLASH_InstructionCacheCmd(FunctionalState NewState)
 142:../STM32F4xx_StdPeriph_Driver/src/stm32f4xx_flash.c ****     - void FLASH_DataCacheCmd(FunctionalState NewState)
 143:../STM32F4xx_StdPeriph_Driver/src/stm32f4xx_flash.c ****     - void FLASH_InstructionCacheReset(void)
 144:../STM32F4xx_StdPeriph_Driver/src/stm32f4xx_flash.c ****     - void FLASH_DataCacheReset(void)
 145:../STM32F4xx_StdPeriph_Driver/src/stm32f4xx_flash.c ****    
 146:../STM32F4xx_StdPeriph_Driver/src/stm32f4xx_flash.c ****    The unlock sequence is not needed for these functions.
 147:../STM32F4xx_StdPeriph_Driver/src/stm32f4xx_flash.c ****  
 148:../STM32F4xx_StdPeriph_Driver/src/stm32f4xx_flash.c **** @endverbatim
 149:../STM32F4xx_StdPeriph_Driver/src/stm32f4xx_flash.c ****   * @{
 150:../STM32F4xx_StdPeriph_Driver/src/stm32f4xx_flash.c ****   */
 151:../STM32F4xx_StdPeriph_Driver/src/stm32f4xx_flash.c ****  
 152:../STM32F4xx_StdPeriph_Driver/src/stm32f4xx_flash.c **** /**
 153:../STM32F4xx_StdPeriph_Driver/src/stm32f4xx_flash.c ****   * @brief  Sets the code latency value.
 154:../STM32F4xx_StdPeriph_Driver/src/stm32f4xx_flash.c ****   * @param  FLASH_Latency: specifies the FLASH Latency value.
 155:../STM32F4xx_StdPeriph_Driver/src/stm32f4xx_flash.c ****   *          This parameter can be one of the following values:
 156:../STM32F4xx_StdPeriph_Driver/src/stm32f4xx_flash.c ****   *            @arg FLASH_Latency_0: FLASH Zero Latency cycle
 157:../STM32F4xx_StdPeriph_Driver/src/stm32f4xx_flash.c ****   *            @arg FLASH_Latency_1: FLASH One Latency cycle
 158:../STM32F4xx_StdPeriph_Driver/src/stm32f4xx_flash.c ****   *            @arg FLASH_Latency_2: FLASH Two Latency cycles
 159:../STM32F4xx_StdPeriph_Driver/src/stm32f4xx_flash.c ****   *            @arg FLASH_Latency_3: FLASH Three Latency cycles
 160:../STM32F4xx_StdPeriph_Driver/src/stm32f4xx_flash.c ****   *            @arg FLASH_Latency_4: FLASH Four Latency cycles 
 161:../STM32F4xx_StdPeriph_Driver/src/stm32f4xx_flash.c ****   *            @arg FLASH_Latency_5: FLASH Five Latency cycles 
 162:../STM32F4xx_StdPeriph_Driver/src/stm32f4xx_flash.c ****   *            @arg FLASH_Latency_6: FLASH Six Latency cycles
 163:../STM32F4xx_StdPeriph_Driver/src/stm32f4xx_flash.c ****   *            @arg FLASH_Latency_7: FLASH Seven Latency cycles      
 164:../STM32F4xx_StdPeriph_Driver/src/stm32f4xx_flash.c ****   * @retval None
 165:../STM32F4xx_StdPeriph_Driver/src/stm32f4xx_flash.c ****   */
 166:../STM32F4xx_StdPeriph_Driver/src/stm32f4xx_flash.c **** void FLASH_SetLatency(uint32_t FLASH_Latency)
 167:../STM32F4xx_StdPeriph_Driver/src/stm32f4xx_flash.c **** {
  26              		.loc 1 167 0
  27              		.cfi_startproc
  28              		@ args = 0, pretend = 0, frame = 0
  29              		@ frame_needed = 0, uses_anonymous_args = 0
  30              		@ link register save eliminated.
  31              	.LVL0:
 168:../STM32F4xx_StdPeriph_Driver/src/stm32f4xx_flash.c ****   /* Check the parameters */
 169:../STM32F4xx_StdPeriph_Driver/src/stm32f4xx_flash.c ****   assert_param(IS_FLASH_LATENCY(FLASH_Latency));
 170:../STM32F4xx_StdPeriph_Driver/src/stm32f4xx_flash.c ****   
 171:../STM32F4xx_StdPeriph_Driver/src/stm32f4xx_flash.c ****   /* Perform Byte access to FLASH_ACR[8:0] to set the Latency value */
 172:../STM32F4xx_StdPeriph_Driver/src/stm32f4xx_flash.c ****   *(__IO uint8_t *)ACR_BYTE0_ADDRESS = (uint8_t)FLASH_Latency;
  32              		.loc 1 172 0
  33 0000 C0B2     		uxtb	r0, r0
  34              	.LVL1:
  35 0002 014B     		ldr	r3, .L2
  36 0004 1870     		strb	r0, [r3]
  37 0006 7047     		bx	lr
  38              	.L3:
  39              		.align	2
  40              	.L2:
  41 0008 003C0240 		.word	1073888256
  42              		.cfi_endproc
  43              	.LFE110:
  45              		.align	2
  46              		.global	FLASH_PrefetchBufferCmd
  47              		.thumb
  48              		.thumb_func
  50              	FLASH_PrefetchBufferCmd:
  51              	.LFB111:
 173:../STM32F4xx_StdPeriph_Driver/src/stm32f4xx_flash.c **** }
 174:../STM32F4xx_StdPeriph_Driver/src/stm32f4xx_flash.c **** 
 175:../STM32F4xx_StdPeriph_Driver/src/stm32f4xx_flash.c **** /**
 176:../STM32F4xx_StdPeriph_Driver/src/stm32f4xx_flash.c ****   * @brief  Enables or disables the Prefetch Buffer.
 177:../STM32F4xx_StdPeriph_Driver/src/stm32f4xx_flash.c ****   * @param  NewState: new state of the Prefetch Buffer.
 178:../STM32F4xx_StdPeriph_Driver/src/stm32f4xx_flash.c ****   *          This parameter  can be: ENABLE or DISABLE.
 179:../STM32F4xx_StdPeriph_Driver/src/stm32f4xx_flash.c ****   * @retval None
 180:../STM32F4xx_StdPeriph_Driver/src/stm32f4xx_flash.c ****   */
 181:../STM32F4xx_StdPeriph_Driver/src/stm32f4xx_flash.c **** void FLASH_PrefetchBufferCmd(FunctionalState NewState)
 182:../STM32F4xx_StdPeriph_Driver/src/stm32f4xx_flash.c **** {
  52              		.loc 1 182 0
  53              		.cfi_startproc
  54              		@ args = 0, pretend = 0, frame = 0
  55              		@ frame_needed = 0, uses_anonymous_args = 0
  56              		@ link register save eliminated.
  57              	.LVL2:
 183:../STM32F4xx_StdPeriph_Driver/src/stm32f4xx_flash.c ****   /* Check the parameters */
 184:../STM32F4xx_StdPeriph_Driver/src/stm32f4xx_flash.c ****   assert_param(IS_FUNCTIONAL_STATE(NewState));
 185:../STM32F4xx_StdPeriph_Driver/src/stm32f4xx_flash.c ****   
 186:../STM32F4xx_StdPeriph_Driver/src/stm32f4xx_flash.c ****   /* Enable or disable the Prefetch Buffer */
 187:../STM32F4xx_StdPeriph_Driver/src/stm32f4xx_flash.c ****   if(NewState != DISABLE)
  58              		.loc 1 187 0
  59 000c 28B1     		cbz	r0, .L5
 188:../STM32F4xx_StdPeriph_Driver/src/stm32f4xx_flash.c ****   {
 189:../STM32F4xx_StdPeriph_Driver/src/stm32f4xx_flash.c ****     FLASH->ACR |= FLASH_ACR_PRFTEN;
  60              		.loc 1 189 0
  61 000e 064B     		ldr	r3, .L7
  62 0010 1A68     		ldr	r2, [r3]
  63 0012 42F48072 		orr	r2, r2, #256
  64 0016 1A60     		str	r2, [r3]
  65 0018 7047     		bx	lr
  66              	.L5:
 190:../STM32F4xx_StdPeriph_Driver/src/stm32f4xx_flash.c ****   }
 191:../STM32F4xx_StdPeriph_Driver/src/stm32f4xx_flash.c ****   else
 192:../STM32F4xx_StdPeriph_Driver/src/stm32f4xx_flash.c ****   {
 193:../STM32F4xx_StdPeriph_Driver/src/stm32f4xx_flash.c ****     FLASH->ACR &= (~FLASH_ACR_PRFTEN);
  67              		.loc 1 193 0
  68 001a 034B     		ldr	r3, .L7
  69 001c 1A68     		ldr	r2, [r3]
  70 001e 22F48072 		bic	r2, r2, #256
  71 0022 1A60     		str	r2, [r3]
  72 0024 7047     		bx	lr
  73              	.L8:
  74 0026 00BF     		.align	2
  75              	.L7:
  76 0028 003C0240 		.word	1073888256
  77              		.cfi_endproc
  78              	.LFE111:
  80              		.align	2
  81              		.global	FLASH_InstructionCacheCmd
  82              		.thumb
  83              		.thumb_func
  85              	FLASH_InstructionCacheCmd:
  86              	.LFB112:
 194:../STM32F4xx_StdPeriph_Driver/src/stm32f4xx_flash.c ****   }
 195:../STM32F4xx_StdPeriph_Driver/src/stm32f4xx_flash.c **** }
 196:../STM32F4xx_StdPeriph_Driver/src/stm32f4xx_flash.c **** 
 197:../STM32F4xx_StdPeriph_Driver/src/stm32f4xx_flash.c **** /**
 198:../STM32F4xx_StdPeriph_Driver/src/stm32f4xx_flash.c ****   * @brief  Enables or disables the Instruction Cache feature.
 199:../STM32F4xx_StdPeriph_Driver/src/stm32f4xx_flash.c ****   * @param  NewState: new state of the Instruction Cache.
 200:../STM32F4xx_StdPeriph_Driver/src/stm32f4xx_flash.c ****   *          This parameter  can be: ENABLE or DISABLE.
 201:../STM32F4xx_StdPeriph_Driver/src/stm32f4xx_flash.c ****   * @retval None
 202:../STM32F4xx_StdPeriph_Driver/src/stm32f4xx_flash.c ****   */
 203:../STM32F4xx_StdPeriph_Driver/src/stm32f4xx_flash.c **** void FLASH_InstructionCacheCmd(FunctionalState NewState)
 204:../STM32F4xx_StdPeriph_Driver/src/stm32f4xx_flash.c **** {
  87              		.loc 1 204 0
  88              		.cfi_startproc
  89              		@ args = 0, pretend = 0, frame = 0
  90              		@ frame_needed = 0, uses_anonymous_args = 0
  91              		@ link register save eliminated.
  92              	.LVL3:
 205:../STM32F4xx_StdPeriph_Driver/src/stm32f4xx_flash.c ****   /* Check the parameters */
 206:../STM32F4xx_StdPeriph_Driver/src/stm32f4xx_flash.c ****   assert_param(IS_FUNCTIONAL_STATE(NewState));
 207:../STM32F4xx_StdPeriph_Driver/src/stm32f4xx_flash.c ****   
 208:../STM32F4xx_StdPeriph_Driver/src/stm32f4xx_flash.c ****   if(NewState != DISABLE)
  93              		.loc 1 208 0
  94 002c 28B1     		cbz	r0, .L10
 209:../STM32F4xx_StdPeriph_Driver/src/stm32f4xx_flash.c ****   {
 210:../STM32F4xx_StdPeriph_Driver/src/stm32f4xx_flash.c ****     FLASH->ACR |= FLASH_ACR_ICEN;
  95              		.loc 1 210 0
  96 002e 064B     		ldr	r3, .L12
  97 0030 1A68     		ldr	r2, [r3]
  98 0032 42F40072 		orr	r2, r2, #512
  99 0036 1A60     		str	r2, [r3]
 100 0038 7047     		bx	lr
 101              	.L10:
 211:../STM32F4xx_StdPeriph_Driver/src/stm32f4xx_flash.c ****   }
 212:../STM32F4xx_StdPeriph_Driver/src/stm32f4xx_flash.c ****   else
 213:../STM32F4xx_StdPeriph_Driver/src/stm32f4xx_flash.c ****   {
 214:../STM32F4xx_StdPeriph_Driver/src/stm32f4xx_flash.c ****     FLASH->ACR &= (~FLASH_ACR_ICEN);
 102              		.loc 1 214 0
 103 003a 034B     		ldr	r3, .L12
 104 003c 1A68     		ldr	r2, [r3]
 105 003e 22F40072 		bic	r2, r2, #512
 106 0042 1A60     		str	r2, [r3]
 107 0044 7047     		bx	lr
 108              	.L13:
 109 0046 00BF     		.align	2
 110              	.L12:
 111 0048 003C0240 		.word	1073888256
 112              		.cfi_endproc
 113              	.LFE112:
 115              		.align	2
 116              		.global	FLASH_DataCacheCmd
 117              		.thumb
 118              		.thumb_func
 120              	FLASH_DataCacheCmd:
 121              	.LFB113:
 215:../STM32F4xx_StdPeriph_Driver/src/stm32f4xx_flash.c ****   }
 216:../STM32F4xx_StdPeriph_Driver/src/stm32f4xx_flash.c **** }
 217:../STM32F4xx_StdPeriph_Driver/src/stm32f4xx_flash.c **** 
 218:../STM32F4xx_StdPeriph_Driver/src/stm32f4xx_flash.c **** /**
 219:../STM32F4xx_StdPeriph_Driver/src/stm32f4xx_flash.c ****   * @brief  Enables or disables the Data Cache feature.
 220:../STM32F4xx_StdPeriph_Driver/src/stm32f4xx_flash.c ****   * @param  NewState: new state of the Data Cache.
 221:../STM32F4xx_StdPeriph_Driver/src/stm32f4xx_flash.c ****   *          This parameter  can be: ENABLE or DISABLE.
 222:../STM32F4xx_StdPeriph_Driver/src/stm32f4xx_flash.c ****   * @retval None
 223:../STM32F4xx_StdPeriph_Driver/src/stm32f4xx_flash.c ****   */
 224:../STM32F4xx_StdPeriph_Driver/src/stm32f4xx_flash.c **** void FLASH_DataCacheCmd(FunctionalState NewState)
 225:../STM32F4xx_StdPeriph_Driver/src/stm32f4xx_flash.c **** {
 122              		.loc 1 225 0
 123              		.cfi_startproc
 124              		@ args = 0, pretend = 0, frame = 0
 125              		@ frame_needed = 0, uses_anonymous_args = 0
 126              		@ link register save eliminated.
 127              	.LVL4:
 226:../STM32F4xx_StdPeriph_Driver/src/stm32f4xx_flash.c ****   /* Check the parameters */
 227:../STM32F4xx_StdPeriph_Driver/src/stm32f4xx_flash.c ****   assert_param(IS_FUNCTIONAL_STATE(NewState));
 228:../STM32F4xx_StdPeriph_Driver/src/stm32f4xx_flash.c ****   
 229:../STM32F4xx_StdPeriph_Driver/src/stm32f4xx_flash.c ****   if(NewState != DISABLE)
 128              		.loc 1 229 0
 129 004c 28B1     		cbz	r0, .L15
 230:../STM32F4xx_StdPeriph_Driver/src/stm32f4xx_flash.c ****   {
 231:../STM32F4xx_StdPeriph_Driver/src/stm32f4xx_flash.c ****     FLASH->ACR |= FLASH_ACR_DCEN;
 130              		.loc 1 231 0
 131 004e 064B     		ldr	r3, .L17
 132 0050 1A68     		ldr	r2, [r3]
 133 0052 42F48062 		orr	r2, r2, #1024
 134 0056 1A60     		str	r2, [r3]
 135 0058 7047     		bx	lr
 136              	.L15:
 232:../STM32F4xx_StdPeriph_Driver/src/stm32f4xx_flash.c ****   }
 233:../STM32F4xx_StdPeriph_Driver/src/stm32f4xx_flash.c ****   else
 234:../STM32F4xx_StdPeriph_Driver/src/stm32f4xx_flash.c ****   {
 235:../STM32F4xx_StdPeriph_Driver/src/stm32f4xx_flash.c ****     FLASH->ACR &= (~FLASH_ACR_DCEN);
 137              		.loc 1 235 0
 138 005a 034B     		ldr	r3, .L17
 139 005c 1A68     		ldr	r2, [r3]
 140 005e 22F48062 		bic	r2, r2, #1024
 141 0062 1A60     		str	r2, [r3]
 142 0064 7047     		bx	lr
 143              	.L18:
 144 0066 00BF     		.align	2
 145              	.L17:
 146 0068 003C0240 		.word	1073888256
 147              		.cfi_endproc
 148              	.LFE113:
 150              		.align	2
 151              		.global	FLASH_InstructionCacheReset
 152              		.thumb
 153              		.thumb_func
 155              	FLASH_InstructionCacheReset:
 156              	.LFB114:
 236:../STM32F4xx_StdPeriph_Driver/src/stm32f4xx_flash.c ****   }
 237:../STM32F4xx_StdPeriph_Driver/src/stm32f4xx_flash.c **** }
 238:../STM32F4xx_StdPeriph_Driver/src/stm32f4xx_flash.c **** 
 239:../STM32F4xx_StdPeriph_Driver/src/stm32f4xx_flash.c **** /**
 240:../STM32F4xx_StdPeriph_Driver/src/stm32f4xx_flash.c ****   * @brief  Resets the Instruction Cache.
 241:../STM32F4xx_StdPeriph_Driver/src/stm32f4xx_flash.c ****   * @note   This function must be used only when the Instruction Cache is disabled.  
 242:../STM32F4xx_StdPeriph_Driver/src/stm32f4xx_flash.c ****   * @param  None
 243:../STM32F4xx_StdPeriph_Driver/src/stm32f4xx_flash.c ****   * @retval None
 244:../STM32F4xx_StdPeriph_Driver/src/stm32f4xx_flash.c ****   */
 245:../STM32F4xx_StdPeriph_Driver/src/stm32f4xx_flash.c **** void FLASH_InstructionCacheReset(void)
 246:../STM32F4xx_StdPeriph_Driver/src/stm32f4xx_flash.c **** {
 157              		.loc 1 246 0
 158              		.cfi_startproc
 159              		@ args = 0, pretend = 0, frame = 0
 160              		@ frame_needed = 0, uses_anonymous_args = 0
 161              		@ link register save eliminated.
 247:../STM32F4xx_StdPeriph_Driver/src/stm32f4xx_flash.c ****   FLASH->ACR |= FLASH_ACR_ICRST;
 162              		.loc 1 247 0
 163 006c 024B     		ldr	r3, .L20
 164 006e 1A68     		ldr	r2, [r3]
 165 0070 42F40062 		orr	r2, r2, #2048
 166 0074 1A60     		str	r2, [r3]
 167 0076 7047     		bx	lr
 168              	.L21:
 169              		.align	2
 170              	.L20:
 171 0078 003C0240 		.word	1073888256
 172              		.cfi_endproc
 173              	.LFE114:
 175              		.align	2
 176              		.global	FLASH_DataCacheReset
 177              		.thumb
 178              		.thumb_func
 180              	FLASH_DataCacheReset:
 181              	.LFB115:
 248:../STM32F4xx_StdPeriph_Driver/src/stm32f4xx_flash.c **** }
 249:../STM32F4xx_StdPeriph_Driver/src/stm32f4xx_flash.c **** 
 250:../STM32F4xx_StdPeriph_Driver/src/stm32f4xx_flash.c **** /**
 251:../STM32F4xx_StdPeriph_Driver/src/stm32f4xx_flash.c ****   * @brief  Resets the Data Cache.
 252:../STM32F4xx_StdPeriph_Driver/src/stm32f4xx_flash.c ****   * @note   This function must be used only when the Data Cache is disabled.  
 253:../STM32F4xx_StdPeriph_Driver/src/stm32f4xx_flash.c ****   * @param  None
 254:../STM32F4xx_StdPeriph_Driver/src/stm32f4xx_flash.c ****   * @retval None
 255:../STM32F4xx_StdPeriph_Driver/src/stm32f4xx_flash.c ****   */
 256:../STM32F4xx_StdPeriph_Driver/src/stm32f4xx_flash.c **** void FLASH_DataCacheReset(void)
 257:../STM32F4xx_StdPeriph_Driver/src/stm32f4xx_flash.c **** {
 182              		.loc 1 257 0
 183              		.cfi_startproc
 184              		@ args = 0, pretend = 0, frame = 0
 185              		@ frame_needed = 0, uses_anonymous_args = 0
 186              		@ link register save eliminated.
 258:../STM32F4xx_StdPeriph_Driver/src/stm32f4xx_flash.c ****   FLASH->ACR |= FLASH_ACR_DCRST;
 187              		.loc 1 258 0
 188 007c 024B     		ldr	r3, .L23
 189 007e 1A68     		ldr	r2, [r3]
 190 0080 42F48052 		orr	r2, r2, #4096
 191 0084 1A60     		str	r2, [r3]
 192 0086 7047     		bx	lr
 193              	.L24:
 194              		.align	2
 195              	.L23:
 196 0088 003C0240 		.word	1073888256
 197              		.cfi_endproc
 198              	.LFE115:
 200              		.align	2
 201              		.global	FLASH_Unlock
 202              		.thumb
 203              		.thumb_func
 205              	FLASH_Unlock:
 206              	.LFB116:
 259:../STM32F4xx_StdPeriph_Driver/src/stm32f4xx_flash.c **** }
 260:../STM32F4xx_StdPeriph_Driver/src/stm32f4xx_flash.c **** 
 261:../STM32F4xx_StdPeriph_Driver/src/stm32f4xx_flash.c **** /**
 262:../STM32F4xx_StdPeriph_Driver/src/stm32f4xx_flash.c ****   * @}
 263:../STM32F4xx_StdPeriph_Driver/src/stm32f4xx_flash.c ****   */
 264:../STM32F4xx_StdPeriph_Driver/src/stm32f4xx_flash.c **** 
 265:../STM32F4xx_StdPeriph_Driver/src/stm32f4xx_flash.c **** /** @defgroup FLASH_Group2 FLASH Memory Programming functions
 266:../STM32F4xx_StdPeriph_Driver/src/stm32f4xx_flash.c ****  *  @brief   FLASH Memory Programming functions
 267:../STM32F4xx_StdPeriph_Driver/src/stm32f4xx_flash.c ****  *
 268:../STM32F4xx_StdPeriph_Driver/src/stm32f4xx_flash.c **** @verbatim   
 269:../STM32F4xx_StdPeriph_Driver/src/stm32f4xx_flash.c ****  ===============================================================================
 270:../STM32F4xx_StdPeriph_Driver/src/stm32f4xx_flash.c ****                       FLASH Memory Programming functions
 271:../STM32F4xx_StdPeriph_Driver/src/stm32f4xx_flash.c ****  ===============================================================================   
 272:../STM32F4xx_StdPeriph_Driver/src/stm32f4xx_flash.c **** 
 273:../STM32F4xx_StdPeriph_Driver/src/stm32f4xx_flash.c ****    This group includes the following functions:
 274:../STM32F4xx_StdPeriph_Driver/src/stm32f4xx_flash.c ****     - void FLASH_Unlock(void)
 275:../STM32F4xx_StdPeriph_Driver/src/stm32f4xx_flash.c ****     - void FLASH_Lock(void)
 276:../STM32F4xx_StdPeriph_Driver/src/stm32f4xx_flash.c ****     - FLASH_Status FLASH_EraseSector(uint32_t FLASH_Sector, uint8_t VoltageRange)
 277:../STM32F4xx_StdPeriph_Driver/src/stm32f4xx_flash.c ****     - FLASH_Status FLASH_EraseAllSectors(uint8_t VoltageRange)
 278:../STM32F4xx_StdPeriph_Driver/src/stm32f4xx_flash.c ****     - FLASH_Status FLASH_ProgramDoubleWord(uint32_t Address, uint64_t Data)
 279:../STM32F4xx_StdPeriph_Driver/src/stm32f4xx_flash.c ****     - FLASH_Status FLASH_ProgramWord(uint32_t Address, uint32_t Data)
 280:../STM32F4xx_StdPeriph_Driver/src/stm32f4xx_flash.c ****     - FLASH_Status FLASH_ProgramHalfWord(uint32_t Address, uint16_t Data)
 281:../STM32F4xx_StdPeriph_Driver/src/stm32f4xx_flash.c ****     - FLASH_Status FLASH_ProgramByte(uint32_t Address, uint8_t Data)
 282:../STM32F4xx_StdPeriph_Driver/src/stm32f4xx_flash.c ****    
 283:../STM32F4xx_StdPeriph_Driver/src/stm32f4xx_flash.c ****    Any operation of erase or program should follow these steps:
 284:../STM32F4xx_StdPeriph_Driver/src/stm32f4xx_flash.c ****    1. Call the FLASH_Unlock() function to enable the FLASH control register access
 285:../STM32F4xx_StdPeriph_Driver/src/stm32f4xx_flash.c **** 
 286:../STM32F4xx_StdPeriph_Driver/src/stm32f4xx_flash.c ****    2. Call the desired function to erase sector(s) or program data
 287:../STM32F4xx_StdPeriph_Driver/src/stm32f4xx_flash.c **** 
 288:../STM32F4xx_StdPeriph_Driver/src/stm32f4xx_flash.c ****    3. Call the FLASH_Lock() function to disable the FLASH control register access
 289:../STM32F4xx_StdPeriph_Driver/src/stm32f4xx_flash.c ****       (recommended to protect the FLASH memory against possible unwanted operation)
 290:../STM32F4xx_StdPeriph_Driver/src/stm32f4xx_flash.c ****     
 291:../STM32F4xx_StdPeriph_Driver/src/stm32f4xx_flash.c **** @endverbatim
 292:../STM32F4xx_StdPeriph_Driver/src/stm32f4xx_flash.c ****   * @{
 293:../STM32F4xx_StdPeriph_Driver/src/stm32f4xx_flash.c ****   */
 294:../STM32F4xx_StdPeriph_Driver/src/stm32f4xx_flash.c **** 
 295:../STM32F4xx_StdPeriph_Driver/src/stm32f4xx_flash.c **** /**
 296:../STM32F4xx_StdPeriph_Driver/src/stm32f4xx_flash.c ****   * @brief  Unlocks the FLASH control register access
 297:../STM32F4xx_StdPeriph_Driver/src/stm32f4xx_flash.c ****   * @param  None
 298:../STM32F4xx_StdPeriph_Driver/src/stm32f4xx_flash.c ****   * @retval None
 299:../STM32F4xx_StdPeriph_Driver/src/stm32f4xx_flash.c ****   */
 300:../STM32F4xx_StdPeriph_Driver/src/stm32f4xx_flash.c **** void FLASH_Unlock(void)
 301:../STM32F4xx_StdPeriph_Driver/src/stm32f4xx_flash.c **** {
 207              		.loc 1 301 0
 208              		.cfi_startproc
 209              		@ args = 0, pretend = 0, frame = 0
 210              		@ frame_needed = 0, uses_anonymous_args = 0
 211              		@ link register save eliminated.
 302:../STM32F4xx_StdPeriph_Driver/src/stm32f4xx_flash.c ****   if((FLASH->CR & FLASH_CR_LOCK) != RESET)
 212              		.loc 1 302 0
 213 008c 054B     		ldr	r3, .L27
 214 008e 1B69     		ldr	r3, [r3, #16]
 215 0090 002B     		cmp	r3, #0
 216 0092 05DA     		bge	.L25
 303:../STM32F4xx_StdPeriph_Driver/src/stm32f4xx_flash.c ****   {
 304:../STM32F4xx_StdPeriph_Driver/src/stm32f4xx_flash.c ****     /* Authorize the FLASH Registers access */
 305:../STM32F4xx_StdPeriph_Driver/src/stm32f4xx_flash.c ****     FLASH->KEYR = FLASH_KEY1;
 217              		.loc 1 305 0
 218 0094 034B     		ldr	r3, .L27
 219 0096 044A     		ldr	r2, .L27+4
 220 0098 5A60     		str	r2, [r3, #4]
 306:../STM32F4xx_StdPeriph_Driver/src/stm32f4xx_flash.c ****     FLASH->KEYR = FLASH_KEY2;
 221              		.loc 1 306 0
 222 009a 02F18832 		add	r2, r2, #-2004318072
 223 009e 5A60     		str	r2, [r3, #4]
 224              	.L25:
 225 00a0 7047     		bx	lr
 226              	.L28:
 227 00a2 00BF     		.align	2
 228              	.L27:
 229 00a4 003C0240 		.word	1073888256
 230 00a8 23016745 		.word	1164378403
 231              		.cfi_endproc
 232              	.LFE116:
 234              		.align	2
 235              		.global	FLASH_Lock
 236              		.thumb
 237              		.thumb_func
 239              	FLASH_Lock:
 240              	.LFB117:
 307:../STM32F4xx_StdPeriph_Driver/src/stm32f4xx_flash.c ****   }  
 308:../STM32F4xx_StdPeriph_Driver/src/stm32f4xx_flash.c **** }
 309:../STM32F4xx_StdPeriph_Driver/src/stm32f4xx_flash.c **** 
 310:../STM32F4xx_StdPeriph_Driver/src/stm32f4xx_flash.c **** /**
 311:../STM32F4xx_StdPeriph_Driver/src/stm32f4xx_flash.c ****   * @brief  Locks the FLASH control register access
 312:../STM32F4xx_StdPeriph_Driver/src/stm32f4xx_flash.c ****   * @param  None
 313:../STM32F4xx_StdPeriph_Driver/src/stm32f4xx_flash.c ****   * @retval None
 314:../STM32F4xx_StdPeriph_Driver/src/stm32f4xx_flash.c ****   */
 315:../STM32F4xx_StdPeriph_Driver/src/stm32f4xx_flash.c **** void FLASH_Lock(void)
 316:../STM32F4xx_StdPeriph_Driver/src/stm32f4xx_flash.c **** {
 241              		.loc 1 316 0
 242              		.cfi_startproc
 243              		@ args = 0, pretend = 0, frame = 0
 244              		@ frame_needed = 0, uses_anonymous_args = 0
 245              		@ link register save eliminated.
 317:../STM32F4xx_StdPeriph_Driver/src/stm32f4xx_flash.c ****   /* Set the LOCK Bit to lock the FLASH Registers access */
 318:../STM32F4xx_StdPeriph_Driver/src/stm32f4xx_flash.c ****   FLASH->CR |= FLASH_CR_LOCK;
 246              		.loc 1 318 0
 247 00ac 024B     		ldr	r3, .L30
 248 00ae 1A69     		ldr	r2, [r3, #16]
 249 00b0 42F00042 		orr	r2, r2, #-2147483648
 250 00b4 1A61     		str	r2, [r3, #16]
 251 00b6 7047     		bx	lr
 252              	.L31:
 253              		.align	2
 254              	.L30:
 255 00b8 003C0240 		.word	1073888256
 256              		.cfi_endproc
 257              	.LFE117:
 259              		.align	2
 260              		.global	FLASH_OB_Unlock
 261              		.thumb
 262              		.thumb_func
 264              	FLASH_OB_Unlock:
 265              	.LFB124:
 319:../STM32F4xx_StdPeriph_Driver/src/stm32f4xx_flash.c **** }
 320:../STM32F4xx_StdPeriph_Driver/src/stm32f4xx_flash.c **** 
 321:../STM32F4xx_StdPeriph_Driver/src/stm32f4xx_flash.c **** /**
 322:../STM32F4xx_StdPeriph_Driver/src/stm32f4xx_flash.c ****   * @brief  Erases a specified FLASH Sector.
 323:../STM32F4xx_StdPeriph_Driver/src/stm32f4xx_flash.c ****   *   
 324:../STM32F4xx_StdPeriph_Driver/src/stm32f4xx_flash.c ****   * @param  FLASH_Sector: The Sector number to be erased.
 325:../STM32F4xx_StdPeriph_Driver/src/stm32f4xx_flash.c ****   *          This parameter can be a value between FLASH_Sector_0 and FLASH_Sector_11
 326:../STM32F4xx_StdPeriph_Driver/src/stm32f4xx_flash.c ****   *    
 327:../STM32F4xx_StdPeriph_Driver/src/stm32f4xx_flash.c ****   * @param  VoltageRange: The device voltage range which defines the erase parallelism.  
 328:../STM32F4xx_StdPeriph_Driver/src/stm32f4xx_flash.c ****   *          This parameter can be one of the following values:
 329:../STM32F4xx_StdPeriph_Driver/src/stm32f4xx_flash.c ****   *            @arg VoltageRange_1: when the device voltage range is 1.8V to 2.1V, 
 330:../STM32F4xx_StdPeriph_Driver/src/stm32f4xx_flash.c ****   *                                  the operation will be done by byte (8-bit) 
 331:../STM32F4xx_StdPeriph_Driver/src/stm32f4xx_flash.c ****   *            @arg VoltageRange_2: when the device voltage range is 2.1V to 2.7V,
 332:../STM32F4xx_StdPeriph_Driver/src/stm32f4xx_flash.c ****   *                                  the operation will be done by half word (16-bit)
 333:../STM32F4xx_StdPeriph_Driver/src/stm32f4xx_flash.c ****   *            @arg VoltageRange_3: when the device voltage range is 2.7V to 3.6V,
 334:../STM32F4xx_StdPeriph_Driver/src/stm32f4xx_flash.c ****   *                                  the operation will be done by word (32-bit)
 335:../STM32F4xx_StdPeriph_Driver/src/stm32f4xx_flash.c ****   *            @arg VoltageRange_4: when the device voltage range is 2.7V to 3.6V + External Vpp, 
 336:../STM32F4xx_StdPeriph_Driver/src/stm32f4xx_flash.c ****   *                                  the operation will be done by double word (64-bit)
 337:../STM32F4xx_StdPeriph_Driver/src/stm32f4xx_flash.c ****   *       
 338:../STM32F4xx_StdPeriph_Driver/src/stm32f4xx_flash.c ****   * @retval FLASH Status: The returned value can be: FLASH_BUSY, FLASH_ERROR_PROGRAM,
 339:../STM32F4xx_StdPeriph_Driver/src/stm32f4xx_flash.c ****   *                       FLASH_ERROR_WRP, FLASH_ERROR_OPERATION or FLASH_COMPLETE.
 340:../STM32F4xx_StdPeriph_Driver/src/stm32f4xx_flash.c ****   */
 341:../STM32F4xx_StdPeriph_Driver/src/stm32f4xx_flash.c **** FLASH_Status FLASH_EraseSector(uint32_t FLASH_Sector, uint8_t VoltageRange)
 342:../STM32F4xx_StdPeriph_Driver/src/stm32f4xx_flash.c **** {
 343:../STM32F4xx_StdPeriph_Driver/src/stm32f4xx_flash.c ****   uint32_t tmp_psize = 0x0;
 344:../STM32F4xx_StdPeriph_Driver/src/stm32f4xx_flash.c ****   FLASH_Status status = FLASH_COMPLETE;
 345:../STM32F4xx_StdPeriph_Driver/src/stm32f4xx_flash.c **** 
 346:../STM32F4xx_StdPeriph_Driver/src/stm32f4xx_flash.c ****   /* Check the parameters */
 347:../STM32F4xx_StdPeriph_Driver/src/stm32f4xx_flash.c ****   assert_param(IS_FLASH_SECTOR(FLASH_Sector));
 348:../STM32F4xx_StdPeriph_Driver/src/stm32f4xx_flash.c ****   assert_param(IS_VOLTAGERANGE(VoltageRange));
 349:../STM32F4xx_StdPeriph_Driver/src/stm32f4xx_flash.c ****   
 350:../STM32F4xx_StdPeriph_Driver/src/stm32f4xx_flash.c ****   if(VoltageRange == VoltageRange_1)
 351:../STM32F4xx_StdPeriph_Driver/src/stm32f4xx_flash.c ****   {
 352:../STM32F4xx_StdPeriph_Driver/src/stm32f4xx_flash.c ****      tmp_psize = FLASH_PSIZE_BYTE;
 353:../STM32F4xx_StdPeriph_Driver/src/stm32f4xx_flash.c ****   }
 354:../STM32F4xx_StdPeriph_Driver/src/stm32f4xx_flash.c ****   else if(VoltageRange == VoltageRange_2)
 355:../STM32F4xx_StdPeriph_Driver/src/stm32f4xx_flash.c ****   {
 356:../STM32F4xx_StdPeriph_Driver/src/stm32f4xx_flash.c ****     tmp_psize = FLASH_PSIZE_HALF_WORD;
 357:../STM32F4xx_StdPeriph_Driver/src/stm32f4xx_flash.c ****   }
 358:../STM32F4xx_StdPeriph_Driver/src/stm32f4xx_flash.c ****   else if(VoltageRange == VoltageRange_3)
 359:../STM32F4xx_StdPeriph_Driver/src/stm32f4xx_flash.c ****   {
 360:../STM32F4xx_StdPeriph_Driver/src/stm32f4xx_flash.c ****     tmp_psize = FLASH_PSIZE_WORD;
 361:../STM32F4xx_StdPeriph_Driver/src/stm32f4xx_flash.c ****   }
 362:../STM32F4xx_StdPeriph_Driver/src/stm32f4xx_flash.c ****   else
 363:../STM32F4xx_StdPeriph_Driver/src/stm32f4xx_flash.c ****   {
 364:../STM32F4xx_StdPeriph_Driver/src/stm32f4xx_flash.c ****     tmp_psize = FLASH_PSIZE_DOUBLE_WORD;
 365:../STM32F4xx_StdPeriph_Driver/src/stm32f4xx_flash.c ****   }
 366:../STM32F4xx_StdPeriph_Driver/src/stm32f4xx_flash.c ****   /* Wait for last operation to be completed */
 367:../STM32F4xx_StdPeriph_Driver/src/stm32f4xx_flash.c ****   status = FLASH_WaitForLastOperation();
 368:../STM32F4xx_StdPeriph_Driver/src/stm32f4xx_flash.c ****   
 369:../STM32F4xx_StdPeriph_Driver/src/stm32f4xx_flash.c ****   if(status == FLASH_COMPLETE)
 370:../STM32F4xx_StdPeriph_Driver/src/stm32f4xx_flash.c ****   { 
 371:../STM32F4xx_StdPeriph_Driver/src/stm32f4xx_flash.c ****     /* if the previous operation is completed, proceed to erase the sector */
 372:../STM32F4xx_StdPeriph_Driver/src/stm32f4xx_flash.c ****     FLASH->CR &= CR_PSIZE_MASK;
 373:../STM32F4xx_StdPeriph_Driver/src/stm32f4xx_flash.c ****     FLASH->CR |= tmp_psize;
 374:../STM32F4xx_StdPeriph_Driver/src/stm32f4xx_flash.c ****     FLASH->CR &= SECTOR_MASK;
 375:../STM32F4xx_StdPeriph_Driver/src/stm32f4xx_flash.c ****     FLASH->CR |= FLASH_CR_SER | FLASH_Sector;
 376:../STM32F4xx_StdPeriph_Driver/src/stm32f4xx_flash.c ****     FLASH->CR |= FLASH_CR_STRT;
 377:../STM32F4xx_StdPeriph_Driver/src/stm32f4xx_flash.c ****     
 378:../STM32F4xx_StdPeriph_Driver/src/stm32f4xx_flash.c ****     /* Wait for last operation to be completed */
 379:../STM32F4xx_StdPeriph_Driver/src/stm32f4xx_flash.c ****     status = FLASH_WaitForLastOperation();
 380:../STM32F4xx_StdPeriph_Driver/src/stm32f4xx_flash.c ****     
 381:../STM32F4xx_StdPeriph_Driver/src/stm32f4xx_flash.c ****     /* if the erase operation is completed, disable the SER Bit */
 382:../STM32F4xx_StdPeriph_Driver/src/stm32f4xx_flash.c ****     FLASH->CR &= (~FLASH_CR_SER);
 383:../STM32F4xx_StdPeriph_Driver/src/stm32f4xx_flash.c ****     FLASH->CR &= SECTOR_MASK; 
 384:../STM32F4xx_StdPeriph_Driver/src/stm32f4xx_flash.c ****   }
 385:../STM32F4xx_StdPeriph_Driver/src/stm32f4xx_flash.c ****   /* Return the Erase Status */
 386:../STM32F4xx_StdPeriph_Driver/src/stm32f4xx_flash.c ****   return status;
 387:../STM32F4xx_StdPeriph_Driver/src/stm32f4xx_flash.c **** }
 388:../STM32F4xx_StdPeriph_Driver/src/stm32f4xx_flash.c **** 
 389:../STM32F4xx_StdPeriph_Driver/src/stm32f4xx_flash.c **** /**
 390:../STM32F4xx_StdPeriph_Driver/src/stm32f4xx_flash.c ****   * @brief  Erases all FLASH Sectors.
 391:../STM32F4xx_StdPeriph_Driver/src/stm32f4xx_flash.c ****   *    
 392:../STM32F4xx_StdPeriph_Driver/src/stm32f4xx_flash.c ****   * @param  VoltageRange: The device voltage range which defines the erase parallelism.  
 393:../STM32F4xx_StdPeriph_Driver/src/stm32f4xx_flash.c ****   *          This parameter can be one of the following values:
 394:../STM32F4xx_StdPeriph_Driver/src/stm32f4xx_flash.c ****   *            @arg VoltageRange_1: when the device voltage range is 1.8V to 2.1V, 
 395:../STM32F4xx_StdPeriph_Driver/src/stm32f4xx_flash.c ****   *                                  the operation will be done by byte (8-bit) 
 396:../STM32F4xx_StdPeriph_Driver/src/stm32f4xx_flash.c ****   *            @arg VoltageRange_2: when the device voltage range is 2.1V to 2.7V,
 397:../STM32F4xx_StdPeriph_Driver/src/stm32f4xx_flash.c ****   *                                  the operation will be done by half word (16-bit)
 398:../STM32F4xx_StdPeriph_Driver/src/stm32f4xx_flash.c ****   *            @arg VoltageRange_3: when the device voltage range is 2.7V to 3.6V,
 399:../STM32F4xx_StdPeriph_Driver/src/stm32f4xx_flash.c ****   *                                  the operation will be done by word (32-bit)
 400:../STM32F4xx_StdPeriph_Driver/src/stm32f4xx_flash.c ****   *            @arg VoltageRange_4: when the device voltage range is 2.7V to 3.6V + External Vpp, 
 401:../STM32F4xx_StdPeriph_Driver/src/stm32f4xx_flash.c ****   *                                  the operation will be done by double word (64-bit)
 402:../STM32F4xx_StdPeriph_Driver/src/stm32f4xx_flash.c ****   *       
 403:../STM32F4xx_StdPeriph_Driver/src/stm32f4xx_flash.c ****   * @retval FLASH Status: The returned value can be: FLASH_BUSY, FLASH_ERROR_PROGRAM,
 404:../STM32F4xx_StdPeriph_Driver/src/stm32f4xx_flash.c ****   *                       FLASH_ERROR_WRP, FLASH_ERROR_OPERATION or FLASH_COMPLETE.
 405:../STM32F4xx_StdPeriph_Driver/src/stm32f4xx_flash.c ****   */
 406:../STM32F4xx_StdPeriph_Driver/src/stm32f4xx_flash.c **** FLASH_Status FLASH_EraseAllSectors(uint8_t VoltageRange)
 407:../STM32F4xx_StdPeriph_Driver/src/stm32f4xx_flash.c **** {
 408:../STM32F4xx_StdPeriph_Driver/src/stm32f4xx_flash.c ****   uint32_t tmp_psize = 0x0;
 409:../STM32F4xx_StdPeriph_Driver/src/stm32f4xx_flash.c ****   FLASH_Status status = FLASH_COMPLETE;
 410:../STM32F4xx_StdPeriph_Driver/src/stm32f4xx_flash.c ****   
 411:../STM32F4xx_StdPeriph_Driver/src/stm32f4xx_flash.c ****   /* Wait for last operation to be completed */
 412:../STM32F4xx_StdPeriph_Driver/src/stm32f4xx_flash.c ****   status = FLASH_WaitForLastOperation();
 413:../STM32F4xx_StdPeriph_Driver/src/stm32f4xx_flash.c ****   assert_param(IS_VOLTAGERANGE(VoltageRange));
 414:../STM32F4xx_StdPeriph_Driver/src/stm32f4xx_flash.c ****   
 415:../STM32F4xx_StdPeriph_Driver/src/stm32f4xx_flash.c ****   if(VoltageRange == VoltageRange_1)
 416:../STM32F4xx_StdPeriph_Driver/src/stm32f4xx_flash.c ****   {
 417:../STM32F4xx_StdPeriph_Driver/src/stm32f4xx_flash.c ****      tmp_psize = FLASH_PSIZE_BYTE;
 418:../STM32F4xx_StdPeriph_Driver/src/stm32f4xx_flash.c ****   }
 419:../STM32F4xx_StdPeriph_Driver/src/stm32f4xx_flash.c ****   else if(VoltageRange == VoltageRange_2)
 420:../STM32F4xx_StdPeriph_Driver/src/stm32f4xx_flash.c ****   {
 421:../STM32F4xx_StdPeriph_Driver/src/stm32f4xx_flash.c ****     tmp_psize = FLASH_PSIZE_HALF_WORD;
 422:../STM32F4xx_StdPeriph_Driver/src/stm32f4xx_flash.c ****   }
 423:../STM32F4xx_StdPeriph_Driver/src/stm32f4xx_flash.c ****   else if(VoltageRange == VoltageRange_3)
 424:../STM32F4xx_StdPeriph_Driver/src/stm32f4xx_flash.c ****   {
 425:../STM32F4xx_StdPeriph_Driver/src/stm32f4xx_flash.c ****     tmp_psize = FLASH_PSIZE_WORD;
 426:../STM32F4xx_StdPeriph_Driver/src/stm32f4xx_flash.c ****   }
 427:../STM32F4xx_StdPeriph_Driver/src/stm32f4xx_flash.c ****   else
 428:../STM32F4xx_StdPeriph_Driver/src/stm32f4xx_flash.c ****   {
 429:../STM32F4xx_StdPeriph_Driver/src/stm32f4xx_flash.c ****     tmp_psize = FLASH_PSIZE_DOUBLE_WORD;
 430:../STM32F4xx_StdPeriph_Driver/src/stm32f4xx_flash.c ****   }  
 431:../STM32F4xx_StdPeriph_Driver/src/stm32f4xx_flash.c ****   if(status == FLASH_COMPLETE)
 432:../STM32F4xx_StdPeriph_Driver/src/stm32f4xx_flash.c ****   {
 433:../STM32F4xx_StdPeriph_Driver/src/stm32f4xx_flash.c ****     /* if the previous operation is completed, proceed to erase all sectors */
 434:../STM32F4xx_StdPeriph_Driver/src/stm32f4xx_flash.c ****      FLASH->CR &= CR_PSIZE_MASK;
 435:../STM32F4xx_StdPeriph_Driver/src/stm32f4xx_flash.c ****      FLASH->CR |= tmp_psize;
 436:../STM32F4xx_StdPeriph_Driver/src/stm32f4xx_flash.c ****      FLASH->CR |= FLASH_CR_MER;
 437:../STM32F4xx_StdPeriph_Driver/src/stm32f4xx_flash.c ****      FLASH->CR |= FLASH_CR_STRT;
 438:../STM32F4xx_StdPeriph_Driver/src/stm32f4xx_flash.c ****     
 439:../STM32F4xx_StdPeriph_Driver/src/stm32f4xx_flash.c ****     /* Wait for last operation to be completed */
 440:../STM32F4xx_StdPeriph_Driver/src/stm32f4xx_flash.c ****     status = FLASH_WaitForLastOperation();
 441:../STM32F4xx_StdPeriph_Driver/src/stm32f4xx_flash.c **** 
 442:../STM32F4xx_StdPeriph_Driver/src/stm32f4xx_flash.c ****     /* if the erase operation is completed, disable the MER Bit */
 443:../STM32F4xx_StdPeriph_Driver/src/stm32f4xx_flash.c ****     FLASH->CR &= (~FLASH_CR_MER);
 444:../STM32F4xx_StdPeriph_Driver/src/stm32f4xx_flash.c **** 
 445:../STM32F4xx_StdPeriph_Driver/src/stm32f4xx_flash.c ****   }   
 446:../STM32F4xx_StdPeriph_Driver/src/stm32f4xx_flash.c ****   /* Return the Erase Status */
 447:../STM32F4xx_StdPeriph_Driver/src/stm32f4xx_flash.c ****   return status;
 448:../STM32F4xx_StdPeriph_Driver/src/stm32f4xx_flash.c **** }
 449:../STM32F4xx_StdPeriph_Driver/src/stm32f4xx_flash.c **** 
 450:../STM32F4xx_StdPeriph_Driver/src/stm32f4xx_flash.c **** /**
 451:../STM32F4xx_StdPeriph_Driver/src/stm32f4xx_flash.c ****   * @brief  Programs a double word (64-bit) at a specified address.
 452:../STM32F4xx_StdPeriph_Driver/src/stm32f4xx_flash.c ****   * @note   This function must be used when the device voltage range is from
 453:../STM32F4xx_StdPeriph_Driver/src/stm32f4xx_flash.c ****   *         2.7V to 3.6V and an External Vpp is present.           
 454:../STM32F4xx_StdPeriph_Driver/src/stm32f4xx_flash.c ****   * @param  Address: specifies the address to be programmed.
 455:../STM32F4xx_StdPeriph_Driver/src/stm32f4xx_flash.c ****   * @param  Data: specifies the data to be programmed.
 456:../STM32F4xx_StdPeriph_Driver/src/stm32f4xx_flash.c ****   * @retval FLASH Status: The returned value can be: FLASH_BUSY, FLASH_ERROR_PROGRAM,
 457:../STM32F4xx_StdPeriph_Driver/src/stm32f4xx_flash.c ****   *                       FLASH_ERROR_WRP, FLASH_ERROR_OPERATION or FLASH_COMPLETE.
 458:../STM32F4xx_StdPeriph_Driver/src/stm32f4xx_flash.c ****   */
 459:../STM32F4xx_StdPeriph_Driver/src/stm32f4xx_flash.c **** FLASH_Status FLASH_ProgramDoubleWord(uint32_t Address, uint64_t Data)
 460:../STM32F4xx_StdPeriph_Driver/src/stm32f4xx_flash.c **** {
 461:../STM32F4xx_StdPeriph_Driver/src/stm32f4xx_flash.c ****   FLASH_Status status = FLASH_COMPLETE;
 462:../STM32F4xx_StdPeriph_Driver/src/stm32f4xx_flash.c **** 
 463:../STM32F4xx_StdPeriph_Driver/src/stm32f4xx_flash.c ****   /* Check the parameters */
 464:../STM32F4xx_StdPeriph_Driver/src/stm32f4xx_flash.c ****   assert_param(IS_FLASH_ADDRESS(Address));
 465:../STM32F4xx_StdPeriph_Driver/src/stm32f4xx_flash.c **** 
 466:../STM32F4xx_StdPeriph_Driver/src/stm32f4xx_flash.c ****   /* Wait for last operation to be completed */
 467:../STM32F4xx_StdPeriph_Driver/src/stm32f4xx_flash.c ****   status = FLASH_WaitForLastOperation();
 468:../STM32F4xx_StdPeriph_Driver/src/stm32f4xx_flash.c ****   
 469:../STM32F4xx_StdPeriph_Driver/src/stm32f4xx_flash.c ****   if(status == FLASH_COMPLETE)
 470:../STM32F4xx_StdPeriph_Driver/src/stm32f4xx_flash.c ****   {
 471:../STM32F4xx_StdPeriph_Driver/src/stm32f4xx_flash.c ****     /* if the previous operation is completed, proceed to program the new data */
 472:../STM32F4xx_StdPeriph_Driver/src/stm32f4xx_flash.c ****     FLASH->CR &= CR_PSIZE_MASK;
 473:../STM32F4xx_StdPeriph_Driver/src/stm32f4xx_flash.c ****     FLASH->CR |= FLASH_PSIZE_DOUBLE_WORD;
 474:../STM32F4xx_StdPeriph_Driver/src/stm32f4xx_flash.c ****     FLASH->CR |= FLASH_CR_PG;
 475:../STM32F4xx_StdPeriph_Driver/src/stm32f4xx_flash.c ****   
 476:../STM32F4xx_StdPeriph_Driver/src/stm32f4xx_flash.c ****     *(__IO uint64_t*)Address = Data;
 477:../STM32F4xx_StdPeriph_Driver/src/stm32f4xx_flash.c ****         
 478:../STM32F4xx_StdPeriph_Driver/src/stm32f4xx_flash.c ****     /* Wait for last operation to be completed */
 479:../STM32F4xx_StdPeriph_Driver/src/stm32f4xx_flash.c ****     status = FLASH_WaitForLastOperation();
 480:../STM32F4xx_StdPeriph_Driver/src/stm32f4xx_flash.c **** 
 481:../STM32F4xx_StdPeriph_Driver/src/stm32f4xx_flash.c ****     /* if the program operation is completed, disable the PG Bit */
 482:../STM32F4xx_StdPeriph_Driver/src/stm32f4xx_flash.c ****     FLASH->CR &= (~FLASH_CR_PG);
 483:../STM32F4xx_StdPeriph_Driver/src/stm32f4xx_flash.c ****   } 
 484:../STM32F4xx_StdPeriph_Driver/src/stm32f4xx_flash.c ****   /* Return the Program Status */
 485:../STM32F4xx_StdPeriph_Driver/src/stm32f4xx_flash.c ****   return status;
 486:../STM32F4xx_StdPeriph_Driver/src/stm32f4xx_flash.c **** }
 487:../STM32F4xx_StdPeriph_Driver/src/stm32f4xx_flash.c **** 
 488:../STM32F4xx_StdPeriph_Driver/src/stm32f4xx_flash.c **** /**
 489:../STM32F4xx_StdPeriph_Driver/src/stm32f4xx_flash.c ****   * @brief  Programs a word (32-bit) at a specified address.
 490:../STM32F4xx_StdPeriph_Driver/src/stm32f4xx_flash.c ****   * @param  Address: specifies the address to be programmed.
 491:../STM32F4xx_StdPeriph_Driver/src/stm32f4xx_flash.c ****   *         This parameter can be any address in Program memory zone or in OTP zone.  
 492:../STM32F4xx_StdPeriph_Driver/src/stm32f4xx_flash.c ****   * @note   This function must be used when the device voltage range is from 2.7V to 3.6V. 
 493:../STM32F4xx_StdPeriph_Driver/src/stm32f4xx_flash.c ****   * @param  Data: specifies the data to be programmed.
 494:../STM32F4xx_StdPeriph_Driver/src/stm32f4xx_flash.c ****   * @retval FLASH Status: The returned value can be: FLASH_BUSY, FLASH_ERROR_PROGRAM,
 495:../STM32F4xx_StdPeriph_Driver/src/stm32f4xx_flash.c ****   *                       FLASH_ERROR_WRP, FLASH_ERROR_OPERATION or FLASH_COMPLETE.
 496:../STM32F4xx_StdPeriph_Driver/src/stm32f4xx_flash.c ****   */
 497:../STM32F4xx_StdPeriph_Driver/src/stm32f4xx_flash.c **** FLASH_Status FLASH_ProgramWord(uint32_t Address, uint32_t Data)
 498:../STM32F4xx_StdPeriph_Driver/src/stm32f4xx_flash.c **** {
 499:../STM32F4xx_StdPeriph_Driver/src/stm32f4xx_flash.c ****   FLASH_Status status = FLASH_COMPLETE;
 500:../STM32F4xx_StdPeriph_Driver/src/stm32f4xx_flash.c **** 
 501:../STM32F4xx_StdPeriph_Driver/src/stm32f4xx_flash.c ****   /* Check the parameters */
 502:../STM32F4xx_StdPeriph_Driver/src/stm32f4xx_flash.c ****   assert_param(IS_FLASH_ADDRESS(Address));
 503:../STM32F4xx_StdPeriph_Driver/src/stm32f4xx_flash.c **** 
 504:../STM32F4xx_StdPeriph_Driver/src/stm32f4xx_flash.c ****   /* Wait for last operation to be completed */
 505:../STM32F4xx_StdPeriph_Driver/src/stm32f4xx_flash.c ****   status = FLASH_WaitForLastOperation();
 506:../STM32F4xx_StdPeriph_Driver/src/stm32f4xx_flash.c ****   
 507:../STM32F4xx_StdPeriph_Driver/src/stm32f4xx_flash.c ****   if(status == FLASH_COMPLETE)
 508:../STM32F4xx_StdPeriph_Driver/src/stm32f4xx_flash.c ****   {
 509:../STM32F4xx_StdPeriph_Driver/src/stm32f4xx_flash.c ****     /* if the previous operation is completed, proceed to program the new data */
 510:../STM32F4xx_StdPeriph_Driver/src/stm32f4xx_flash.c ****     FLASH->CR &= CR_PSIZE_MASK;
 511:../STM32F4xx_StdPeriph_Driver/src/stm32f4xx_flash.c ****     FLASH->CR |= FLASH_PSIZE_WORD;
 512:../STM32F4xx_StdPeriph_Driver/src/stm32f4xx_flash.c ****     FLASH->CR |= FLASH_CR_PG;
 513:../STM32F4xx_StdPeriph_Driver/src/stm32f4xx_flash.c ****   
 514:../STM32F4xx_StdPeriph_Driver/src/stm32f4xx_flash.c ****     *(__IO uint32_t*)Address = Data;
 515:../STM32F4xx_StdPeriph_Driver/src/stm32f4xx_flash.c ****         
 516:../STM32F4xx_StdPeriph_Driver/src/stm32f4xx_flash.c ****     /* Wait for last operation to be completed */
 517:../STM32F4xx_StdPeriph_Driver/src/stm32f4xx_flash.c ****     status = FLASH_WaitForLastOperation();
 518:../STM32F4xx_StdPeriph_Driver/src/stm32f4xx_flash.c **** 
 519:../STM32F4xx_StdPeriph_Driver/src/stm32f4xx_flash.c ****     /* if the program operation is completed, disable the PG Bit */
 520:../STM32F4xx_StdPeriph_Driver/src/stm32f4xx_flash.c ****     FLASH->CR &= (~FLASH_CR_PG);
 521:../STM32F4xx_StdPeriph_Driver/src/stm32f4xx_flash.c ****   } 
 522:../STM32F4xx_StdPeriph_Driver/src/stm32f4xx_flash.c ****   /* Return the Program Status */
 523:../STM32F4xx_StdPeriph_Driver/src/stm32f4xx_flash.c ****   return status;
 524:../STM32F4xx_StdPeriph_Driver/src/stm32f4xx_flash.c **** }
 525:../STM32F4xx_StdPeriph_Driver/src/stm32f4xx_flash.c **** 
 526:../STM32F4xx_StdPeriph_Driver/src/stm32f4xx_flash.c **** /**
 527:../STM32F4xx_StdPeriph_Driver/src/stm32f4xx_flash.c ****   * @brief  Programs a half word (16-bit) at a specified address. 
 528:../STM32F4xx_StdPeriph_Driver/src/stm32f4xx_flash.c ****   * @note   This function must be used when the device voltage range is from 2.1V to 3.6V.         
 529:../STM32F4xx_StdPeriph_Driver/src/stm32f4xx_flash.c ****   * @param  Address: specifies the address to be programmed.
 530:../STM32F4xx_StdPeriph_Driver/src/stm32f4xx_flash.c ****   *         This parameter can be any address in Program memory zone or in OTP zone.  
 531:../STM32F4xx_StdPeriph_Driver/src/stm32f4xx_flash.c ****   * @param  Data: specifies the data to be programmed.
 532:../STM32F4xx_StdPeriph_Driver/src/stm32f4xx_flash.c ****   * @retval FLASH Status: The returned value can be: FLASH_BUSY, FLASH_ERROR_PROGRAM,
 533:../STM32F4xx_StdPeriph_Driver/src/stm32f4xx_flash.c ****   *                       FLASH_ERROR_WRP, FLASH_ERROR_OPERATION or FLASH_COMPLETE.
 534:../STM32F4xx_StdPeriph_Driver/src/stm32f4xx_flash.c ****   */
 535:../STM32F4xx_StdPeriph_Driver/src/stm32f4xx_flash.c **** FLASH_Status FLASH_ProgramHalfWord(uint32_t Address, uint16_t Data)
 536:../STM32F4xx_StdPeriph_Driver/src/stm32f4xx_flash.c **** {
 537:../STM32F4xx_StdPeriph_Driver/src/stm32f4xx_flash.c ****   FLASH_Status status = FLASH_COMPLETE;
 538:../STM32F4xx_StdPeriph_Driver/src/stm32f4xx_flash.c **** 
 539:../STM32F4xx_StdPeriph_Driver/src/stm32f4xx_flash.c ****   /* Check the parameters */
 540:../STM32F4xx_StdPeriph_Driver/src/stm32f4xx_flash.c ****   assert_param(IS_FLASH_ADDRESS(Address));
 541:../STM32F4xx_StdPeriph_Driver/src/stm32f4xx_flash.c **** 
 542:../STM32F4xx_StdPeriph_Driver/src/stm32f4xx_flash.c ****   /* Wait for last operation to be completed */
 543:../STM32F4xx_StdPeriph_Driver/src/stm32f4xx_flash.c ****   status = FLASH_WaitForLastOperation();
 544:../STM32F4xx_StdPeriph_Driver/src/stm32f4xx_flash.c ****   
 545:../STM32F4xx_StdPeriph_Driver/src/stm32f4xx_flash.c ****   if(status == FLASH_COMPLETE)
 546:../STM32F4xx_StdPeriph_Driver/src/stm32f4xx_flash.c ****   {
 547:../STM32F4xx_StdPeriph_Driver/src/stm32f4xx_flash.c ****     /* if the previous operation is completed, proceed to program the new data */
 548:../STM32F4xx_StdPeriph_Driver/src/stm32f4xx_flash.c ****     FLASH->CR &= CR_PSIZE_MASK;
 549:../STM32F4xx_StdPeriph_Driver/src/stm32f4xx_flash.c ****     FLASH->CR |= FLASH_PSIZE_HALF_WORD;
 550:../STM32F4xx_StdPeriph_Driver/src/stm32f4xx_flash.c ****     FLASH->CR |= FLASH_CR_PG;
 551:../STM32F4xx_StdPeriph_Driver/src/stm32f4xx_flash.c ****   
 552:../STM32F4xx_StdPeriph_Driver/src/stm32f4xx_flash.c ****     *(__IO uint16_t*)Address = Data;
 553:../STM32F4xx_StdPeriph_Driver/src/stm32f4xx_flash.c ****         
 554:../STM32F4xx_StdPeriph_Driver/src/stm32f4xx_flash.c ****     /* Wait for last operation to be completed */
 555:../STM32F4xx_StdPeriph_Driver/src/stm32f4xx_flash.c ****     status = FLASH_WaitForLastOperation();
 556:../STM32F4xx_StdPeriph_Driver/src/stm32f4xx_flash.c **** 
 557:../STM32F4xx_StdPeriph_Driver/src/stm32f4xx_flash.c ****     /* if the program operation is completed, disable the PG Bit */
 558:../STM32F4xx_StdPeriph_Driver/src/stm32f4xx_flash.c ****     FLASH->CR &= (~FLASH_CR_PG);
 559:../STM32F4xx_StdPeriph_Driver/src/stm32f4xx_flash.c ****   } 
 560:../STM32F4xx_StdPeriph_Driver/src/stm32f4xx_flash.c ****   /* Return the Program Status */
 561:../STM32F4xx_StdPeriph_Driver/src/stm32f4xx_flash.c ****   return status;
 562:../STM32F4xx_StdPeriph_Driver/src/stm32f4xx_flash.c **** }
 563:../STM32F4xx_StdPeriph_Driver/src/stm32f4xx_flash.c **** 
 564:../STM32F4xx_StdPeriph_Driver/src/stm32f4xx_flash.c **** /**
 565:../STM32F4xx_StdPeriph_Driver/src/stm32f4xx_flash.c ****   * @brief  Programs a byte (8-bit) at a specified address.
 566:../STM32F4xx_StdPeriph_Driver/src/stm32f4xx_flash.c ****   * @note   This function can be used within all the device supply voltage ranges.               
 567:../STM32F4xx_StdPeriph_Driver/src/stm32f4xx_flash.c ****   * @param  Address: specifies the address to be programmed.
 568:../STM32F4xx_StdPeriph_Driver/src/stm32f4xx_flash.c ****   *         This parameter can be any address in Program memory zone or in OTP zone.  
 569:../STM32F4xx_StdPeriph_Driver/src/stm32f4xx_flash.c ****   * @param  Data: specifies the data to be programmed.
 570:../STM32F4xx_StdPeriph_Driver/src/stm32f4xx_flash.c ****   * @retval FLASH Status: The returned value can be: FLASH_BUSY, FLASH_ERROR_PROGRAM,
 571:../STM32F4xx_StdPeriph_Driver/src/stm32f4xx_flash.c ****   *                       FLASH_ERROR_WRP, FLASH_ERROR_OPERATION or FLASH_COMPLETE.
 572:../STM32F4xx_StdPeriph_Driver/src/stm32f4xx_flash.c ****   */
 573:../STM32F4xx_StdPeriph_Driver/src/stm32f4xx_flash.c **** FLASH_Status FLASH_ProgramByte(uint32_t Address, uint8_t Data)
 574:../STM32F4xx_StdPeriph_Driver/src/stm32f4xx_flash.c **** {
 575:../STM32F4xx_StdPeriph_Driver/src/stm32f4xx_flash.c ****   FLASH_Status status = FLASH_COMPLETE;
 576:../STM32F4xx_StdPeriph_Driver/src/stm32f4xx_flash.c **** 
 577:../STM32F4xx_StdPeriph_Driver/src/stm32f4xx_flash.c ****   /* Check the parameters */
 578:../STM32F4xx_StdPeriph_Driver/src/stm32f4xx_flash.c ****   assert_param(IS_FLASH_ADDRESS(Address));
 579:../STM32F4xx_StdPeriph_Driver/src/stm32f4xx_flash.c **** 
 580:../STM32F4xx_StdPeriph_Driver/src/stm32f4xx_flash.c ****   /* Wait for last operation to be completed */
 581:../STM32F4xx_StdPeriph_Driver/src/stm32f4xx_flash.c ****   status = FLASH_WaitForLastOperation();
 582:../STM32F4xx_StdPeriph_Driver/src/stm32f4xx_flash.c ****   
 583:../STM32F4xx_StdPeriph_Driver/src/stm32f4xx_flash.c ****   if(status == FLASH_COMPLETE)
 584:../STM32F4xx_StdPeriph_Driver/src/stm32f4xx_flash.c ****   {
 585:../STM32F4xx_StdPeriph_Driver/src/stm32f4xx_flash.c ****     /* if the previous operation is completed, proceed to program the new data */
 586:../STM32F4xx_StdPeriph_Driver/src/stm32f4xx_flash.c ****     FLASH->CR &= CR_PSIZE_MASK;
 587:../STM32F4xx_StdPeriph_Driver/src/stm32f4xx_flash.c ****     FLASH->CR |= FLASH_PSIZE_BYTE;
 588:../STM32F4xx_StdPeriph_Driver/src/stm32f4xx_flash.c ****     FLASH->CR |= FLASH_CR_PG;
 589:../STM32F4xx_StdPeriph_Driver/src/stm32f4xx_flash.c ****   
 590:../STM32F4xx_StdPeriph_Driver/src/stm32f4xx_flash.c ****     *(__IO uint8_t*)Address = Data;
 591:../STM32F4xx_StdPeriph_Driver/src/stm32f4xx_flash.c ****         
 592:../STM32F4xx_StdPeriph_Driver/src/stm32f4xx_flash.c ****     /* Wait for last operation to be completed */
 593:../STM32F4xx_StdPeriph_Driver/src/stm32f4xx_flash.c ****     status = FLASH_WaitForLastOperation();
 594:../STM32F4xx_StdPeriph_Driver/src/stm32f4xx_flash.c **** 
 595:../STM32F4xx_StdPeriph_Driver/src/stm32f4xx_flash.c ****     /* if the program operation is completed, disable the PG Bit */
 596:../STM32F4xx_StdPeriph_Driver/src/stm32f4xx_flash.c ****     FLASH->CR &= (~FLASH_CR_PG);
 597:../STM32F4xx_StdPeriph_Driver/src/stm32f4xx_flash.c ****   } 
 598:../STM32F4xx_StdPeriph_Driver/src/stm32f4xx_flash.c **** 
 599:../STM32F4xx_StdPeriph_Driver/src/stm32f4xx_flash.c ****   /* Return the Program Status */
 600:../STM32F4xx_StdPeriph_Driver/src/stm32f4xx_flash.c ****   return status;
 601:../STM32F4xx_StdPeriph_Driver/src/stm32f4xx_flash.c **** }
 602:../STM32F4xx_StdPeriph_Driver/src/stm32f4xx_flash.c **** 
 603:../STM32F4xx_StdPeriph_Driver/src/stm32f4xx_flash.c **** /**
 604:../STM32F4xx_StdPeriph_Driver/src/stm32f4xx_flash.c ****   * @}
 605:../STM32F4xx_StdPeriph_Driver/src/stm32f4xx_flash.c ****   */
 606:../STM32F4xx_StdPeriph_Driver/src/stm32f4xx_flash.c **** 
 607:../STM32F4xx_StdPeriph_Driver/src/stm32f4xx_flash.c **** /** @defgroup FLASH_Group3 Option Bytes Programming functions
 608:../STM32F4xx_StdPeriph_Driver/src/stm32f4xx_flash.c ****  *  @brief   Option Bytes Programming functions 
 609:../STM32F4xx_StdPeriph_Driver/src/stm32f4xx_flash.c ****  *
 610:../STM32F4xx_StdPeriph_Driver/src/stm32f4xx_flash.c **** @verbatim   
 611:../STM32F4xx_StdPeriph_Driver/src/stm32f4xx_flash.c ****  ===============================================================================
 612:../STM32F4xx_StdPeriph_Driver/src/stm32f4xx_flash.c ****                         Option Bytes Programming functions
 613:../STM32F4xx_StdPeriph_Driver/src/stm32f4xx_flash.c ****  ===============================================================================  
 614:../STM32F4xx_StdPeriph_Driver/src/stm32f4xx_flash.c ****  
 615:../STM32F4xx_StdPeriph_Driver/src/stm32f4xx_flash.c ****    This group includes the following functions:
 616:../STM32F4xx_StdPeriph_Driver/src/stm32f4xx_flash.c ****    - void FLASH_OB_Unlock(void)
 617:../STM32F4xx_StdPeriph_Driver/src/stm32f4xx_flash.c ****    - void FLASH_OB_Lock(void)
 618:../STM32F4xx_StdPeriph_Driver/src/stm32f4xx_flash.c ****    - void FLASH_OB_WRPConfig(uint32_t OB_WRP, FunctionalState NewState)
 619:../STM32F4xx_StdPeriph_Driver/src/stm32f4xx_flash.c ****    - void FLASH_OB_RDPConfig(uint8_t OB_RDP)
 620:../STM32F4xx_StdPeriph_Driver/src/stm32f4xx_flash.c ****    - void FLASH_OB_UserConfig(uint8_t OB_IWDG, uint8_t OB_STOP, uint8_t OB_STDBY)
 621:../STM32F4xx_StdPeriph_Driver/src/stm32f4xx_flash.c ****    - void FLASH_OB_BORConfig(uint8_t OB_BOR)
 622:../STM32F4xx_StdPeriph_Driver/src/stm32f4xx_flash.c ****    - FLASH_Status FLASH_ProgramOTP(uint32_t Address, uint32_t Data)							
 623:../STM32F4xx_StdPeriph_Driver/src/stm32f4xx_flash.c ****    - FLASH_Status FLASH_OB_Launch(void)
 624:../STM32F4xx_StdPeriph_Driver/src/stm32f4xx_flash.c ****    - uint32_t FLASH_OB_GetUser(void)						
 625:../STM32F4xx_StdPeriph_Driver/src/stm32f4xx_flash.c ****    - uint8_t FLASH_OB_GetWRP(void)						
 626:../STM32F4xx_StdPeriph_Driver/src/stm32f4xx_flash.c ****    - uint8_t FLASH_OB_GetRDP(void)							
 627:../STM32F4xx_StdPeriph_Driver/src/stm32f4xx_flash.c ****    - uint8_t FLASH_OB_GetBOR(void)
 628:../STM32F4xx_StdPeriph_Driver/src/stm32f4xx_flash.c ****    
 629:../STM32F4xx_StdPeriph_Driver/src/stm32f4xx_flash.c ****    Any operation of erase or program should follow these steps:
 630:../STM32F4xx_StdPeriph_Driver/src/stm32f4xx_flash.c ****    1. Call the FLASH_OB_Unlock() function to enable the FLASH option control register access
 631:../STM32F4xx_StdPeriph_Driver/src/stm32f4xx_flash.c **** 
 632:../STM32F4xx_StdPeriph_Driver/src/stm32f4xx_flash.c ****    2. Call one or several functions to program the desired Option Bytes:
 633:../STM32F4xx_StdPeriph_Driver/src/stm32f4xx_flash.c ****       - void FLASH_OB_WRPConfig(uint32_t OB_WRP, FunctionalState NewState) => to Enable/Disable 
 634:../STM32F4xx_StdPeriph_Driver/src/stm32f4xx_flash.c ****         the desired sector write protection
 635:../STM32F4xx_StdPeriph_Driver/src/stm32f4xx_flash.c ****       - void FLASH_OB_RDPConfig(uint8_t OB_RDP) => to set the desired read Protection Level
 636:../STM32F4xx_StdPeriph_Driver/src/stm32f4xx_flash.c ****       - void FLASH_OB_UserConfig(uint8_t OB_IWDG, uint8_t OB_STOP, uint8_t OB_STDBY) => to configur
 637:../STM32F4xx_StdPeriph_Driver/src/stm32f4xx_flash.c ****         the user Option Bytes.
 638:../STM32F4xx_StdPeriph_Driver/src/stm32f4xx_flash.c ****       - void FLASH_OB_BORConfig(uint8_t OB_BOR) => to set the BOR Level 			 
 639:../STM32F4xx_StdPeriph_Driver/src/stm32f4xx_flash.c **** 
 640:../STM32F4xx_StdPeriph_Driver/src/stm32f4xx_flash.c ****    3. Once all needed Option Bytes to be programmed are correctly written, call the
 641:../STM32F4xx_StdPeriph_Driver/src/stm32f4xx_flash.c ****       FLASH_OB_Launch() function to launch the Option Bytes programming process.
 642:../STM32F4xx_StdPeriph_Driver/src/stm32f4xx_flash.c ****      
 643:../STM32F4xx_StdPeriph_Driver/src/stm32f4xx_flash.c ****      @note When changing the IWDG mode from HW to SW or from SW to HW, a system 
 644:../STM32F4xx_StdPeriph_Driver/src/stm32f4xx_flash.c ****            reset is needed to make the change effective.  
 645:../STM32F4xx_StdPeriph_Driver/src/stm32f4xx_flash.c **** 
 646:../STM32F4xx_StdPeriph_Driver/src/stm32f4xx_flash.c ****    4. Call the FLASH_OB_Lock() function to disable the FLASH option control register
 647:../STM32F4xx_StdPeriph_Driver/src/stm32f4xx_flash.c ****       access (recommended to protect the Option Bytes against possible unwanted operations)
 648:../STM32F4xx_StdPeriph_Driver/src/stm32f4xx_flash.c ****     
 649:../STM32F4xx_StdPeriph_Driver/src/stm32f4xx_flash.c **** @endverbatim
 650:../STM32F4xx_StdPeriph_Driver/src/stm32f4xx_flash.c ****   * @{
 651:../STM32F4xx_StdPeriph_Driver/src/stm32f4xx_flash.c ****   */
 652:../STM32F4xx_StdPeriph_Driver/src/stm32f4xx_flash.c **** 
 653:../STM32F4xx_StdPeriph_Driver/src/stm32f4xx_flash.c **** /**
 654:../STM32F4xx_StdPeriph_Driver/src/stm32f4xx_flash.c ****   * @brief  Unlocks the FLASH Option Control Registers access.
 655:../STM32F4xx_StdPeriph_Driver/src/stm32f4xx_flash.c ****   * @param  None
 656:../STM32F4xx_StdPeriph_Driver/src/stm32f4xx_flash.c ****   * @retval None
 657:../STM32F4xx_StdPeriph_Driver/src/stm32f4xx_flash.c ****   */
 658:../STM32F4xx_StdPeriph_Driver/src/stm32f4xx_flash.c **** void FLASH_OB_Unlock(void)
 659:../STM32F4xx_StdPeriph_Driver/src/stm32f4xx_flash.c **** {
 266              		.loc 1 659 0
 267              		.cfi_startproc
 268              		@ args = 0, pretend = 0, frame = 0
 269              		@ frame_needed = 0, uses_anonymous_args = 0
 270              		@ link register save eliminated.
 660:../STM32F4xx_StdPeriph_Driver/src/stm32f4xx_flash.c ****   if((FLASH->OPTCR & FLASH_OPTCR_OPTLOCK) != RESET)
 271              		.loc 1 660 0
 272 00bc 054B     		ldr	r3, .L34
 273 00be 5B69     		ldr	r3, [r3, #20]
 274 00c0 13F0010F 		tst	r3, #1
 275 00c4 05D0     		beq	.L32
 661:../STM32F4xx_StdPeriph_Driver/src/stm32f4xx_flash.c ****   {
 662:../STM32F4xx_StdPeriph_Driver/src/stm32f4xx_flash.c ****     /* Authorizes the Option Byte register programming */
 663:../STM32F4xx_StdPeriph_Driver/src/stm32f4xx_flash.c ****     FLASH->OPTKEYR = FLASH_OPT_KEY1;
 276              		.loc 1 663 0
 277 00c6 034B     		ldr	r3, .L34
 278 00c8 034A     		ldr	r2, .L34+4
 279 00ca 9A60     		str	r2, [r3, #8]
 664:../STM32F4xx_StdPeriph_Driver/src/stm32f4xx_flash.c ****     FLASH->OPTKEYR = FLASH_OPT_KEY2;
 280              		.loc 1 664 0
 281 00cc 02F14432 		add	r2, r2, #1145324612
 282 00d0 9A60     		str	r2, [r3, #8]
 283              	.L32:
 284 00d2 7047     		bx	lr
 285              	.L35:
 286              		.align	2
 287              	.L34:
 288 00d4 003C0240 		.word	1073888256
 289 00d8 3B2A1908 		.word	135866939
 290              		.cfi_endproc
 291              	.LFE124:
 293              		.align	2
 294              		.global	FLASH_OB_Lock
 295              		.thumb
 296              		.thumb_func
 298              	FLASH_OB_Lock:
 299              	.LFB125:
 665:../STM32F4xx_StdPeriph_Driver/src/stm32f4xx_flash.c ****   }  
 666:../STM32F4xx_StdPeriph_Driver/src/stm32f4xx_flash.c **** }
 667:../STM32F4xx_StdPeriph_Driver/src/stm32f4xx_flash.c **** 
 668:../STM32F4xx_StdPeriph_Driver/src/stm32f4xx_flash.c **** /**
 669:../STM32F4xx_StdPeriph_Driver/src/stm32f4xx_flash.c ****   * @brief  Locks the FLASH Option Control Registers access.
 670:../STM32F4xx_StdPeriph_Driver/src/stm32f4xx_flash.c ****   * @param  None
 671:../STM32F4xx_StdPeriph_Driver/src/stm32f4xx_flash.c ****   * @retval None
 672:../STM32F4xx_StdPeriph_Driver/src/stm32f4xx_flash.c ****   */
 673:../STM32F4xx_StdPeriph_Driver/src/stm32f4xx_flash.c **** void FLASH_OB_Lock(void)
 674:../STM32F4xx_StdPeriph_Driver/src/stm32f4xx_flash.c **** {
 300              		.loc 1 674 0
 301              		.cfi_startproc
 302              		@ args = 0, pretend = 0, frame = 0
 303              		@ frame_needed = 0, uses_anonymous_args = 0
 304              		@ link register save eliminated.
 675:../STM32F4xx_StdPeriph_Driver/src/stm32f4xx_flash.c ****   /* Set the OPTLOCK Bit to lock the FLASH Option Byte Registers access */
 676:../STM32F4xx_StdPeriph_Driver/src/stm32f4xx_flash.c ****   FLASH->OPTCR |= FLASH_OPTCR_OPTLOCK;
 305              		.loc 1 676 0
 306 00dc 024B     		ldr	r3, .L37
 307 00de 5A69     		ldr	r2, [r3, #20]
 308 00e0 42F00102 		orr	r2, r2, #1
 309 00e4 5A61     		str	r2, [r3, #20]
 310 00e6 7047     		bx	lr
 311              	.L38:
 312              		.align	2
 313              	.L37:
 314 00e8 003C0240 		.word	1073888256
 315              		.cfi_endproc
 316              	.LFE125:
 318              		.align	2
 319              		.global	FLASH_OB_BORConfig
 320              		.thumb
 321              		.thumb_func
 323              	FLASH_OB_BORConfig:
 324              	.LFB129:
 677:../STM32F4xx_StdPeriph_Driver/src/stm32f4xx_flash.c **** }
 678:../STM32F4xx_StdPeriph_Driver/src/stm32f4xx_flash.c **** 
 679:../STM32F4xx_StdPeriph_Driver/src/stm32f4xx_flash.c **** /**
 680:../STM32F4xx_StdPeriph_Driver/src/stm32f4xx_flash.c ****   * @brief  Enables or disables the write protection of the desired sectors
 681:../STM32F4xx_StdPeriph_Driver/src/stm32f4xx_flash.c ****   * @param  OB_WRP: specifies the sector(s) to be write protected or unprotected.
 682:../STM32F4xx_StdPeriph_Driver/src/stm32f4xx_flash.c ****   *          This parameter can be one of the following values:
 683:../STM32F4xx_StdPeriph_Driver/src/stm32f4xx_flash.c ****   *            @arg OB_WRP: A value between OB_WRP_Sector0 and OB_WRP_Sector11                     
 684:../STM32F4xx_StdPeriph_Driver/src/stm32f4xx_flash.c ****   *            @arg OB_WRP_Sector_All
 685:../STM32F4xx_StdPeriph_Driver/src/stm32f4xx_flash.c ****   * @param  Newstate: new state of the Write Protection.
 686:../STM32F4xx_StdPeriph_Driver/src/stm32f4xx_flash.c ****   *          This parameter can be: ENABLE or DISABLE.
 687:../STM32F4xx_StdPeriph_Driver/src/stm32f4xx_flash.c ****   * @retval None  
 688:../STM32F4xx_StdPeriph_Driver/src/stm32f4xx_flash.c ****   */
 689:../STM32F4xx_StdPeriph_Driver/src/stm32f4xx_flash.c **** void FLASH_OB_WRPConfig(uint32_t OB_WRP, FunctionalState NewState)
 690:../STM32F4xx_StdPeriph_Driver/src/stm32f4xx_flash.c **** { 
 691:../STM32F4xx_StdPeriph_Driver/src/stm32f4xx_flash.c ****   FLASH_Status status = FLASH_COMPLETE;
 692:../STM32F4xx_StdPeriph_Driver/src/stm32f4xx_flash.c ****   
 693:../STM32F4xx_StdPeriph_Driver/src/stm32f4xx_flash.c ****   /* Check the parameters */
 694:../STM32F4xx_StdPeriph_Driver/src/stm32f4xx_flash.c ****   assert_param(IS_OB_WRP(OB_WRP));
 695:../STM32F4xx_StdPeriph_Driver/src/stm32f4xx_flash.c ****   assert_param(IS_FUNCTIONAL_STATE(NewState));
 696:../STM32F4xx_StdPeriph_Driver/src/stm32f4xx_flash.c ****     
 697:../STM32F4xx_StdPeriph_Driver/src/stm32f4xx_flash.c ****   status = FLASH_WaitForLastOperation();
 698:../STM32F4xx_StdPeriph_Driver/src/stm32f4xx_flash.c **** 
 699:../STM32F4xx_StdPeriph_Driver/src/stm32f4xx_flash.c ****   if(status == FLASH_COMPLETE)
 700:../STM32F4xx_StdPeriph_Driver/src/stm32f4xx_flash.c ****   { 
 701:../STM32F4xx_StdPeriph_Driver/src/stm32f4xx_flash.c ****     if(NewState != DISABLE)
 702:../STM32F4xx_StdPeriph_Driver/src/stm32f4xx_flash.c ****     {
 703:../STM32F4xx_StdPeriph_Driver/src/stm32f4xx_flash.c ****       *(__IO uint16_t*)OPTCR_BYTE2_ADDRESS &= (~OB_WRP);
 704:../STM32F4xx_StdPeriph_Driver/src/stm32f4xx_flash.c ****     }
 705:../STM32F4xx_StdPeriph_Driver/src/stm32f4xx_flash.c ****     else
 706:../STM32F4xx_StdPeriph_Driver/src/stm32f4xx_flash.c ****     {
 707:../STM32F4xx_StdPeriph_Driver/src/stm32f4xx_flash.c ****       *(__IO uint16_t*)OPTCR_BYTE2_ADDRESS |= (uint16_t)OB_WRP;
 708:../STM32F4xx_StdPeriph_Driver/src/stm32f4xx_flash.c ****     }
 709:../STM32F4xx_StdPeriph_Driver/src/stm32f4xx_flash.c ****   }
 710:../STM32F4xx_StdPeriph_Driver/src/stm32f4xx_flash.c **** }
 711:../STM32F4xx_StdPeriph_Driver/src/stm32f4xx_flash.c **** 
 712:../STM32F4xx_StdPeriph_Driver/src/stm32f4xx_flash.c **** /**
 713:../STM32F4xx_StdPeriph_Driver/src/stm32f4xx_flash.c ****   * @brief  Sets the read protection level.
 714:../STM32F4xx_StdPeriph_Driver/src/stm32f4xx_flash.c ****   * @param  OB_RDP: specifies the read protection level.
 715:../STM32F4xx_StdPeriph_Driver/src/stm32f4xx_flash.c ****   *          This parameter can be one of the following values:
 716:../STM32F4xx_StdPeriph_Driver/src/stm32f4xx_flash.c ****   *            @arg OB_RDP_Level_0: No protection
 717:../STM32F4xx_StdPeriph_Driver/src/stm32f4xx_flash.c ****   *            @arg OB_RDP_Level_1: Read protection of the memory
 718:../STM32F4xx_StdPeriph_Driver/src/stm32f4xx_flash.c ****   *            @arg OB_RDP_Level_2: Full chip protection
 719:../STM32F4xx_StdPeriph_Driver/src/stm32f4xx_flash.c ****   *   
 720:../STM32F4xx_StdPeriph_Driver/src/stm32f4xx_flash.c ****   * !!!Warning!!! When enabling OB_RDP level 2 it's no more possible to go back to level 1 or 0
 721:../STM32F4xx_StdPeriph_Driver/src/stm32f4xx_flash.c ****   *    
 722:../STM32F4xx_StdPeriph_Driver/src/stm32f4xx_flash.c ****   * @retval None
 723:../STM32F4xx_StdPeriph_Driver/src/stm32f4xx_flash.c ****   */
 724:../STM32F4xx_StdPeriph_Driver/src/stm32f4xx_flash.c **** void FLASH_OB_RDPConfig(uint8_t OB_RDP)
 725:../STM32F4xx_StdPeriph_Driver/src/stm32f4xx_flash.c **** {
 726:../STM32F4xx_StdPeriph_Driver/src/stm32f4xx_flash.c ****   FLASH_Status status = FLASH_COMPLETE;
 727:../STM32F4xx_StdPeriph_Driver/src/stm32f4xx_flash.c **** 
 728:../STM32F4xx_StdPeriph_Driver/src/stm32f4xx_flash.c ****   /* Check the parameters */
 729:../STM32F4xx_StdPeriph_Driver/src/stm32f4xx_flash.c ****   assert_param(IS_OB_RDP(OB_RDP));
 730:../STM32F4xx_StdPeriph_Driver/src/stm32f4xx_flash.c **** 
 731:../STM32F4xx_StdPeriph_Driver/src/stm32f4xx_flash.c ****   status = FLASH_WaitForLastOperation();
 732:../STM32F4xx_StdPeriph_Driver/src/stm32f4xx_flash.c **** 
 733:../STM32F4xx_StdPeriph_Driver/src/stm32f4xx_flash.c ****   if(status == FLASH_COMPLETE)
 734:../STM32F4xx_StdPeriph_Driver/src/stm32f4xx_flash.c ****   {
 735:../STM32F4xx_StdPeriph_Driver/src/stm32f4xx_flash.c ****     *(__IO uint8_t*)OPTCR_BYTE1_ADDRESS = OB_RDP;
 736:../STM32F4xx_StdPeriph_Driver/src/stm32f4xx_flash.c **** 
 737:../STM32F4xx_StdPeriph_Driver/src/stm32f4xx_flash.c ****   }
 738:../STM32F4xx_StdPeriph_Driver/src/stm32f4xx_flash.c **** }
 739:../STM32F4xx_StdPeriph_Driver/src/stm32f4xx_flash.c **** 
 740:../STM32F4xx_StdPeriph_Driver/src/stm32f4xx_flash.c **** /**
 741:../STM32F4xx_StdPeriph_Driver/src/stm32f4xx_flash.c ****   * @brief  Programs the FLASH User Option Byte: IWDG_SW / RST_STOP / RST_STDBY.    
 742:../STM32F4xx_StdPeriph_Driver/src/stm32f4xx_flash.c ****   * @param  OB_IWDG: Selects the IWDG mode
 743:../STM32F4xx_StdPeriph_Driver/src/stm32f4xx_flash.c ****   *          This parameter can be one of the following values:
 744:../STM32F4xx_StdPeriph_Driver/src/stm32f4xx_flash.c ****   *            @arg OB_IWDG_SW: Software IWDG selected
 745:../STM32F4xx_StdPeriph_Driver/src/stm32f4xx_flash.c ****   *            @arg OB_IWDG_HW: Hardware IWDG selected
 746:../STM32F4xx_StdPeriph_Driver/src/stm32f4xx_flash.c ****   * @param  OB_STOP: Reset event when entering STOP mode.
 747:../STM32F4xx_StdPeriph_Driver/src/stm32f4xx_flash.c ****   *          This parameter  can be one of the following values:
 748:../STM32F4xx_StdPeriph_Driver/src/stm32f4xx_flash.c ****   *            @arg OB_STOP_NoRST: No reset generated when entering in STOP
 749:../STM32F4xx_StdPeriph_Driver/src/stm32f4xx_flash.c ****   *            @arg OB_STOP_RST: Reset generated when entering in STOP
 750:../STM32F4xx_StdPeriph_Driver/src/stm32f4xx_flash.c ****   * @param  OB_STDBY: Reset event when entering Standby mode.
 751:../STM32F4xx_StdPeriph_Driver/src/stm32f4xx_flash.c ****   *          This parameter  can be one of the following values:
 752:../STM32F4xx_StdPeriph_Driver/src/stm32f4xx_flash.c ****   *            @arg OB_STDBY_NoRST: No reset generated when entering in STANDBY
 753:../STM32F4xx_StdPeriph_Driver/src/stm32f4xx_flash.c ****   *            @arg OB_STDBY_RST: Reset generated when entering in STANDBY
 754:../STM32F4xx_StdPeriph_Driver/src/stm32f4xx_flash.c ****   * @retval None
 755:../STM32F4xx_StdPeriph_Driver/src/stm32f4xx_flash.c ****   */
 756:../STM32F4xx_StdPeriph_Driver/src/stm32f4xx_flash.c **** void FLASH_OB_UserConfig(uint8_t OB_IWDG, uint8_t OB_STOP, uint8_t OB_STDBY)
 757:../STM32F4xx_StdPeriph_Driver/src/stm32f4xx_flash.c **** {
 758:../STM32F4xx_StdPeriph_Driver/src/stm32f4xx_flash.c ****   uint8_t optiontmp = 0xFF;
 759:../STM32F4xx_StdPeriph_Driver/src/stm32f4xx_flash.c ****   FLASH_Status status = FLASH_COMPLETE; 
 760:../STM32F4xx_StdPeriph_Driver/src/stm32f4xx_flash.c **** 
 761:../STM32F4xx_StdPeriph_Driver/src/stm32f4xx_flash.c ****   /* Check the parameters */
 762:../STM32F4xx_StdPeriph_Driver/src/stm32f4xx_flash.c ****   assert_param(IS_OB_IWDG_SOURCE(OB_IWDG));
 763:../STM32F4xx_StdPeriph_Driver/src/stm32f4xx_flash.c ****   assert_param(IS_OB_STOP_SOURCE(OB_STOP));
 764:../STM32F4xx_StdPeriph_Driver/src/stm32f4xx_flash.c ****   assert_param(IS_OB_STDBY_SOURCE(OB_STDBY));
 765:../STM32F4xx_StdPeriph_Driver/src/stm32f4xx_flash.c **** 
 766:../STM32F4xx_StdPeriph_Driver/src/stm32f4xx_flash.c ****   /* Wait for last operation to be completed */
 767:../STM32F4xx_StdPeriph_Driver/src/stm32f4xx_flash.c ****   status = FLASH_WaitForLastOperation();
 768:../STM32F4xx_StdPeriph_Driver/src/stm32f4xx_flash.c ****   
 769:../STM32F4xx_StdPeriph_Driver/src/stm32f4xx_flash.c ****   if(status == FLASH_COMPLETE)
 770:../STM32F4xx_StdPeriph_Driver/src/stm32f4xx_flash.c ****   { 
 771:../STM32F4xx_StdPeriph_Driver/src/stm32f4xx_flash.c ****     /* Mask OPTLOCK, OPTSTRT and BOR_LEV bits */
 772:../STM32F4xx_StdPeriph_Driver/src/stm32f4xx_flash.c ****     optiontmp =  (uint8_t)((*(__IO uint8_t *)OPTCR_BYTE0_ADDRESS) & (uint8_t)0x0F); 
 773:../STM32F4xx_StdPeriph_Driver/src/stm32f4xx_flash.c **** 
 774:../STM32F4xx_StdPeriph_Driver/src/stm32f4xx_flash.c ****     /* Update User Option Byte */
 775:../STM32F4xx_StdPeriph_Driver/src/stm32f4xx_flash.c ****     *(__IO uint8_t *)OPTCR_BYTE0_ADDRESS = OB_IWDG | (uint8_t)(OB_STDBY | (uint8_t)(OB_STOP | ((uin
 776:../STM32F4xx_StdPeriph_Driver/src/stm32f4xx_flash.c ****   }  
 777:../STM32F4xx_StdPeriph_Driver/src/stm32f4xx_flash.c **** }
 778:../STM32F4xx_StdPeriph_Driver/src/stm32f4xx_flash.c **** 
 779:../STM32F4xx_StdPeriph_Driver/src/stm32f4xx_flash.c **** /**
 780:../STM32F4xx_StdPeriph_Driver/src/stm32f4xx_flash.c ****   * @brief  Sets the BOR Level. 
 781:../STM32F4xx_StdPeriph_Driver/src/stm32f4xx_flash.c ****   * @param  OB_BOR: specifies the Option Bytes BOR Reset Level.
 782:../STM32F4xx_StdPeriph_Driver/src/stm32f4xx_flash.c ****   *          This parameter can be one of the following values:
 783:../STM32F4xx_StdPeriph_Driver/src/stm32f4xx_flash.c ****   *            @arg OB_BOR_LEVEL3: Supply voltage ranges from 2.7 to 3.6 V
 784:../STM32F4xx_StdPeriph_Driver/src/stm32f4xx_flash.c ****   *            @arg OB_BOR_LEVEL2: Supply voltage ranges from 2.4 to 2.7 V
 785:../STM32F4xx_StdPeriph_Driver/src/stm32f4xx_flash.c ****   *            @arg OB_BOR_LEVEL1: Supply voltage ranges from 2.1 to 2.4 V
 786:../STM32F4xx_StdPeriph_Driver/src/stm32f4xx_flash.c ****   *            @arg OB_BOR_OFF: Supply voltage ranges from 1.62 to 2.1 V
 787:../STM32F4xx_StdPeriph_Driver/src/stm32f4xx_flash.c ****   * @retval None
 788:../STM32F4xx_StdPeriph_Driver/src/stm32f4xx_flash.c ****   */
 789:../STM32F4xx_StdPeriph_Driver/src/stm32f4xx_flash.c **** void FLASH_OB_BORConfig(uint8_t OB_BOR)
 790:../STM32F4xx_StdPeriph_Driver/src/stm32f4xx_flash.c **** {
 325              		.loc 1 790 0
 326              		.cfi_startproc
 327              		@ args = 0, pretend = 0, frame = 0
 328              		@ frame_needed = 0, uses_anonymous_args = 0
 329              		@ link register save eliminated.
 330              	.LVL5:
 791:../STM32F4xx_StdPeriph_Driver/src/stm32f4xx_flash.c ****   /* Check the parameters */
 792:../STM32F4xx_StdPeriph_Driver/src/stm32f4xx_flash.c ****   assert_param(IS_OB_BOR(OB_BOR));
 793:../STM32F4xx_StdPeriph_Driver/src/stm32f4xx_flash.c **** 
 794:../STM32F4xx_StdPeriph_Driver/src/stm32f4xx_flash.c ****   /* Set the BOR Level */
 795:../STM32F4xx_StdPeriph_Driver/src/stm32f4xx_flash.c ****   *(__IO uint8_t *)OPTCR_BYTE0_ADDRESS &= (~FLASH_OPTCR_BOR_LEV);
 331              		.loc 1 795 0
 332 00ec 044B     		ldr	r3, .L40
 333 00ee 1A78     		ldrb	r2, [r3]	@ zero_extendqisi2
 334 00f0 02F0F302 		and	r2, r2, #243
 335 00f4 1A70     		strb	r2, [r3]
 796:../STM32F4xx_StdPeriph_Driver/src/stm32f4xx_flash.c ****   *(__IO uint8_t *)OPTCR_BYTE0_ADDRESS |= OB_BOR;
 336              		.loc 1 796 0
 337 00f6 1A78     		ldrb	r2, [r3]	@ zero_extendqisi2
 338 00f8 1043     		orrs	r0, r0, r2
 339              	.LVL6:
 340 00fa 1870     		strb	r0, [r3]
 341 00fc 7047     		bx	lr
 342              	.L41:
 343 00fe 00BF     		.align	2
 344              	.L40:
 345 0100 143C0240 		.word	1073888276
 346              		.cfi_endproc
 347              	.LFE129:
 349              		.align	2
 350              		.global	FLASH_OB_GetUser
 351              		.thumb
 352              		.thumb_func
 354              	FLASH_OB_GetUser:
 355              	.LFB131:
 797:../STM32F4xx_StdPeriph_Driver/src/stm32f4xx_flash.c **** 
 798:../STM32F4xx_StdPeriph_Driver/src/stm32f4xx_flash.c **** }
 799:../STM32F4xx_StdPeriph_Driver/src/stm32f4xx_flash.c **** 
 800:../STM32F4xx_StdPeriph_Driver/src/stm32f4xx_flash.c **** /**
 801:../STM32F4xx_StdPeriph_Driver/src/stm32f4xx_flash.c ****   * @brief  Launch the option byte loading.
 802:../STM32F4xx_StdPeriph_Driver/src/stm32f4xx_flash.c ****   * @param  None
 803:../STM32F4xx_StdPeriph_Driver/src/stm32f4xx_flash.c ****   * @retval FLASH Status: The returned value can be: FLASH_BUSY, FLASH_ERROR_PROGRAM,
 804:../STM32F4xx_StdPeriph_Driver/src/stm32f4xx_flash.c ****   *                       FLASH_ERROR_WRP, FLASH_ERROR_OPERATION or FLASH_COMPLETE.
 805:../STM32F4xx_StdPeriph_Driver/src/stm32f4xx_flash.c ****   */
 806:../STM32F4xx_StdPeriph_Driver/src/stm32f4xx_flash.c **** FLASH_Status FLASH_OB_Launch(void)
 807:../STM32F4xx_StdPeriph_Driver/src/stm32f4xx_flash.c **** {
 808:../STM32F4xx_StdPeriph_Driver/src/stm32f4xx_flash.c ****   FLASH_Status status = FLASH_COMPLETE;
 809:../STM32F4xx_StdPeriph_Driver/src/stm32f4xx_flash.c **** 
 810:../STM32F4xx_StdPeriph_Driver/src/stm32f4xx_flash.c ****   /* Set the OPTSTRT bit in OPTCR register */
 811:../STM32F4xx_StdPeriph_Driver/src/stm32f4xx_flash.c ****   *(__IO uint8_t *)OPTCR_BYTE0_ADDRESS |= FLASH_OPTCR_OPTSTRT;
 812:../STM32F4xx_StdPeriph_Driver/src/stm32f4xx_flash.c **** 
 813:../STM32F4xx_StdPeriph_Driver/src/stm32f4xx_flash.c ****   /* Wait for last operation to be completed */
 814:../STM32F4xx_StdPeriph_Driver/src/stm32f4xx_flash.c ****   status = FLASH_WaitForLastOperation();
 815:../STM32F4xx_StdPeriph_Driver/src/stm32f4xx_flash.c **** 
 816:../STM32F4xx_StdPeriph_Driver/src/stm32f4xx_flash.c ****   return status;
 817:../STM32F4xx_StdPeriph_Driver/src/stm32f4xx_flash.c **** }
 818:../STM32F4xx_StdPeriph_Driver/src/stm32f4xx_flash.c **** 
 819:../STM32F4xx_StdPeriph_Driver/src/stm32f4xx_flash.c **** /**
 820:../STM32F4xx_StdPeriph_Driver/src/stm32f4xx_flash.c ****   * @brief  Returns the FLASH User Option Bytes values.
 821:../STM32F4xx_StdPeriph_Driver/src/stm32f4xx_flash.c ****   * @param  None
 822:../STM32F4xx_StdPeriph_Driver/src/stm32f4xx_flash.c ****   * @retval The FLASH User Option Bytes values: IWDG_SW(Bit0), RST_STOP(Bit1)
 823:../STM32F4xx_StdPeriph_Driver/src/stm32f4xx_flash.c ****   *         and RST_STDBY(Bit2).
 824:../STM32F4xx_StdPeriph_Driver/src/stm32f4xx_flash.c ****   */
 825:../STM32F4xx_StdPeriph_Driver/src/stm32f4xx_flash.c **** uint8_t FLASH_OB_GetUser(void)
 826:../STM32F4xx_StdPeriph_Driver/src/stm32f4xx_flash.c **** {
 356              		.loc 1 826 0
 357              		.cfi_startproc
 358              		@ args = 0, pretend = 0, frame = 0
 359              		@ frame_needed = 0, uses_anonymous_args = 0
 360              		@ link register save eliminated.
 827:../STM32F4xx_StdPeriph_Driver/src/stm32f4xx_flash.c ****   /* Return the User Option Byte */
 828:../STM32F4xx_StdPeriph_Driver/src/stm32f4xx_flash.c ****   return (uint8_t)(FLASH->OPTCR >> 5);
 361              		.loc 1 828 0
 362 0104 024B     		ldr	r3, .L43
 363 0106 5869     		ldr	r0, [r3, #20]
 829:../STM32F4xx_StdPeriph_Driver/src/stm32f4xx_flash.c **** }
 364              		.loc 1 829 0
 365 0108 C0F34710 		ubfx	r0, r0, #5, #8
 366 010c 7047     		bx	lr
 367              	.L44:
 368 010e 00BF     		.align	2
 369              	.L43:
 370 0110 003C0240 		.word	1073888256
 371              		.cfi_endproc
 372              	.LFE131:
 374              		.align	2
 375              		.global	FLASH_OB_GetWRP
 376              		.thumb
 377              		.thumb_func
 379              	FLASH_OB_GetWRP:
 380              	.LFB132:
 830:../STM32F4xx_StdPeriph_Driver/src/stm32f4xx_flash.c **** 
 831:../STM32F4xx_StdPeriph_Driver/src/stm32f4xx_flash.c **** /**
 832:../STM32F4xx_StdPeriph_Driver/src/stm32f4xx_flash.c ****   * @brief  Returns the FLASH Write Protection Option Bytes value.
 833:../STM32F4xx_StdPeriph_Driver/src/stm32f4xx_flash.c ****   * @param  None
 834:../STM32F4xx_StdPeriph_Driver/src/stm32f4xx_flash.c ****   * @retval The FLASH Write Protection  Option Bytes value
 835:../STM32F4xx_StdPeriph_Driver/src/stm32f4xx_flash.c ****   */
 836:../STM32F4xx_StdPeriph_Driver/src/stm32f4xx_flash.c **** uint16_t FLASH_OB_GetWRP(void)
 837:../STM32F4xx_StdPeriph_Driver/src/stm32f4xx_flash.c **** {
 381              		.loc 1 837 0
 382              		.cfi_startproc
 383              		@ args = 0, pretend = 0, frame = 0
 384              		@ frame_needed = 0, uses_anonymous_args = 0
 385              		@ link register save eliminated.
 838:../STM32F4xx_StdPeriph_Driver/src/stm32f4xx_flash.c ****   /* Return the FLASH write protection Register value */
 839:../STM32F4xx_StdPeriph_Driver/src/stm32f4xx_flash.c ****   return (*(__IO uint16_t *)(OPTCR_BYTE2_ADDRESS));
 386              		.loc 1 839 0
 387 0114 014B     		ldr	r3, .L46
 388 0116 1888     		ldrh	r0, [r3]
 840:../STM32F4xx_StdPeriph_Driver/src/stm32f4xx_flash.c **** }
 389              		.loc 1 840 0
 390 0118 80B2     		uxth	r0, r0
 391 011a 7047     		bx	lr
 392              	.L47:
 393              		.align	2
 394              	.L46:
 395 011c 163C0240 		.word	1073888278
 396              		.cfi_endproc
 397              	.LFE132:
 399              		.align	2
 400              		.global	FLASH_OB_GetRDP
 401              		.thumb
 402              		.thumb_func
 404              	FLASH_OB_GetRDP:
 405              	.LFB133:
 841:../STM32F4xx_StdPeriph_Driver/src/stm32f4xx_flash.c **** 
 842:../STM32F4xx_StdPeriph_Driver/src/stm32f4xx_flash.c **** /**
 843:../STM32F4xx_StdPeriph_Driver/src/stm32f4xx_flash.c ****   * @brief  Returns the FLASH Read Protection level.
 844:../STM32F4xx_StdPeriph_Driver/src/stm32f4xx_flash.c ****   * @param  None
 845:../STM32F4xx_StdPeriph_Driver/src/stm32f4xx_flash.c ****   * @retval FLASH ReadOut Protection Status:
 846:../STM32F4xx_StdPeriph_Driver/src/stm32f4xx_flash.c ****   *           - SET, when OB_RDP_Level_1 or OB_RDP_Level_2 is set
 847:../STM32F4xx_StdPeriph_Driver/src/stm32f4xx_flash.c ****   *           - RESET, when OB_RDP_Level_0 is set
 848:../STM32F4xx_StdPeriph_Driver/src/stm32f4xx_flash.c ****   */
 849:../STM32F4xx_StdPeriph_Driver/src/stm32f4xx_flash.c **** FlagStatus FLASH_OB_GetRDP(void)
 850:../STM32F4xx_StdPeriph_Driver/src/stm32f4xx_flash.c **** {
 406              		.loc 1 850 0
 407              		.cfi_startproc
 408              		@ args = 0, pretend = 0, frame = 0
 409              		@ frame_needed = 0, uses_anonymous_args = 0
 410              		@ link register save eliminated.
 411              	.LVL7:
 851:../STM32F4xx_StdPeriph_Driver/src/stm32f4xx_flash.c ****   FlagStatus readstatus = RESET;
 852:../STM32F4xx_StdPeriph_Driver/src/stm32f4xx_flash.c **** 
 853:../STM32F4xx_StdPeriph_Driver/src/stm32f4xx_flash.c ****   if ((*(__IO uint8_t*)(OPTCR_BYTE1_ADDRESS) != (uint8_t)OB_RDP_Level_0))
 412              		.loc 1 853 0
 413 0120 044B     		ldr	r3, .L51
 414 0122 1B78     		ldrb	r3, [r3]	@ zero_extendqisi2
 415 0124 DBB2     		uxtb	r3, r3
 416 0126 AA2B     		cmp	r3, #170
 417 0128 01D0     		beq	.L50
 854:../STM32F4xx_StdPeriph_Driver/src/stm32f4xx_flash.c ****   {
 855:../STM32F4xx_StdPeriph_Driver/src/stm32f4xx_flash.c ****     readstatus = SET;
 418              		.loc 1 855 0
 419 012a 0120     		movs	r0, #1
 420 012c 7047     		bx	lr
 421              	.L50:
 856:../STM32F4xx_StdPeriph_Driver/src/stm32f4xx_flash.c ****   }
 857:../STM32F4xx_StdPeriph_Driver/src/stm32f4xx_flash.c ****   else
 858:../STM32F4xx_StdPeriph_Driver/src/stm32f4xx_flash.c ****   {
 859:../STM32F4xx_StdPeriph_Driver/src/stm32f4xx_flash.c ****     readstatus = RESET;
 422              		.loc 1 859 0
 423 012e 0020     		movs	r0, #0
 424              	.LVL8:
 860:../STM32F4xx_StdPeriph_Driver/src/stm32f4xx_flash.c ****   }
 861:../STM32F4xx_StdPeriph_Driver/src/stm32f4xx_flash.c ****   return readstatus;
 862:../STM32F4xx_StdPeriph_Driver/src/stm32f4xx_flash.c **** }
 425              		.loc 1 862 0
 426 0130 7047     		bx	lr
 427              	.L52:
 428 0132 00BF     		.align	2
 429              	.L51:
 430 0134 153C0240 		.word	1073888277
 431              		.cfi_endproc
 432              	.LFE133:
 434              		.align	2
 435              		.global	FLASH_OB_GetBOR
 436              		.thumb
 437              		.thumb_func
 439              	FLASH_OB_GetBOR:
 440              	.LFB134:
 863:../STM32F4xx_StdPeriph_Driver/src/stm32f4xx_flash.c **** 
 864:../STM32F4xx_StdPeriph_Driver/src/stm32f4xx_flash.c **** /**
 865:../STM32F4xx_StdPeriph_Driver/src/stm32f4xx_flash.c ****   * @brief  Returns the FLASH BOR level.
 866:../STM32F4xx_StdPeriph_Driver/src/stm32f4xx_flash.c ****   * @param  None
 867:../STM32F4xx_StdPeriph_Driver/src/stm32f4xx_flash.c ****   * @retval The FLASH BOR level:
 868:../STM32F4xx_StdPeriph_Driver/src/stm32f4xx_flash.c ****   *           - OB_BOR_LEVEL3: Supply voltage ranges from 2.7 to 3.6 V
 869:../STM32F4xx_StdPeriph_Driver/src/stm32f4xx_flash.c ****   *           - OB_BOR_LEVEL2: Supply voltage ranges from 2.4 to 2.7 V
 870:../STM32F4xx_StdPeriph_Driver/src/stm32f4xx_flash.c ****   *           - OB_BOR_LEVEL1: Supply voltage ranges from 2.1 to 2.4 V
 871:../STM32F4xx_StdPeriph_Driver/src/stm32f4xx_flash.c ****   *           - OB_BOR_OFF   : Supply voltage ranges from 1.62 to 2.1 V  
 872:../STM32F4xx_StdPeriph_Driver/src/stm32f4xx_flash.c ****   */
 873:../STM32F4xx_StdPeriph_Driver/src/stm32f4xx_flash.c **** uint8_t FLASH_OB_GetBOR(void)
 874:../STM32F4xx_StdPeriph_Driver/src/stm32f4xx_flash.c **** {
 441              		.loc 1 874 0
 442              		.cfi_startproc
 443              		@ args = 0, pretend = 0, frame = 0
 444              		@ frame_needed = 0, uses_anonymous_args = 0
 445              		@ link register save eliminated.
 875:../STM32F4xx_StdPeriph_Driver/src/stm32f4xx_flash.c ****   /* Return the FLASH BOR level */
 876:../STM32F4xx_StdPeriph_Driver/src/stm32f4xx_flash.c ****   return (uint8_t)(*(__IO uint8_t *)(OPTCR_BYTE0_ADDRESS) & (uint8_t)0x0C);
 446              		.loc 1 876 0
 447 0138 024B     		ldr	r3, .L54
 448 013a 1878     		ldrb	r0, [r3]	@ zero_extendqisi2
 877:../STM32F4xx_StdPeriph_Driver/src/stm32f4xx_flash.c **** }
 449              		.loc 1 877 0
 450 013c 00F00C00 		and	r0, r0, #12
 451 0140 7047     		bx	lr
 452              	.L55:
 453 0142 00BF     		.align	2
 454              	.L54:
 455 0144 143C0240 		.word	1073888276
 456              		.cfi_endproc
 457              	.LFE134:
 459              		.align	2
 460              		.global	FLASH_ITConfig
 461              		.thumb
 462              		.thumb_func
 464              	FLASH_ITConfig:
 465              	.LFB135:
 878:../STM32F4xx_StdPeriph_Driver/src/stm32f4xx_flash.c **** 
 879:../STM32F4xx_StdPeriph_Driver/src/stm32f4xx_flash.c **** /**
 880:../STM32F4xx_StdPeriph_Driver/src/stm32f4xx_flash.c ****   * @}
 881:../STM32F4xx_StdPeriph_Driver/src/stm32f4xx_flash.c ****   */
 882:../STM32F4xx_StdPeriph_Driver/src/stm32f4xx_flash.c **** 
 883:../STM32F4xx_StdPeriph_Driver/src/stm32f4xx_flash.c **** /** @defgroup FLASH_Group4 Interrupts and flags management functions
 884:../STM32F4xx_StdPeriph_Driver/src/stm32f4xx_flash.c ****  *  @brief   Interrupts and flags management functions
 885:../STM32F4xx_StdPeriph_Driver/src/stm32f4xx_flash.c ****  *
 886:../STM32F4xx_StdPeriph_Driver/src/stm32f4xx_flash.c **** @verbatim   
 887:../STM32F4xx_StdPeriph_Driver/src/stm32f4xx_flash.c ****  ===============================================================================
 888:../STM32F4xx_StdPeriph_Driver/src/stm32f4xx_flash.c ****                   Interrupts and flags management functions
 889:../STM32F4xx_StdPeriph_Driver/src/stm32f4xx_flash.c ****  ===============================================================================  
 890:../STM32F4xx_StdPeriph_Driver/src/stm32f4xx_flash.c **** 
 891:../STM32F4xx_StdPeriph_Driver/src/stm32f4xx_flash.c **** @endverbatim
 892:../STM32F4xx_StdPeriph_Driver/src/stm32f4xx_flash.c ****   * @{
 893:../STM32F4xx_StdPeriph_Driver/src/stm32f4xx_flash.c ****   */
 894:../STM32F4xx_StdPeriph_Driver/src/stm32f4xx_flash.c **** 
 895:../STM32F4xx_StdPeriph_Driver/src/stm32f4xx_flash.c **** /**
 896:../STM32F4xx_StdPeriph_Driver/src/stm32f4xx_flash.c ****   * @brief  Enables or disables the specified FLASH interrupts.
 897:../STM32F4xx_StdPeriph_Driver/src/stm32f4xx_flash.c ****   * @param  FLASH_IT: specifies the FLASH interrupt sources to be enabled or disabled.
 898:../STM32F4xx_StdPeriph_Driver/src/stm32f4xx_flash.c ****   *          This parameter can be any combination of the following values:
 899:../STM32F4xx_StdPeriph_Driver/src/stm32f4xx_flash.c ****   *            @arg FLASH_IT_ERR: FLASH Error Interrupt
 900:../STM32F4xx_StdPeriph_Driver/src/stm32f4xx_flash.c ****   *            @arg FLASH_IT_EOP: FLASH end of operation Interrupt
 901:../STM32F4xx_StdPeriph_Driver/src/stm32f4xx_flash.c ****   * @retval None 
 902:../STM32F4xx_StdPeriph_Driver/src/stm32f4xx_flash.c ****   */
 903:../STM32F4xx_StdPeriph_Driver/src/stm32f4xx_flash.c **** void FLASH_ITConfig(uint32_t FLASH_IT, FunctionalState NewState)
 904:../STM32F4xx_StdPeriph_Driver/src/stm32f4xx_flash.c **** {
 466              		.loc 1 904 0
 467              		.cfi_startproc
 468              		@ args = 0, pretend = 0, frame = 0
 469              		@ frame_needed = 0, uses_anonymous_args = 0
 470              		@ link register save eliminated.
 471              	.LVL9:
 905:../STM32F4xx_StdPeriph_Driver/src/stm32f4xx_flash.c ****   /* Check the parameters */
 906:../STM32F4xx_StdPeriph_Driver/src/stm32f4xx_flash.c ****   assert_param(IS_FLASH_IT(FLASH_IT)); 
 907:../STM32F4xx_StdPeriph_Driver/src/stm32f4xx_flash.c ****   assert_param(IS_FUNCTIONAL_STATE(NewState));
 908:../STM32F4xx_StdPeriph_Driver/src/stm32f4xx_flash.c **** 
 909:../STM32F4xx_StdPeriph_Driver/src/stm32f4xx_flash.c ****   if(NewState != DISABLE)
 472              		.loc 1 909 0
 473 0148 21B1     		cbz	r1, .L57
 910:../STM32F4xx_StdPeriph_Driver/src/stm32f4xx_flash.c ****   {
 911:../STM32F4xx_StdPeriph_Driver/src/stm32f4xx_flash.c ****     /* Enable the interrupt sources */
 912:../STM32F4xx_StdPeriph_Driver/src/stm32f4xx_flash.c ****     FLASH->CR |= FLASH_IT;
 474              		.loc 1 912 0
 475 014a 054B     		ldr	r3, .L59
 476 014c 1A69     		ldr	r2, [r3, #16]
 477 014e 1043     		orrs	r0, r0, r2
 478              	.LVL10:
 479 0150 1861     		str	r0, [r3, #16]
 480 0152 7047     		bx	lr
 481              	.LVL11:
 482              	.L57:
 913:../STM32F4xx_StdPeriph_Driver/src/stm32f4xx_flash.c ****   }
 914:../STM32F4xx_StdPeriph_Driver/src/stm32f4xx_flash.c ****   else
 915:../STM32F4xx_StdPeriph_Driver/src/stm32f4xx_flash.c ****   {
 916:../STM32F4xx_StdPeriph_Driver/src/stm32f4xx_flash.c ****     /* Disable the interrupt sources */
 917:../STM32F4xx_StdPeriph_Driver/src/stm32f4xx_flash.c ****     FLASH->CR &= ~(uint32_t)FLASH_IT;
 483              		.loc 1 917 0
 484 0154 024B     		ldr	r3, .L59
 485 0156 1A69     		ldr	r2, [r3, #16]
 486 0158 22EA0000 		bic	r0, r2, r0
 487              	.LVL12:
 488 015c 1861     		str	r0, [r3, #16]
 489 015e 7047     		bx	lr
 490              	.L60:
 491              		.align	2
 492              	.L59:
 493 0160 003C0240 		.word	1073888256
 494              		.cfi_endproc
 495              	.LFE135:
 497              		.align	2
 498              		.global	FLASH_GetFlagStatus
 499              		.thumb
 500              		.thumb_func
 502              	FLASH_GetFlagStatus:
 503              	.LFB136:
 918:../STM32F4xx_StdPeriph_Driver/src/stm32f4xx_flash.c ****   }
 919:../STM32F4xx_StdPeriph_Driver/src/stm32f4xx_flash.c **** }
 920:../STM32F4xx_StdPeriph_Driver/src/stm32f4xx_flash.c **** 
 921:../STM32F4xx_StdPeriph_Driver/src/stm32f4xx_flash.c **** /**
 922:../STM32F4xx_StdPeriph_Driver/src/stm32f4xx_flash.c ****   * @brief  Checks whether the specified FLASH flag is set or not.
 923:../STM32F4xx_StdPeriph_Driver/src/stm32f4xx_flash.c ****   * @param  FLASH_FLAG: specifies the FLASH flag to check.
 924:../STM32F4xx_StdPeriph_Driver/src/stm32f4xx_flash.c ****   *          This parameter can be one of the following values:
 925:../STM32F4xx_StdPeriph_Driver/src/stm32f4xx_flash.c ****   *            @arg FLASH_FLAG_EOP: FLASH End of Operation flag 
 926:../STM32F4xx_StdPeriph_Driver/src/stm32f4xx_flash.c ****   *            @arg FLASH_FLAG_OPERR: FLASH operation Error flag 
 927:../STM32F4xx_StdPeriph_Driver/src/stm32f4xx_flash.c ****   *            @arg FLASH_FLAG_WRPERR: FLASH Write protected error flag 
 928:../STM32F4xx_StdPeriph_Driver/src/stm32f4xx_flash.c ****   *            @arg FLASH_FLAG_PGAERR: FLASH Programming Alignment error flag
 929:../STM32F4xx_StdPeriph_Driver/src/stm32f4xx_flash.c ****   *            @arg FLASH_FLAG_PGPERR: FLASH Programming Parallelism error flag
 930:../STM32F4xx_StdPeriph_Driver/src/stm32f4xx_flash.c ****   *            @arg FLASH_FLAG_PGSERR: FLASH Programming Sequence error flag
 931:../STM32F4xx_StdPeriph_Driver/src/stm32f4xx_flash.c ****   *            @arg FLASH_FLAG_BSY: FLASH Busy flag
 932:../STM32F4xx_StdPeriph_Driver/src/stm32f4xx_flash.c ****   * @retval The new state of FLASH_FLAG (SET or RESET).
 933:../STM32F4xx_StdPeriph_Driver/src/stm32f4xx_flash.c ****   */
 934:../STM32F4xx_StdPeriph_Driver/src/stm32f4xx_flash.c **** FlagStatus FLASH_GetFlagStatus(uint32_t FLASH_FLAG)
 935:../STM32F4xx_StdPeriph_Driver/src/stm32f4xx_flash.c **** {
 504              		.loc 1 935 0
 505              		.cfi_startproc
 506              		@ args = 0, pretend = 0, frame = 0
 507              		@ frame_needed = 0, uses_anonymous_args = 0
 508              		@ link register save eliminated.
 509              	.LVL13:
 936:../STM32F4xx_StdPeriph_Driver/src/stm32f4xx_flash.c ****   FlagStatus bitstatus = RESET;
 937:../STM32F4xx_StdPeriph_Driver/src/stm32f4xx_flash.c ****   /* Check the parameters */
 938:../STM32F4xx_StdPeriph_Driver/src/stm32f4xx_flash.c ****   assert_param(IS_FLASH_GET_FLAG(FLASH_FLAG));
 939:../STM32F4xx_StdPeriph_Driver/src/stm32f4xx_flash.c **** 
 940:../STM32F4xx_StdPeriph_Driver/src/stm32f4xx_flash.c ****   if((FLASH->SR & FLASH_FLAG) != (uint32_t)RESET)
 510              		.loc 1 940 0
 511 0164 034B     		ldr	r3, .L64
 512 0166 DB68     		ldr	r3, [r3, #12]
 513 0168 0342     		tst	r3, r0
 514 016a 01D0     		beq	.L63
 941:../STM32F4xx_StdPeriph_Driver/src/stm32f4xx_flash.c ****   {
 942:../STM32F4xx_StdPeriph_Driver/src/stm32f4xx_flash.c ****     bitstatus = SET;
 515              		.loc 1 942 0
 516 016c 0120     		movs	r0, #1
 517              	.LVL14:
 518 016e 7047     		bx	lr
 519              	.LVL15:
 520              	.L63:
 943:../STM32F4xx_StdPeriph_Driver/src/stm32f4xx_flash.c ****   }
 944:../STM32F4xx_StdPeriph_Driver/src/stm32f4xx_flash.c ****   else
 945:../STM32F4xx_StdPeriph_Driver/src/stm32f4xx_flash.c ****   {
 946:../STM32F4xx_StdPeriph_Driver/src/stm32f4xx_flash.c ****     bitstatus = RESET;
 521              		.loc 1 946 0
 522 0170 0020     		movs	r0, #0
 523              	.LVL16:
 947:../STM32F4xx_StdPeriph_Driver/src/stm32f4xx_flash.c ****   }
 948:../STM32F4xx_StdPeriph_Driver/src/stm32f4xx_flash.c ****   /* Return the new state of FLASH_FLAG (SET or RESET) */
 949:../STM32F4xx_StdPeriph_Driver/src/stm32f4xx_flash.c ****   return bitstatus; 
 950:../STM32F4xx_StdPeriph_Driver/src/stm32f4xx_flash.c **** }
 524              		.loc 1 950 0
 525 0172 7047     		bx	lr
 526              	.L65:
 527              		.align	2
 528              	.L64:
 529 0174 003C0240 		.word	1073888256
 530              		.cfi_endproc
 531              	.LFE136:
 533              		.align	2
 534              		.global	FLASH_ClearFlag
 535              		.thumb
 536              		.thumb_func
 538              	FLASH_ClearFlag:
 539              	.LFB137:
 951:../STM32F4xx_StdPeriph_Driver/src/stm32f4xx_flash.c **** 
 952:../STM32F4xx_StdPeriph_Driver/src/stm32f4xx_flash.c **** /**
 953:../STM32F4xx_StdPeriph_Driver/src/stm32f4xx_flash.c ****   * @brief  Clears the FLASH's pending flags.
 954:../STM32F4xx_StdPeriph_Driver/src/stm32f4xx_flash.c ****   * @param  FLASH_FLAG: specifies the FLASH flags to clear.
 955:../STM32F4xx_StdPeriph_Driver/src/stm32f4xx_flash.c ****   *          This parameter can be any combination of the following values:
 956:../STM32F4xx_StdPeriph_Driver/src/stm32f4xx_flash.c ****   *            @arg FLASH_FLAG_EOP: FLASH End of Operation flag 
 957:../STM32F4xx_StdPeriph_Driver/src/stm32f4xx_flash.c ****   *            @arg FLASH_FLAG_OPERR: FLASH operation Error flag 
 958:../STM32F4xx_StdPeriph_Driver/src/stm32f4xx_flash.c ****   *            @arg FLASH_FLAG_WRPERR: FLASH Write protected error flag 
 959:../STM32F4xx_StdPeriph_Driver/src/stm32f4xx_flash.c ****   *            @arg FLASH_FLAG_PGAERR: FLASH Programming Alignment error flag 
 960:../STM32F4xx_StdPeriph_Driver/src/stm32f4xx_flash.c ****   *            @arg FLASH_FLAG_PGPERR: FLASH Programming Parallelism error flag
 961:../STM32F4xx_StdPeriph_Driver/src/stm32f4xx_flash.c ****   *            @arg FLASH_FLAG_PGSERR: FLASH Programming Sequence error flag
 962:../STM32F4xx_StdPeriph_Driver/src/stm32f4xx_flash.c ****   * @retval None
 963:../STM32F4xx_StdPeriph_Driver/src/stm32f4xx_flash.c ****   */
 964:../STM32F4xx_StdPeriph_Driver/src/stm32f4xx_flash.c **** void FLASH_ClearFlag(uint32_t FLASH_FLAG)
 965:../STM32F4xx_StdPeriph_Driver/src/stm32f4xx_flash.c **** {
 540              		.loc 1 965 0
 541              		.cfi_startproc
 542              		@ args = 0, pretend = 0, frame = 0
 543              		@ frame_needed = 0, uses_anonymous_args = 0
 544              		@ link register save eliminated.
 545              	.LVL17:
 966:../STM32F4xx_StdPeriph_Driver/src/stm32f4xx_flash.c ****   /* Check the parameters */
 967:../STM32F4xx_StdPeriph_Driver/src/stm32f4xx_flash.c ****   assert_param(IS_FLASH_CLEAR_FLAG(FLASH_FLAG));
 968:../STM32F4xx_StdPeriph_Driver/src/stm32f4xx_flash.c ****   
 969:../STM32F4xx_StdPeriph_Driver/src/stm32f4xx_flash.c ****   /* Clear the flags */
 970:../STM32F4xx_StdPeriph_Driver/src/stm32f4xx_flash.c ****   FLASH->SR = FLASH_FLAG;
 546              		.loc 1 970 0
 547 0178 014B     		ldr	r3, .L67
 548 017a D860     		str	r0, [r3, #12]
 549 017c 7047     		bx	lr
 550              	.L68:
 551 017e 00BF     		.align	2
 552              	.L67:
 553 0180 003C0240 		.word	1073888256
 554              		.cfi_endproc
 555              	.LFE137:
 557              		.align	2
 558              		.global	FLASH_GetStatus
 559              		.thumb
 560              		.thumb_func
 562              	FLASH_GetStatus:
 563              	.LFB138:
 971:../STM32F4xx_StdPeriph_Driver/src/stm32f4xx_flash.c **** }
 972:../STM32F4xx_StdPeriph_Driver/src/stm32f4xx_flash.c **** 
 973:../STM32F4xx_StdPeriph_Driver/src/stm32f4xx_flash.c **** /**
 974:../STM32F4xx_StdPeriph_Driver/src/stm32f4xx_flash.c ****   * @brief  Returns the FLASH Status.
 975:../STM32F4xx_StdPeriph_Driver/src/stm32f4xx_flash.c ****   * @param  None
 976:../STM32F4xx_StdPeriph_Driver/src/stm32f4xx_flash.c ****   * @retval FLASH Status: The returned value can be: FLASH_BUSY, FLASH_ERROR_PROGRAM,
 977:../STM32F4xx_StdPeriph_Driver/src/stm32f4xx_flash.c ****   *                       FLASH_ERROR_WRP, FLASH_ERROR_OPERATION or FLASH_COMPLETE.
 978:../STM32F4xx_StdPeriph_Driver/src/stm32f4xx_flash.c ****   */
 979:../STM32F4xx_StdPeriph_Driver/src/stm32f4xx_flash.c **** FLASH_Status FLASH_GetStatus(void)
 980:../STM32F4xx_StdPeriph_Driver/src/stm32f4xx_flash.c **** {
 564              		.loc 1 980 0
 565              		.cfi_startproc
 566              		@ args = 0, pretend = 0, frame = 0
 567              		@ frame_needed = 0, uses_anonymous_args = 0
 568              		@ link register save eliminated.
 569              	.LVL18:
 981:../STM32F4xx_StdPeriph_Driver/src/stm32f4xx_flash.c ****   FLASH_Status flashstatus = FLASH_COMPLETE;
 982:../STM32F4xx_StdPeriph_Driver/src/stm32f4xx_flash.c ****   
 983:../STM32F4xx_StdPeriph_Driver/src/stm32f4xx_flash.c ****   if((FLASH->SR & FLASH_FLAG_BSY) == FLASH_FLAG_BSY) 
 570              		.loc 1 983 0
 571 0184 0E4B     		ldr	r3, .L75
 572 0186 DB68     		ldr	r3, [r3, #12]
 573 0188 13F4803F 		tst	r3, #65536
 574 018c 10D1     		bne	.L71
 984:../STM32F4xx_StdPeriph_Driver/src/stm32f4xx_flash.c ****   {
 985:../STM32F4xx_StdPeriph_Driver/src/stm32f4xx_flash.c ****     flashstatus = FLASH_BUSY;
 986:../STM32F4xx_StdPeriph_Driver/src/stm32f4xx_flash.c ****   }
 987:../STM32F4xx_StdPeriph_Driver/src/stm32f4xx_flash.c ****   else 
 988:../STM32F4xx_StdPeriph_Driver/src/stm32f4xx_flash.c ****   {  
 989:../STM32F4xx_StdPeriph_Driver/src/stm32f4xx_flash.c ****     if((FLASH->SR & FLASH_FLAG_WRPERR) != (uint32_t)0x00)
 575              		.loc 1 989 0
 576 018e 0C4B     		ldr	r3, .L75
 577 0190 DB68     		ldr	r3, [r3, #12]
 578 0192 13F0100F 		tst	r3, #16
 579 0196 0DD1     		bne	.L72
 990:../STM32F4xx_StdPeriph_Driver/src/stm32f4xx_flash.c ****     { 
 991:../STM32F4xx_StdPeriph_Driver/src/stm32f4xx_flash.c ****       flashstatus = FLASH_ERROR_WRP;
 992:../STM32F4xx_StdPeriph_Driver/src/stm32f4xx_flash.c ****     }
 993:../STM32F4xx_StdPeriph_Driver/src/stm32f4xx_flash.c ****     else 
 994:../STM32F4xx_StdPeriph_Driver/src/stm32f4xx_flash.c ****     {
 995:../STM32F4xx_StdPeriph_Driver/src/stm32f4xx_flash.c ****       if((FLASH->SR & (uint32_t)0xEF) != (uint32_t)0x00)
 580              		.loc 1 995 0
 581 0198 094B     		ldr	r3, .L75
 582 019a DB68     		ldr	r3, [r3, #12]
 583 019c 13F0EF0F 		tst	r3, #239
 584 01a0 0AD1     		bne	.L73
 996:../STM32F4xx_StdPeriph_Driver/src/stm32f4xx_flash.c ****       {
 997:../STM32F4xx_StdPeriph_Driver/src/stm32f4xx_flash.c ****         flashstatus = FLASH_ERROR_PROGRAM; 
 998:../STM32F4xx_StdPeriph_Driver/src/stm32f4xx_flash.c ****       }
 999:../STM32F4xx_StdPeriph_Driver/src/stm32f4xx_flash.c ****       else
1000:../STM32F4xx_StdPeriph_Driver/src/stm32f4xx_flash.c ****       {
1001:../STM32F4xx_StdPeriph_Driver/src/stm32f4xx_flash.c ****         if((FLASH->SR & FLASH_FLAG_OPERR) != (uint32_t)0x00)
 585              		.loc 1 1001 0
 586 01a2 074B     		ldr	r3, .L75
 587 01a4 DB68     		ldr	r3, [r3, #12]
 588 01a6 13F0020F 		tst	r3, #2
 589 01aa 07D0     		beq	.L74
1002:../STM32F4xx_StdPeriph_Driver/src/stm32f4xx_flash.c ****         {
1003:../STM32F4xx_StdPeriph_Driver/src/stm32f4xx_flash.c ****           flashstatus = FLASH_ERROR_OPERATION;
 590              		.loc 1 1003 0
 591 01ac 0720     		movs	r0, #7
 592 01ae 7047     		bx	lr
 593              	.L71:
 985:../STM32F4xx_StdPeriph_Driver/src/stm32f4xx_flash.c ****     flashstatus = FLASH_BUSY;
 594              		.loc 1 985 0
 595 01b0 0120     		movs	r0, #1
 596 01b2 7047     		bx	lr
 597              	.L72:
 991:../STM32F4xx_StdPeriph_Driver/src/stm32f4xx_flash.c ****       flashstatus = FLASH_ERROR_WRP;
 598              		.loc 1 991 0
 599 01b4 0520     		movs	r0, #5
 600 01b6 7047     		bx	lr
 601              	.L73:
 997:../STM32F4xx_StdPeriph_Driver/src/stm32f4xx_flash.c ****         flashstatus = FLASH_ERROR_PROGRAM; 
 602              		.loc 1 997 0
 603 01b8 0620     		movs	r0, #6
 604 01ba 7047     		bx	lr
 605              	.L74:
1004:../STM32F4xx_StdPeriph_Driver/src/stm32f4xx_flash.c ****         }
1005:../STM32F4xx_StdPeriph_Driver/src/stm32f4xx_flash.c ****         else
1006:../STM32F4xx_StdPeriph_Driver/src/stm32f4xx_flash.c ****         {
1007:../STM32F4xx_StdPeriph_Driver/src/stm32f4xx_flash.c ****           flashstatus = FLASH_COMPLETE;
 606              		.loc 1 1007 0
 607 01bc 0820     		movs	r0, #8
 608              	.LVL19:
1008:../STM32F4xx_StdPeriph_Driver/src/stm32f4xx_flash.c ****         }
1009:../STM32F4xx_StdPeriph_Driver/src/stm32f4xx_flash.c ****       }
1010:../STM32F4xx_StdPeriph_Driver/src/stm32f4xx_flash.c ****     }
1011:../STM32F4xx_StdPeriph_Driver/src/stm32f4xx_flash.c ****   }
1012:../STM32F4xx_StdPeriph_Driver/src/stm32f4xx_flash.c ****   /* Return the FLASH Status */
1013:../STM32F4xx_StdPeriph_Driver/src/stm32f4xx_flash.c ****   return flashstatus;
1014:../STM32F4xx_StdPeriph_Driver/src/stm32f4xx_flash.c **** }
 609              		.loc 1 1014 0
 610 01be 7047     		bx	lr
 611              	.L76:
 612              		.align	2
 613              	.L75:
 614 01c0 003C0240 		.word	1073888256
 615              		.cfi_endproc
 616              	.LFE138:
 618              		.align	2
 619              		.global	FLASH_WaitForLastOperation
 620              		.thumb
 621              		.thumb_func
 623              	FLASH_WaitForLastOperation:
 624              	.LFB139:
1015:../STM32F4xx_StdPeriph_Driver/src/stm32f4xx_flash.c **** 
1016:../STM32F4xx_StdPeriph_Driver/src/stm32f4xx_flash.c **** /**
1017:../STM32F4xx_StdPeriph_Driver/src/stm32f4xx_flash.c ****   * @brief  Waits for a FLASH operation to complete.
1018:../STM32F4xx_StdPeriph_Driver/src/stm32f4xx_flash.c ****   * @param  None
1019:../STM32F4xx_StdPeriph_Driver/src/stm32f4xx_flash.c ****   * @retval FLASH Status: The returned value can be: FLASH_BUSY, FLASH_ERROR_PROGRAM,
1020:../STM32F4xx_StdPeriph_Driver/src/stm32f4xx_flash.c ****   *                       FLASH_ERROR_WRP, FLASH_ERROR_OPERATION or FLASH_COMPLETE.
1021:../STM32F4xx_StdPeriph_Driver/src/stm32f4xx_flash.c ****   */
1022:../STM32F4xx_StdPeriph_Driver/src/stm32f4xx_flash.c **** FLASH_Status FLASH_WaitForLastOperation(void)
1023:../STM32F4xx_StdPeriph_Driver/src/stm32f4xx_flash.c **** { 
 625              		.loc 1 1023 0
 626              		.cfi_startproc
 627              		@ args = 0, pretend = 0, frame = 8
 628              		@ frame_needed = 0, uses_anonymous_args = 0
 629 01c4 00B5     		push	{lr}
 630              		.cfi_def_cfa_offset 4
 631              		.cfi_offset 14, -4
 632 01c6 83B0     		sub	sp, sp, #12
 633              		.cfi_def_cfa_offset 16
1024:../STM32F4xx_StdPeriph_Driver/src/stm32f4xx_flash.c ****   __IO FLASH_Status status = FLASH_COMPLETE;
 634              		.loc 1 1024 0
 635 01c8 0823     		movs	r3, #8
 636 01ca 8DF80730 		strb	r3, [sp, #7]
1025:../STM32F4xx_StdPeriph_Driver/src/stm32f4xx_flash.c ****    
1026:../STM32F4xx_StdPeriph_Driver/src/stm32f4xx_flash.c ****   /* Check for the FLASH Status */
1027:../STM32F4xx_StdPeriph_Driver/src/stm32f4xx_flash.c ****   status = FLASH_GetStatus();
 637              		.loc 1 1027 0
 638 01ce FFF7FEFF 		bl	FLASH_GetStatus
 639              	.LVL20:
 640 01d2 8DF80700 		strb	r0, [sp, #7]
1028:../STM32F4xx_StdPeriph_Driver/src/stm32f4xx_flash.c **** 
1029:../STM32F4xx_StdPeriph_Driver/src/stm32f4xx_flash.c ****   /* Wait for the FLASH operation to complete by polling on BUSY flag to be reset.
1030:../STM32F4xx_StdPeriph_Driver/src/stm32f4xx_flash.c ****      Even if the FLASH operation fails, the BUSY flag will be reset and an error
1031:../STM32F4xx_StdPeriph_Driver/src/stm32f4xx_flash.c ****      flag will be set */
1032:../STM32F4xx_StdPeriph_Driver/src/stm32f4xx_flash.c ****   while(status == FLASH_BUSY)
 641              		.loc 1 1032 0
 642 01d6 03E0     		b	.L78
 643              	.L79:
1033:../STM32F4xx_StdPeriph_Driver/src/stm32f4xx_flash.c ****   {
1034:../STM32F4xx_StdPeriph_Driver/src/stm32f4xx_flash.c ****     status = FLASH_GetStatus();
 644              		.loc 1 1034 0
 645 01d8 FFF7FEFF 		bl	FLASH_GetStatus
 646              	.LVL21:
 647 01dc 8DF80700 		strb	r0, [sp, #7]
 648              	.L78:
1032:../STM32F4xx_StdPeriph_Driver/src/stm32f4xx_flash.c ****   while(status == FLASH_BUSY)
 649              		.loc 1 1032 0 discriminator 1
 650 01e0 9DF80730 		ldrb	r3, [sp, #7]	@ zero_extendqisi2
 651 01e4 DBB2     		uxtb	r3, r3
 652 01e6 012B     		cmp	r3, #1
 653 01e8 F6D0     		beq	.L79
1035:../STM32F4xx_StdPeriph_Driver/src/stm32f4xx_flash.c ****   }
1036:../STM32F4xx_StdPeriph_Driver/src/stm32f4xx_flash.c ****   /* Return the operation status */
1037:../STM32F4xx_StdPeriph_Driver/src/stm32f4xx_flash.c ****   return status;
 654              		.loc 1 1037 0
 655 01ea 9DF80700 		ldrb	r0, [sp, #7]	@ zero_extendqisi2
1038:../STM32F4xx_StdPeriph_Driver/src/stm32f4xx_flash.c **** }
 656              		.loc 1 1038 0
 657 01ee 03B0     		add	sp, sp, #12
 658              		@ sp needed
 659 01f0 5DF804FB 		ldr	pc, [sp], #4
 660              		.cfi_endproc
 661              	.LFE139:
 663              		.align	2
 664              		.global	FLASH_EraseSector
 665              		.thumb
 666              		.thumb_func
 668              	FLASH_EraseSector:
 669              	.LFB118:
 342:../STM32F4xx_StdPeriph_Driver/src/stm32f4xx_flash.c **** {
 670              		.loc 1 342 0
 671              		.cfi_startproc
 672              		@ args = 0, pretend = 0, frame = 0
 673              		@ frame_needed = 0, uses_anonymous_args = 0
 674              	.LVL22:
 675 01f4 70B5     		push	{r4, r5, r6, lr}
 676              		.cfi_def_cfa_offset 16
 677              		.cfi_offset 4, -16
 678              		.cfi_offset 5, -12
 679              		.cfi_offset 6, -8
 680              		.cfi_offset 14, -4
 681 01f6 0546     		mov	r5, r0
 682              	.LVL23:
 350:../STM32F4xx_StdPeriph_Driver/src/stm32f4xx_flash.c ****   if(VoltageRange == VoltageRange_1)
 683              		.loc 1 350 0
 684 01f8 31B1     		cbz	r1, .L83
 354:../STM32F4xx_StdPeriph_Driver/src/stm32f4xx_flash.c ****   else if(VoltageRange == VoltageRange_2)
 685              		.loc 1 354 0
 686 01fa 0129     		cmp	r1, #1
 687 01fc 06D0     		beq	.L84
 358:../STM32F4xx_StdPeriph_Driver/src/stm32f4xx_flash.c ****   else if(VoltageRange == VoltageRange_3)
 688              		.loc 1 358 0
 689 01fe 0229     		cmp	r1, #2
 690 0200 07D1     		bne	.L85
 360:../STM32F4xx_StdPeriph_Driver/src/stm32f4xx_flash.c ****     tmp_psize = FLASH_PSIZE_WORD;
 691              		.loc 1 360 0
 692 0202 4FF40076 		mov	r6, #512
 693 0206 06E0     		b	.L81
 694              	.L83:
 352:../STM32F4xx_StdPeriph_Driver/src/stm32f4xx_flash.c ****      tmp_psize = FLASH_PSIZE_BYTE;
 695              		.loc 1 352 0
 696 0208 0026     		movs	r6, #0
 697 020a 04E0     		b	.L81
 698              	.L84:
 356:../STM32F4xx_StdPeriph_Driver/src/stm32f4xx_flash.c ****     tmp_psize = FLASH_PSIZE_HALF_WORD;
 699              		.loc 1 356 0
 700 020c 4FF48076 		mov	r6, #256
 701 0210 01E0     		b	.L81
 702              	.L85:
 364:../STM32F4xx_StdPeriph_Driver/src/stm32f4xx_flash.c ****     tmp_psize = FLASH_PSIZE_DOUBLE_WORD;
 703              		.loc 1 364 0
 704 0212 4FF44076 		mov	r6, #768
 705              	.L81:
 706              	.LVL24:
 367:../STM32F4xx_StdPeriph_Driver/src/stm32f4xx_flash.c ****   status = FLASH_WaitForLastOperation();
 707              		.loc 1 367 0
 708 0216 FFF7FEFF 		bl	FLASH_WaitForLastOperation
 709              	.LVL25:
 369:../STM32F4xx_StdPeriph_Driver/src/stm32f4xx_flash.c ****   if(status == FLASH_COMPLETE)
 710              		.loc 1 369 0
 711 021a 0828     		cmp	r0, #8
 712 021c 1ED1     		bne	.L82
 372:../STM32F4xx_StdPeriph_Driver/src/stm32f4xx_flash.c ****     FLASH->CR &= CR_PSIZE_MASK;
 713              		.loc 1 372 0
 714 021e 104C     		ldr	r4, .L86
 715 0220 2369     		ldr	r3, [r4, #16]
 716 0222 23F44073 		bic	r3, r3, #768
 717 0226 2361     		str	r3, [r4, #16]
 373:../STM32F4xx_StdPeriph_Driver/src/stm32f4xx_flash.c ****     FLASH->CR |= tmp_psize;
 718              		.loc 1 373 0
 719 0228 2369     		ldr	r3, [r4, #16]
 720 022a 1E43     		orrs	r6, r6, r3
 721              	.LVL26:
 722 022c 2661     		str	r6, [r4, #16]
 374:../STM32F4xx_StdPeriph_Driver/src/stm32f4xx_flash.c ****     FLASH->CR &= SECTOR_MASK;
 723              		.loc 1 374 0
 724 022e 2369     		ldr	r3, [r4, #16]
 725 0230 23F0F803 		bic	r3, r3, #248
 726 0234 2361     		str	r3, [r4, #16]
 375:../STM32F4xx_StdPeriph_Driver/src/stm32f4xx_flash.c ****     FLASH->CR |= FLASH_CR_SER | FLASH_Sector;
 727              		.loc 1 375 0
 728 0236 2369     		ldr	r3, [r4, #16]
 729 0238 1D43     		orrs	r5, r5, r3
 730              	.LVL27:
 731 023a 45F00205 		orr	r5, r5, #2
 732 023e 2561     		str	r5, [r4, #16]
 376:../STM32F4xx_StdPeriph_Driver/src/stm32f4xx_flash.c ****     FLASH->CR |= FLASH_CR_STRT;
 733              		.loc 1 376 0
 734 0240 2369     		ldr	r3, [r4, #16]
 735 0242 43F48033 		orr	r3, r3, #65536
 736 0246 2361     		str	r3, [r4, #16]
 379:../STM32F4xx_StdPeriph_Driver/src/stm32f4xx_flash.c ****     status = FLASH_WaitForLastOperation();
 737              		.loc 1 379 0
 738 0248 FFF7FEFF 		bl	FLASH_WaitForLastOperation
 739              	.LVL28:
 382:../STM32F4xx_StdPeriph_Driver/src/stm32f4xx_flash.c ****     FLASH->CR &= (~FLASH_CR_SER);
 740              		.loc 1 382 0
 741 024c 2369     		ldr	r3, [r4, #16]
 742 024e 23F00203 		bic	r3, r3, #2
 743 0252 2361     		str	r3, [r4, #16]
 383:../STM32F4xx_StdPeriph_Driver/src/stm32f4xx_flash.c ****     FLASH->CR &= SECTOR_MASK; 
 744              		.loc 1 383 0
 745 0254 2369     		ldr	r3, [r4, #16]
 746 0256 23F0F803 		bic	r3, r3, #248
 747 025a 2361     		str	r3, [r4, #16]
 748              	.LVL29:
 749              	.L82:
 387:../STM32F4xx_StdPeriph_Driver/src/stm32f4xx_flash.c **** }
 750              		.loc 1 387 0
 751 025c 70BD     		pop	{r4, r5, r6, pc}
 752              	.L87:
 753 025e 00BF     		.align	2
 754              	.L86:
 755 0260 003C0240 		.word	1073888256
 756              		.cfi_endproc
 757              	.LFE118:
 759              		.align	2
 760              		.global	FLASH_EraseAllSectors
 761              		.thumb
 762              		.thumb_func
 764              	FLASH_EraseAllSectors:
 765              	.LFB119:
 407:../STM32F4xx_StdPeriph_Driver/src/stm32f4xx_flash.c **** {
 766              		.loc 1 407 0
 767              		.cfi_startproc
 768              		@ args = 0, pretend = 0, frame = 0
 769              		@ frame_needed = 0, uses_anonymous_args = 0
 770              	.LVL30:
 771 0264 10B5     		push	{r4, lr}
 772              		.cfi_def_cfa_offset 8
 773              		.cfi_offset 4, -8
 774              		.cfi_offset 14, -4
 775 0266 0446     		mov	r4, r0
 776              	.LVL31:
 412:../STM32F4xx_StdPeriph_Driver/src/stm32f4xx_flash.c ****   status = FLASH_WaitForLastOperation();
 777              		.loc 1 412 0
 778 0268 FFF7FEFF 		bl	FLASH_WaitForLastOperation
 779              	.LVL32:
 415:../STM32F4xx_StdPeriph_Driver/src/stm32f4xx_flash.c ****   if(VoltageRange == VoltageRange_1)
 780              		.loc 1 415 0
 781 026c 34B1     		cbz	r4, .L91
 419:../STM32F4xx_StdPeriph_Driver/src/stm32f4xx_flash.c ****   else if(VoltageRange == VoltageRange_2)
 782              		.loc 1 419 0
 783 026e 012C     		cmp	r4, #1
 784 0270 06D0     		beq	.L92
 423:../STM32F4xx_StdPeriph_Driver/src/stm32f4xx_flash.c ****   else if(VoltageRange == VoltageRange_3)
 785              		.loc 1 423 0
 786 0272 022C     		cmp	r4, #2
 787 0274 07D1     		bne	.L93
 425:../STM32F4xx_StdPeriph_Driver/src/stm32f4xx_flash.c ****     tmp_psize = FLASH_PSIZE_WORD;
 788              		.loc 1 425 0
 789 0276 4FF40073 		mov	r3, #512
 790 027a 06E0     		b	.L89
 791              	.L91:
 417:../STM32F4xx_StdPeriph_Driver/src/stm32f4xx_flash.c ****      tmp_psize = FLASH_PSIZE_BYTE;
 792              		.loc 1 417 0
 793 027c 0023     		movs	r3, #0
 794 027e 04E0     		b	.L89
 795              	.L92:
 421:../STM32F4xx_StdPeriph_Driver/src/stm32f4xx_flash.c ****     tmp_psize = FLASH_PSIZE_HALF_WORD;
 796              		.loc 1 421 0
 797 0280 4FF48073 		mov	r3, #256
 798 0284 01E0     		b	.L89
 799              	.L93:
 429:../STM32F4xx_StdPeriph_Driver/src/stm32f4xx_flash.c ****     tmp_psize = FLASH_PSIZE_DOUBLE_WORD;
 800              		.loc 1 429 0
 801 0286 4FF44073 		mov	r3, #768
 802              	.L89:
 803              	.LVL33:
 431:../STM32F4xx_StdPeriph_Driver/src/stm32f4xx_flash.c ****   if(status == FLASH_COMPLETE)
 804              		.loc 1 431 0
 805 028a 0828     		cmp	r0, #8
 806 028c 15D1     		bne	.L90
 434:../STM32F4xx_StdPeriph_Driver/src/stm32f4xx_flash.c ****      FLASH->CR &= CR_PSIZE_MASK;
 807              		.loc 1 434 0
 808 028e 0B4C     		ldr	r4, .L94
 809 0290 2269     		ldr	r2, [r4, #16]
 810 0292 22F44072 		bic	r2, r2, #768
 811 0296 2261     		str	r2, [r4, #16]
 435:../STM32F4xx_StdPeriph_Driver/src/stm32f4xx_flash.c ****      FLASH->CR |= tmp_psize;
 812              		.loc 1 435 0
 813 0298 2269     		ldr	r2, [r4, #16]
 814 029a 1343     		orrs	r3, r3, r2
 815              	.LVL34:
 816 029c 2361     		str	r3, [r4, #16]
 436:../STM32F4xx_StdPeriph_Driver/src/stm32f4xx_flash.c ****      FLASH->CR |= FLASH_CR_MER;
 817              		.loc 1 436 0
 818 029e 2369     		ldr	r3, [r4, #16]
 819 02a0 43F00403 		orr	r3, r3, #4
 820 02a4 2361     		str	r3, [r4, #16]
 437:../STM32F4xx_StdPeriph_Driver/src/stm32f4xx_flash.c ****      FLASH->CR |= FLASH_CR_STRT;
 821              		.loc 1 437 0
 822 02a6 2369     		ldr	r3, [r4, #16]
 823 02a8 43F48033 		orr	r3, r3, #65536
 824 02ac 2361     		str	r3, [r4, #16]
 440:../STM32F4xx_StdPeriph_Driver/src/stm32f4xx_flash.c ****     status = FLASH_WaitForLastOperation();
 825              		.loc 1 440 0
 826 02ae FFF7FEFF 		bl	FLASH_WaitForLastOperation
 827              	.LVL35:
 443:../STM32F4xx_StdPeriph_Driver/src/stm32f4xx_flash.c ****     FLASH->CR &= (~FLASH_CR_MER);
 828              		.loc 1 443 0
 829 02b2 2369     		ldr	r3, [r4, #16]
 830 02b4 23F00403 		bic	r3, r3, #4
 831 02b8 2361     		str	r3, [r4, #16]
 832              	.LVL36:
 833              	.L90:
 448:../STM32F4xx_StdPeriph_Driver/src/stm32f4xx_flash.c **** }
 834              		.loc 1 448 0
 835 02ba 10BD     		pop	{r4, pc}
 836              	.L95:
 837              		.align	2
 838              	.L94:
 839 02bc 003C0240 		.word	1073888256
 840              		.cfi_endproc
 841              	.LFE119:
 843              		.align	2
 844              		.global	FLASH_ProgramDoubleWord
 845              		.thumb
 846              		.thumb_func
 848              	FLASH_ProgramDoubleWord:
 849              	.LFB120:
 460:../STM32F4xx_StdPeriph_Driver/src/stm32f4xx_flash.c **** {
 850              		.loc 1 460 0
 851              		.cfi_startproc
 852              		@ args = 0, pretend = 0, frame = 0
 853              		@ frame_needed = 0, uses_anonymous_args = 0
 854              	.LVL37:
 855 02c0 F8B5     		push	{r3, r4, r5, r6, r7, lr}
 856              		.cfi_def_cfa_offset 24
 857              		.cfi_offset 3, -24
 858              		.cfi_offset 4, -20
 859              		.cfi_offset 5, -16
 860              		.cfi_offset 6, -12
 861              		.cfi_offset 7, -8
 862              		.cfi_offset 14, -4
 863 02c2 0746     		mov	r7, r0
 864 02c4 1446     		mov	r4, r2
 865 02c6 1D46     		mov	r5, r3
 866              	.LVL38:
 467:../STM32F4xx_StdPeriph_Driver/src/stm32f4xx_flash.c ****   status = FLASH_WaitForLastOperation();
 867              		.loc 1 467 0
 868 02c8 FFF7FEFF 		bl	FLASH_WaitForLastOperation
 869              	.LVL39:
 469:../STM32F4xx_StdPeriph_Driver/src/stm32f4xx_flash.c ****   if(status == FLASH_COMPLETE)
 870              		.loc 1 469 0
 871 02cc 0828     		cmp	r0, #8
 872 02ce 14D1     		bne	.L97
 472:../STM32F4xx_StdPeriph_Driver/src/stm32f4xx_flash.c ****     FLASH->CR &= CR_PSIZE_MASK;
 873              		.loc 1 472 0
 874 02d0 0A4E     		ldr	r6, .L98
 875 02d2 3369     		ldr	r3, [r6, #16]
 876 02d4 23F44073 		bic	r3, r3, #768
 877 02d8 3361     		str	r3, [r6, #16]
 473:../STM32F4xx_StdPeriph_Driver/src/stm32f4xx_flash.c ****     FLASH->CR |= FLASH_PSIZE_DOUBLE_WORD;
 878              		.loc 1 473 0
 879 02da 3369     		ldr	r3, [r6, #16]
 880 02dc 43F44073 		orr	r3, r3, #768
 881 02e0 3361     		str	r3, [r6, #16]
 474:../STM32F4xx_StdPeriph_Driver/src/stm32f4xx_flash.c ****     FLASH->CR |= FLASH_CR_PG;
 882              		.loc 1 474 0
 883 02e2 3369     		ldr	r3, [r6, #16]
 884 02e4 43F00103 		orr	r3, r3, #1
 885 02e8 3361     		str	r3, [r6, #16]
 476:../STM32F4xx_StdPeriph_Driver/src/stm32f4xx_flash.c ****     *(__IO uint64_t*)Address = Data;
 886              		.loc 1 476 0
 887 02ea C7E90045 		strd	r4, [r7]
 479:../STM32F4xx_StdPeriph_Driver/src/stm32f4xx_flash.c ****     status = FLASH_WaitForLastOperation();
 888              		.loc 1 479 0
 889 02ee FFF7FEFF 		bl	FLASH_WaitForLastOperation
 890              	.LVL40:
 482:../STM32F4xx_StdPeriph_Driver/src/stm32f4xx_flash.c ****     FLASH->CR &= (~FLASH_CR_PG);
 891              		.loc 1 482 0
 892 02f2 3369     		ldr	r3, [r6, #16]
 893 02f4 23F00103 		bic	r3, r3, #1
 894 02f8 3361     		str	r3, [r6, #16]
 895              	.LVL41:
 896              	.L97:
 486:../STM32F4xx_StdPeriph_Driver/src/stm32f4xx_flash.c **** }
 897              		.loc 1 486 0
 898 02fa F8BD     		pop	{r3, r4, r5, r6, r7, pc}
 899              	.LVL42:
 900              	.L99:
 901              		.align	2
 902              	.L98:
 903 02fc 003C0240 		.word	1073888256
 904              		.cfi_endproc
 905              	.LFE120:
 907              		.align	2
 908              		.global	FLASH_ProgramWord
 909              		.thumb
 910              		.thumb_func
 912              	FLASH_ProgramWord:
 913              	.LFB121:
 498:../STM32F4xx_StdPeriph_Driver/src/stm32f4xx_flash.c **** {
 914              		.loc 1 498 0
 915              		.cfi_startproc
 916              		@ args = 0, pretend = 0, frame = 0
 917              		@ frame_needed = 0, uses_anonymous_args = 0
 918              	.LVL43:
 919 0300 70B5     		push	{r4, r5, r6, lr}
 920              		.cfi_def_cfa_offset 16
 921              		.cfi_offset 4, -16
 922              		.cfi_offset 5, -12
 923              		.cfi_offset 6, -8
 924              		.cfi_offset 14, -4
 925 0302 0546     		mov	r5, r0
 926 0304 0E46     		mov	r6, r1
 927              	.LVL44:
 505:../STM32F4xx_StdPeriph_Driver/src/stm32f4xx_flash.c ****   status = FLASH_WaitForLastOperation();
 928              		.loc 1 505 0
 929 0306 FFF7FEFF 		bl	FLASH_WaitForLastOperation
 930              	.LVL45:
 507:../STM32F4xx_StdPeriph_Driver/src/stm32f4xx_flash.c ****   if(status == FLASH_COMPLETE)
 931              		.loc 1 507 0
 932 030a 0828     		cmp	r0, #8
 933 030c 13D1     		bne	.L101
 510:../STM32F4xx_StdPeriph_Driver/src/stm32f4xx_flash.c ****     FLASH->CR &= CR_PSIZE_MASK;
 934              		.loc 1 510 0
 935 030e 0A4C     		ldr	r4, .L102
 936 0310 2369     		ldr	r3, [r4, #16]
 937 0312 23F44073 		bic	r3, r3, #768
 938 0316 2361     		str	r3, [r4, #16]
 511:../STM32F4xx_StdPeriph_Driver/src/stm32f4xx_flash.c ****     FLASH->CR |= FLASH_PSIZE_WORD;
 939              		.loc 1 511 0
 940 0318 2369     		ldr	r3, [r4, #16]
 941 031a 43F40073 		orr	r3, r3, #512
 942 031e 2361     		str	r3, [r4, #16]
 512:../STM32F4xx_StdPeriph_Driver/src/stm32f4xx_flash.c ****     FLASH->CR |= FLASH_CR_PG;
 943              		.loc 1 512 0
 944 0320 2369     		ldr	r3, [r4, #16]
 945 0322 43F00103 		orr	r3, r3, #1
 946 0326 2361     		str	r3, [r4, #16]
 514:../STM32F4xx_StdPeriph_Driver/src/stm32f4xx_flash.c ****     *(__IO uint32_t*)Address = Data;
 947              		.loc 1 514 0
 948 0328 2E60     		str	r6, [r5]
 517:../STM32F4xx_StdPeriph_Driver/src/stm32f4xx_flash.c ****     status = FLASH_WaitForLastOperation();
 949              		.loc 1 517 0
 950 032a FFF7FEFF 		bl	FLASH_WaitForLastOperation
 951              	.LVL46:
 520:../STM32F4xx_StdPeriph_Driver/src/stm32f4xx_flash.c ****     FLASH->CR &= (~FLASH_CR_PG);
 952              		.loc 1 520 0
 953 032e 2369     		ldr	r3, [r4, #16]
 954 0330 23F00103 		bic	r3, r3, #1
 955 0334 2361     		str	r3, [r4, #16]
 956              	.LVL47:
 957              	.L101:
 524:../STM32F4xx_StdPeriph_Driver/src/stm32f4xx_flash.c **** }
 958              		.loc 1 524 0
 959 0336 70BD     		pop	{r4, r5, r6, pc}
 960              	.LVL48:
 961              	.L103:
 962              		.align	2
 963              	.L102:
 964 0338 003C0240 		.word	1073888256
 965              		.cfi_endproc
 966              	.LFE121:
 968              		.align	2
 969              		.global	FLASH_ProgramHalfWord
 970              		.thumb
 971              		.thumb_func
 973              	FLASH_ProgramHalfWord:
 974              	.LFB122:
 536:../STM32F4xx_StdPeriph_Driver/src/stm32f4xx_flash.c **** {
 975              		.loc 1 536 0
 976              		.cfi_startproc
 977              		@ args = 0, pretend = 0, frame = 0
 978              		@ frame_needed = 0, uses_anonymous_args = 0
 979              	.LVL49:
 980 033c 70B5     		push	{r4, r5, r6, lr}
 981              		.cfi_def_cfa_offset 16
 982              		.cfi_offset 4, -16
 983              		.cfi_offset 5, -12
 984              		.cfi_offset 6, -8
 985              		.cfi_offset 14, -4
 986 033e 0546     		mov	r5, r0
 987 0340 0E46     		mov	r6, r1
 988              	.LVL50:
 543:../STM32F4xx_StdPeriph_Driver/src/stm32f4xx_flash.c ****   status = FLASH_WaitForLastOperation();
 989              		.loc 1 543 0
 990 0342 FFF7FEFF 		bl	FLASH_WaitForLastOperation
 991              	.LVL51:
 545:../STM32F4xx_StdPeriph_Driver/src/stm32f4xx_flash.c ****   if(status == FLASH_COMPLETE)
 992              		.loc 1 545 0
 993 0346 0828     		cmp	r0, #8
 994 0348 13D1     		bne	.L105
 548:../STM32F4xx_StdPeriph_Driver/src/stm32f4xx_flash.c ****     FLASH->CR &= CR_PSIZE_MASK;
 995              		.loc 1 548 0
 996 034a 0A4C     		ldr	r4, .L106
 997 034c 2369     		ldr	r3, [r4, #16]
 998 034e 23F44073 		bic	r3, r3, #768
 999 0352 2361     		str	r3, [r4, #16]
 549:../STM32F4xx_StdPeriph_Driver/src/stm32f4xx_flash.c ****     FLASH->CR |= FLASH_PSIZE_HALF_WORD;
 1000              		.loc 1 549 0
 1001 0354 2369     		ldr	r3, [r4, #16]
 1002 0356 43F48073 		orr	r3, r3, #256
 1003 035a 2361     		str	r3, [r4, #16]
 550:../STM32F4xx_StdPeriph_Driver/src/stm32f4xx_flash.c ****     FLASH->CR |= FLASH_CR_PG;
 1004              		.loc 1 550 0
 1005 035c 2369     		ldr	r3, [r4, #16]
 1006 035e 43F00103 		orr	r3, r3, #1
 1007 0362 2361     		str	r3, [r4, #16]
 552:../STM32F4xx_StdPeriph_Driver/src/stm32f4xx_flash.c ****     *(__IO uint16_t*)Address = Data;
 1008              		.loc 1 552 0
 1009 0364 2E80     		strh	r6, [r5]	@ movhi
 555:../STM32F4xx_StdPeriph_Driver/src/stm32f4xx_flash.c ****     status = FLASH_WaitForLastOperation();
 1010              		.loc 1 555 0
 1011 0366 FFF7FEFF 		bl	FLASH_WaitForLastOperation
 1012              	.LVL52:
 558:../STM32F4xx_StdPeriph_Driver/src/stm32f4xx_flash.c ****     FLASH->CR &= (~FLASH_CR_PG);
 1013              		.loc 1 558 0
 1014 036a 2369     		ldr	r3, [r4, #16]
 1015 036c 23F00103 		bic	r3, r3, #1
 1016 0370 2361     		str	r3, [r4, #16]
 1017              	.LVL53:
 1018              	.L105:
 562:../STM32F4xx_StdPeriph_Driver/src/stm32f4xx_flash.c **** }
 1019              		.loc 1 562 0
 1020 0372 70BD     		pop	{r4, r5, r6, pc}
 1021              	.LVL54:
 1022              	.L107:
 1023              		.align	2
 1024              	.L106:
 1025 0374 003C0240 		.word	1073888256
 1026              		.cfi_endproc
 1027              	.LFE122:
 1029              		.align	2
 1030              		.global	FLASH_ProgramByte
 1031              		.thumb
 1032              		.thumb_func
 1034              	FLASH_ProgramByte:
 1035              	.LFB123:
 574:../STM32F4xx_StdPeriph_Driver/src/stm32f4xx_flash.c **** {
 1036              		.loc 1 574 0
 1037              		.cfi_startproc
 1038              		@ args = 0, pretend = 0, frame = 0
 1039              		@ frame_needed = 0, uses_anonymous_args = 0
 1040              	.LVL55:
 1041 0378 70B5     		push	{r4, r5, r6, lr}
 1042              		.cfi_def_cfa_offset 16
 1043              		.cfi_offset 4, -16
 1044              		.cfi_offset 5, -12
 1045              		.cfi_offset 6, -8
 1046              		.cfi_offset 14, -4
 1047 037a 0546     		mov	r5, r0
 1048 037c 0E46     		mov	r6, r1
 1049              	.LVL56:
 581:../STM32F4xx_StdPeriph_Driver/src/stm32f4xx_flash.c ****   status = FLASH_WaitForLastOperation();
 1050              		.loc 1 581 0
 1051 037e FFF7FEFF 		bl	FLASH_WaitForLastOperation
 1052              	.LVL57:
 583:../STM32F4xx_StdPeriph_Driver/src/stm32f4xx_flash.c ****   if(status == FLASH_COMPLETE)
 1053              		.loc 1 583 0
 1054 0382 0828     		cmp	r0, #8
 1055 0384 11D1     		bne	.L109
 586:../STM32F4xx_StdPeriph_Driver/src/stm32f4xx_flash.c ****     FLASH->CR &= CR_PSIZE_MASK;
 1056              		.loc 1 586 0
 1057 0386 094C     		ldr	r4, .L110
 1058 0388 2369     		ldr	r3, [r4, #16]
 1059 038a 23F44073 		bic	r3, r3, #768
 1060 038e 2361     		str	r3, [r4, #16]
 587:../STM32F4xx_StdPeriph_Driver/src/stm32f4xx_flash.c ****     FLASH->CR |= FLASH_PSIZE_BYTE;
 1061              		.loc 1 587 0
 1062 0390 2369     		ldr	r3, [r4, #16]
 1063 0392 2361     		str	r3, [r4, #16]
 588:../STM32F4xx_StdPeriph_Driver/src/stm32f4xx_flash.c ****     FLASH->CR |= FLASH_CR_PG;
 1064              		.loc 1 588 0
 1065 0394 2369     		ldr	r3, [r4, #16]
 1066 0396 43F00103 		orr	r3, r3, #1
 1067 039a 2361     		str	r3, [r4, #16]
 590:../STM32F4xx_StdPeriph_Driver/src/stm32f4xx_flash.c ****     *(__IO uint8_t*)Address = Data;
 1068              		.loc 1 590 0
 1069 039c 2E70     		strb	r6, [r5]
 593:../STM32F4xx_StdPeriph_Driver/src/stm32f4xx_flash.c ****     status = FLASH_WaitForLastOperation();
 1070              		.loc 1 593 0
 1071 039e FFF7FEFF 		bl	FLASH_WaitForLastOperation
 1072              	.LVL58:
 596:../STM32F4xx_StdPeriph_Driver/src/stm32f4xx_flash.c ****     FLASH->CR &= (~FLASH_CR_PG);
 1073              		.loc 1 596 0
 1074 03a2 2369     		ldr	r3, [r4, #16]
 1075 03a4 23F00103 		bic	r3, r3, #1
 1076 03a8 2361     		str	r3, [r4, #16]
 1077              	.LVL59:
 1078              	.L109:
 601:../STM32F4xx_StdPeriph_Driver/src/stm32f4xx_flash.c **** }
 1079              		.loc 1 601 0
 1080 03aa 70BD     		pop	{r4, r5, r6, pc}
 1081              	.LVL60:
 1082              	.L111:
 1083              		.align	2
 1084              	.L110:
 1085 03ac 003C0240 		.word	1073888256
 1086              		.cfi_endproc
 1087              	.LFE123:
 1089              		.align	2
 1090              		.global	FLASH_OB_WRPConfig
 1091              		.thumb
 1092              		.thumb_func
 1094              	FLASH_OB_WRPConfig:
 1095              	.LFB126:
 690:../STM32F4xx_StdPeriph_Driver/src/stm32f4xx_flash.c **** { 
 1096              		.loc 1 690 0
 1097              		.cfi_startproc
 1098              		@ args = 0, pretend = 0, frame = 0
 1099              		@ frame_needed = 0, uses_anonymous_args = 0
 1100              	.LVL61:
 1101 03b0 38B5     		push	{r3, r4, r5, lr}
 1102              		.cfi_def_cfa_offset 16
 1103              		.cfi_offset 3, -16
 1104              		.cfi_offset 4, -12
 1105              		.cfi_offset 5, -8
 1106              		.cfi_offset 14, -4
 1107 03b2 0546     		mov	r5, r0
 1108 03b4 0C46     		mov	r4, r1
 1109              	.LVL62:
 697:../STM32F4xx_StdPeriph_Driver/src/stm32f4xx_flash.c ****   status = FLASH_WaitForLastOperation();
 1110              		.loc 1 697 0
 1111 03b6 FFF7FEFF 		bl	FLASH_WaitForLastOperation
 1112              	.LVL63:
 699:../STM32F4xx_StdPeriph_Driver/src/stm32f4xx_flash.c ****   if(status == FLASH_COMPLETE)
 1113              		.loc 1 699 0
 1114 03ba 0828     		cmp	r0, #8
 1115 03bc 0CD1     		bne	.L112
 701:../STM32F4xx_StdPeriph_Driver/src/stm32f4xx_flash.c ****     if(NewState != DISABLE)
 1116              		.loc 1 701 0
 1117 03be 34B1     		cbz	r4, .L114
 703:../STM32F4xx_StdPeriph_Driver/src/stm32f4xx_flash.c ****       *(__IO uint16_t*)OPTCR_BYTE2_ADDRESS &= (~OB_WRP);
 1118              		.loc 1 703 0
 1119 03c0 064B     		ldr	r3, .L115
 1120 03c2 1A88     		ldrh	r2, [r3]
 1121 03c4 92B2     		uxth	r2, r2
 1122 03c6 22EA0505 		bic	r5, r2, r5
 1123              	.LVL64:
 1124 03ca 1D80     		strh	r5, [r3]	@ movhi
 1125 03cc 38BD     		pop	{r3, r4, r5, pc}
 1126              	.LVL65:
 1127              	.L114:
 707:../STM32F4xx_StdPeriph_Driver/src/stm32f4xx_flash.c ****       *(__IO uint16_t*)OPTCR_BYTE2_ADDRESS |= (uint16_t)OB_WRP;
 1128              		.loc 1 707 0
 1129 03ce 034B     		ldr	r3, .L115
 1130 03d0 1A88     		ldrh	r2, [r3]
 1131 03d2 1543     		orrs	r5, r5, r2
 1132              	.LVL66:
 1133 03d4 ADB2     		uxth	r5, r5
 1134 03d6 1D80     		strh	r5, [r3]	@ movhi
 1135              	.L112:
 1136 03d8 38BD     		pop	{r3, r4, r5, pc}
 1137              	.L116:
 1138 03da 00BF     		.align	2
 1139              	.L115:
 1140 03dc 163C0240 		.word	1073888278
 1141              		.cfi_endproc
 1142              	.LFE126:
 1144              		.align	2
 1145              		.global	FLASH_OB_RDPConfig
 1146              		.thumb
 1147              		.thumb_func
 1149              	FLASH_OB_RDPConfig:
 1150              	.LFB127:
 725:../STM32F4xx_StdPeriph_Driver/src/stm32f4xx_flash.c **** {
 1151              		.loc 1 725 0
 1152              		.cfi_startproc
 1153              		@ args = 0, pretend = 0, frame = 0
 1154              		@ frame_needed = 0, uses_anonymous_args = 0
 1155              	.LVL67:
 1156 03e0 10B5     		push	{r4, lr}
 1157              		.cfi_def_cfa_offset 8
 1158              		.cfi_offset 4, -8
 1159              		.cfi_offset 14, -4
 1160 03e2 0446     		mov	r4, r0
 1161              	.LVL68:
 731:../STM32F4xx_StdPeriph_Driver/src/stm32f4xx_flash.c ****   status = FLASH_WaitForLastOperation();
 1162              		.loc 1 731 0
 1163 03e4 FFF7FEFF 		bl	FLASH_WaitForLastOperation
 1164              	.LVL69:
 733:../STM32F4xx_StdPeriph_Driver/src/stm32f4xx_flash.c ****   if(status == FLASH_COMPLETE)
 1165              		.loc 1 733 0
 1166 03e8 0828     		cmp	r0, #8
 1167 03ea 01D1     		bne	.L117
 735:../STM32F4xx_StdPeriph_Driver/src/stm32f4xx_flash.c ****     *(__IO uint8_t*)OPTCR_BYTE1_ADDRESS = OB_RDP;
 1168              		.loc 1 735 0
 1169 03ec 014B     		ldr	r3, .L119
 1170 03ee 1C70     		strb	r4, [r3]
 1171              	.L117:
 1172 03f0 10BD     		pop	{r4, pc}
 1173              	.L120:
 1174 03f2 00BF     		.align	2
 1175              	.L119:
 1176 03f4 153C0240 		.word	1073888277
 1177              		.cfi_endproc
 1178              	.LFE127:
 1180              		.align	2
 1181              		.global	FLASH_OB_UserConfig
 1182              		.thumb
 1183              		.thumb_func
 1185              	FLASH_OB_UserConfig:
 1186              	.LFB128:
 757:../STM32F4xx_StdPeriph_Driver/src/stm32f4xx_flash.c **** {
 1187              		.loc 1 757 0
 1188              		.cfi_startproc
 1189              		@ args = 0, pretend = 0, frame = 0
 1190              		@ frame_needed = 0, uses_anonymous_args = 0
 1191              	.LVL70:
 1192 03f8 70B5     		push	{r4, r5, r6, lr}
 1193              		.cfi_def_cfa_offset 16
 1194              		.cfi_offset 4, -16
 1195              		.cfi_offset 5, -12
 1196              		.cfi_offset 6, -8
 1197              		.cfi_offset 14, -4
 1198 03fa 0446     		mov	r4, r0
 1199 03fc 0E46     		mov	r6, r1
 1200 03fe 1546     		mov	r5, r2
 1201              	.LVL71:
 767:../STM32F4xx_StdPeriph_Driver/src/stm32f4xx_flash.c ****   status = FLASH_WaitForLastOperation();
 1202              		.loc 1 767 0
 1203 0400 FFF7FEFF 		bl	FLASH_WaitForLastOperation
 1204              	.LVL72:
 769:../STM32F4xx_StdPeriph_Driver/src/stm32f4xx_flash.c ****   if(status == FLASH_COMPLETE)
 1205              		.loc 1 769 0
 1206 0404 0828     		cmp	r0, #8
 1207 0406 07D1     		bne	.L121
 772:../STM32F4xx_StdPeriph_Driver/src/stm32f4xx_flash.c ****     optiontmp =  (uint8_t)((*(__IO uint8_t *)OPTCR_BYTE0_ADDRESS) & (uint8_t)0x0F); 
 1208              		.loc 1 772 0
 1209 0408 044B     		ldr	r3, .L123
 1210 040a 1A78     		ldrb	r2, [r3]	@ zero_extendqisi2
 1211 040c 02F00F02 		and	r2, r2, #15
 1212              	.LVL73:
 775:../STM32F4xx_StdPeriph_Driver/src/stm32f4xx_flash.c ****     *(__IO uint8_t *)OPTCR_BYTE0_ADDRESS = OB_IWDG | (uint8_t)(OB_STDBY | (uint8_t)(OB_STOP | ((uin
 1213              		.loc 1 775 0
 1214 0410 1643     		orrs	r6, r6, r2
 1215 0412 3543     		orrs	r5, r5, r6
 1216 0414 2C43     		orrs	r4, r4, r5
 1217 0416 1C70     		strb	r4, [r3]
 1218              	.LVL74:
 1219              	.L121:
 1220 0418 70BD     		pop	{r4, r5, r6, pc}
 1221              	.L124:
 1222 041a 00BF     		.align	2
 1223              	.L123:
 1224 041c 143C0240 		.word	1073888276
 1225              		.cfi_endproc
 1226              	.LFE128:
 1228              		.align	2
 1229              		.global	FLASH_OB_Launch
 1230              		.thumb
 1231              		.thumb_func
 1233              	FLASH_OB_Launch:
 1234              	.LFB130:
 807:../STM32F4xx_StdPeriph_Driver/src/stm32f4xx_flash.c **** {
 1235              		.loc 1 807 0
 1236              		.cfi_startproc
 1237              		@ args = 0, pretend = 0, frame = 0
 1238              		@ frame_needed = 0, uses_anonymous_args = 0
 1239 0420 08B5     		push	{r3, lr}
 1240              		.cfi_def_cfa_offset 8
 1241              		.cfi_offset 3, -8
 1242              		.cfi_offset 14, -4
 1243              	.LVL75:
 811:../STM32F4xx_StdPeriph_Driver/src/stm32f4xx_flash.c ****   *(__IO uint8_t *)OPTCR_BYTE0_ADDRESS |= FLASH_OPTCR_OPTSTRT;
 1244              		.loc 1 811 0
 1245 0422 044B     		ldr	r3, .L126
 1246 0424 1A78     		ldrb	r2, [r3]	@ zero_extendqisi2
 1247 0426 42F00202 		orr	r2, r2, #2
 1248 042a 1A70     		strb	r2, [r3]
 814:../STM32F4xx_StdPeriph_Driver/src/stm32f4xx_flash.c ****   status = FLASH_WaitForLastOperation();
 1249              		.loc 1 814 0
 1250 042c FFF7FEFF 		bl	FLASH_WaitForLastOperation
 1251              	.LVL76:
 817:../STM32F4xx_StdPeriph_Driver/src/stm32f4xx_flash.c **** }
 1252              		.loc 1 817 0
 1253 0430 08BD     		pop	{r3, pc}
 1254              	.L127:
 1255 0432 00BF     		.align	2
 1256              	.L126:
 1257 0434 143C0240 		.word	1073888276
 1258              		.cfi_endproc
 1259              	.LFE130:
 1261              	.Letext0:
 1262              		.file 2 "c:\\program files (x86)\\gnu tools arm embedded\\4.8 2014q2\\arm-none-eabi\\include\\mach
 1263              		.file 3 "c:\\program files (x86)\\gnu tools arm embedded\\4.8 2014q2\\arm-none-eabi\\include\\stdi
 1264              		.file 4 "C:\\Users\\Filip\\Git\\STM32F4Discovery\\Eclipse\\WattMetr\\STM32F4xx\\Include/stm32f4xx.
 1265              		.file 5 "C:\\Users\\Filip\\Git\\STM32F4Discovery\\Eclipse\\WattMetr\\STM32F4xx_StdPeriph_Driver\\i
 1266              		.file 6 "C:\\Users\\Filip\\Git\\STM32F4Discovery\\Eclipse\\WattMetr\\CMSIS\\Include/core_cm4.h"