
Template.elf:     file format elf32-littlearm
Template.elf
architecture: arm, flags 0x00000112:
EXEC_P, HAS_SYMS, D_PAGED
start address 0x08000c39

Program Header:
    LOAD off    0x00008000 vaddr 0x08000000 paddr 0x08000000 align 2**15
         filesz 0x00000c88 memsz 0x00000c88 flags r-x
    LOAD off    0x00010000 vaddr 0x20000000 paddr 0x08000c88 align 2**15
         filesz 0x00000024 memsz 0x0000042c flags rw-
private flags = 5000002: [Version5 EABI] [has entry point]

Sections:
Idx Name          Size      VMA       LMA       File off  Algn  Flags
  0 .isr_vector   00000188  08000000  08000000  00008000  2**0  CONTENTS, ALLOC, LOAD, READONLY, DATA
  1 .text         00000b00  08000188  08000188  00008188  2**2  CONTENTS, ALLOC, LOAD, READONLY, CODE
  2 .data         00000024  20000000  08000c88  00010000  2**2  CONTENTS, ALLOC, LOAD, DATA
  3 .bss          00000008  20000024  08000cac  00010024  2**2  ALLOC
  4 ._user_heap_stack 00000400  2000002c  08000cb4  00010024  2**0  ALLOC
  5 .ARM.attributes 00000031  00000000  00000000  00010024  2**0  CONTENTS, READONLY
  6 .debug_info   00002aca  00000000  00000000  00010055  2**0  CONTENTS, READONLY, DEBUGGING
  7 .debug_abbrev 00000b50  00000000  00000000  00012b1f  2**0  CONTENTS, READONLY, DEBUGGING
  8 .debug_aranges 00000108  00000000  00000000  00013670  2**3  CONTENTS, READONLY, DEBUGGING
  9 .debug_macro  0000e3ae  00000000  00000000  00013778  2**0  CONTENTS, READONLY, DEBUGGING
 10 .debug_line   000027cb  00000000  00000000  00021b26  2**0  CONTENTS, READONLY, DEBUGGING
 11 .debug_str    000570b9  00000000  00000000  000242f1  2**0  CONTENTS, READONLY, DEBUGGING
 12 .comment      00000070  00000000  00000000  0007b3aa  2**0  CONTENTS, READONLY
 13 .debug_frame  0000062c  00000000  00000000  0007b41c  2**2  CONTENTS, READONLY, DEBUGGING
 14 .debug_loc    00000edf  00000000  00000000  0007ba48  2**0  CONTENTS, READONLY, DEBUGGING
 15 .debug_ranges 00000020  00000000  00000000  0007c928  2**3  CONTENTS, READONLY, DEBUGGING
SYMBOL TABLE:
08000000 l    d  .isr_vector	00000000 .isr_vector
08000188 l    d  .text	00000000 .text
20000000 l    d  .data	00000000 .data
20000024 l    d  .bss	00000000 .bss
2000002c l    d  ._user_heap_stack	00000000 ._user_heap_stack
00000000 l    d  .ARM.attributes	00000000 .ARM.attributes
00000000 l    d  .debug_info	00000000 .debug_info
00000000 l    d  .debug_abbrev	00000000 .debug_abbrev
00000000 l    d  .debug_aranges	00000000 .debug_aranges
00000000 l    d  .debug_macro	00000000 .debug_macro
00000000 l    d  .debug_line	00000000 .debug_line
00000000 l    d  .debug_str	00000000 .debug_str
00000000 l    d  .comment	00000000 .comment
00000000 l    d  .debug_frame	00000000 .debug_frame
00000000 l    d  .debug_loc	00000000 .debug_loc
00000000 l    d  .debug_ranges	00000000 .debug_ranges
00000000 l    df *ABS*	00000000 ./STM32F4xx/Source/startup_stm32f4xx.o
08000c46 l       .text	00000000 LoopCopyDataInit
08000c3e l       .text	00000000 CopyDataInit
08000c5e l       .text	00000000 LoopFillZerobss
08000c58 l       .text	00000000 FillZerobss
08000c84 l       .text	00000000 Infinite_Loop
00000000 l    df *ABS*	00000000 discovery.c
00000000 l    df *ABS*	00000000 main.c
00000000 l    df *ABS*	00000000 stm32f4xx_it.c
00000000 l    df *ABS*	00000000 system_stm32f4xx.c
08000290 l     F .text	000000c0 SetSysClock
00000000 l    df *ABS*	00000000 stm32f4xx_exti.c
00000000 l    df *ABS*	00000000 stm32f4xx_gpio.c
00000000 l    df *ABS*	00000000 stm32f4xx_rcc.c
20000014 l     O .data	00000010 APBAHBPrescTable
00000000 l    df *ABS*	00000000 
00000400 l       *ABS*	00000000 _Min_Stack_Size
00000000 l       *ABS*	00000000 _Min_Heap_Size
08000c84  w    F .text	00000004 RTC_Alarm_IRQHandler
08000c84  w    F .text	00000004 HASH_RNG_IRQHandler
08000c84  w    F .text	00000004 EXTI2_IRQHandler
08000c84  w    F .text	00000004 TIM8_CC_IRQHandler
080007d0 g     F .text	0000000c RCC_HSICmd
08000830 g     F .text	0000000c RCC_PLLCmd
08000224 g     F .text	00000002 DebugMon_Handler
0800083c g     F .text	00000014 RCC_PLLI2SConfig
08000748 g     F .text	0000002e GPIO_PinAFConfig
08000c2c g     F .text	0000000c RCC_ClearITPendingBit
08000714 g     F .text	0000000c GPIO_ReadOutputDataBit
08000c84  w    F .text	00000004 TIM1_CC_IRQHandler
08000c84  w    F .text	00000004 DMA2_Stream5_IRQHandler
08000210 g     F .text	00000002 HardFault_Handler
08000c84  w    F .text	00000004 DMA1_Stream5_IRQHandler
08000270 g     F .text	00000020 SysTick_Handler
08000a94 g     F .text	0000001c RCC_AHB2PeriphResetCmd
08000c84  w    F .text	00000004 PVD_IRQHandler
08000c84  w    F .text	00000004 SDIO_IRQHandler
08000c84  w    F .text	00000004 TAMP_STAMP_IRQHandler
08000c88 g       .text	00000000 _sidata
08000228 g     F .text	00000002 PendSV_Handler
0800020c g     F .text	00000002 NMI_Handler
08000c88 g       .data	00000000 __exidx_end
08000c84  w    F .text	00000004 CAN2_RX1_IRQHandler
08000c84  w    F .text	00000004 EXTI3_IRQHandler
08000b90 g     F .text	0000001c RCC_ITConfig
08000188 g     F .text	0000003c InitLeds
08000c84  w    F .text	00000004 TIM8_TRG_COM_TIM14_IRQHandler
08000c84  w    F .text	00000004 TIM1_UP_TIM10_IRQHandler
08000a78 g     F .text	0000001c RCC_AHB1PeriphResetCmd
08000c88 g       .text	00000000 _etext
20000024 g       .bss	00000000 _sbss
08000890 g     F .text	00000014 RCC_SYSCLKConfig
08000c84  w    F .text	00000004 TIM8_UP_TIM13_IRQHandler
08000c84  w    F .text	00000004 I2C3_ER_IRQHandler
08000420 g     F .text	0000001c EXTI_DeInit
08000bd4 g     F .text	00000032 RCC_WaitForHSEStartUp
080009d4 g     F .text	0000000c RCC_BackupResetCmd
0800085c g     F .text	0000000c RCC_ClockSecuritySystemCmd
0800022c g     F .text	00000012 EXTI0_IRQHandler
08000c84  w    F .text	00000004 I2C2_EV_IRQHandler
08000c08 g     F .text	00000010 RCC_ClearFlag
08000c84  w    F .text	00000004 DMA1_Stream2_IRQHandler
08000c84  w    F .text	00000004 CAN1_RX0_IRQHandler
08000c84  w    F .text	00000004 FPU_IRQHandler
20000000 g     O .data	00000004 SystemCoreClock
08000c84  w    F .text	00000004 OTG_HS_WKUP_IRQHandler
080007ac g     F .text	00000010 RCC_HSEConfig
08000740 g     F .text	00000008 GPIO_ToggleBits
0800021c g     F .text	00000002 UsageFault_Handler
08000a5c g     F .text	0000001c RCC_APB2PeriphClockCmd
08000c84  w    F .text	00000004 CAN2_SCE_IRQHandler
08000c84  w    F .text	00000004 DMA2_Stream2_IRQHandler
08000638 g     F .text	00000090 GPIO_Init
08000810 g     F .text	00000020 RCC_PLLConfig
20000024 g       .bss	00000000 __bss_start__
20000000 g       .data	00000000 _sdata
08000c84  w    F .text	00000004 SPI1_IRQHandler
08000b3c g     F .text	0000001c RCC_AHB3PeriphClockLPModeCmd
0800073c g     F .text	00000004 GPIO_Write
08000c84  w    F .text	00000004 TIM6_DAC_IRQHandler
08000720 g     F .text	00000006 GPIO_ReadOutputData
08000c84  w    F .text	00000004 TIM1_BRK_TIM9_IRQHandler
080007dc g     F .text	00000028 RCC_LSEConfig
08000c84  w    F .text	00000004 DCMI_IRQHandler
08000c84  w    F .text	00000004 CAN2_RX0_IRQHandler
080009c8 g     F .text	0000000c RCC_RTCCLKCmd
08000a40 g     F .text	0000001c RCC_APB1PeriphClockCmd
08000c18 g     F .text	00000014 RCC_GetITStatus
08000c88 g       .data	00000000 __exidx_start
08000c84  w    F .text	00000004 DMA2_Stream3_IRQHandler
08000a08 g     F .text	0000001c RCC_AHB2PeriphClockCmd
08000c84  w    F .text	00000004 USART6_IRQHandler
08000868 g     F .text	00000014 RCC_MCO1Config
08000c84  w    F .text	00000004 USART3_IRQHandler
08000528 g     F .text	0000000c EXTI_ClearITPendingBit
20000024 g     O .bss	00000004 TimingDelay
08000c84  w    F .text	00000004 CRYP_IRQHandler
2000002c g       .bss	00000000 _ebss
08000c38  w    F .text	00000038 Reset_Handler
0800070c g     F .text	00000006 GPIO_ReadInputData
08000c84  w    F .text	00000004 CAN1_RX1_IRQHandler
08000c84  w    F .text	00000004 UART5_IRQHandler
08000bac g     F .text	00000028 RCC_GetFlagStatus
08000c84  w    F .text	00000004 DMA2_Stream0_IRQHandler
08000728 g     F .text	00000004 GPIO_SetBits
08000c84  w    F .text	00000004 TIM4_IRQHandler
080004ec g     F .text	00000014 EXTI_GetFlagStatus
080008a4 g     F .text	00000010 RCC_GetSYSCLKSource
08000730 g     F .text	0000000a GPIO_WriteBit
08000c84  w    F .text	00000004 I2C1_EV_IRQHandler
08000c84  w    F .text	00000004 DMA1_Stream6_IRQHandler
08000ab0 g     F .text	0000001c RCC_AHB3PeriphResetCmd
080008f0 g     F .text	000000a8 RCC_GetClocksFreq
08000c84  w    F .text	00000004 DMA1_Stream1_IRQHandler
08000b74 g     F .text	0000001c RCC_APB2PeriphClockLPModeCmd
08000c84  w    F .text	00000004 UART4_IRQHandler
080004dc g     F .text	00000010 EXTI_GenerateSWInterrupt
2000002c g       .bss	00000000 __bss_end__
08000c84  w    F .text	00000004 TIM3_IRQHandler
08000c84  w    F .text	00000004 RCC_IRQHandler
08000c84  w    F .text	00000004 TIM8_BRK_TIM12_IRQHandler
08000c84 g       .text	00000004 Default_Handler
20000004 g     O .data	00000010 AHBPrescTable
08000500 g     F .text	0000000c EXTI_ClearFlag
08000998 g     F .text	00000030 RCC_RTCCLKConfig
08000c84  w    F .text	00000004 EXTI15_10_IRQHandler
08000c84  w    F .text	00000004 ADC_IRQHandler
0800043c g     F .text	00000090 EXTI_Init
08000850 g     F .text	0000000c RCC_PLLI2SCmd
08000c84  w    F .text	00000004 DMA1_Stream7_IRQHandler
0800072c g     F .text	00000004 GPIO_ResetBits
08000c84  w    F .text	00000004 TIM7_IRQHandler
08000c84  w    F .text	00000004 CAN2_TX_IRQHandler
08000c84  w    F .text	00000004 TIM5_IRQHandler
08000c84  w    F .text	00000004 DMA2_Stream7_IRQHandler
08000c84  w    F .text	00000004 I2C3_EV_IRQHandler
08000c84  w    F .text	00000004 EXTI9_5_IRQHandler
08000c84  w    F .text	00000004 RTC_WKUP_IRQHandler
08000b58 g     F .text	0000001c RCC_APB1PeriphClockLPModeCmd
08000c84  w    F .text	00000004 ETH_WKUP_IRQHandler
0800050c g     F .text	0000001c EXTI_GetITStatus
08000c84  w    F .text	00000004 SPI2_IRQHandler
08000c84  w    F .text	00000004 OTG_HS_EP1_IN_IRQHandler
08000214 g     F .text	00000002 MemManage_Handler
080007bc g     F .text	00000014 RCC_AdjustHSICalibrationValue
080001c4 g     F .text	00000048 main
08000c84  w    F .text	00000004 DMA1_Stream0_IRQHandler
08000b04 g     F .text	0000001c RCC_AHB1PeriphClockLPModeCmd
08000c84  w    F .text	00000004 CAN1_TX_IRQHandler
08000220 g     F .text	00000002 SVC_Handler
080008c8 g     F .text	00000014 RCC_PCLK1Config
080004cc g     F .text	0000000e EXTI_StructInit
08000c84  w    F .text	00000004 EXTI4_IRQHandler
080008dc g     F .text	00000014 RCC_PCLK2Config
08000350 g     F .text	00000044 SystemInit
08000534 g     F .text	00000104 GPIO_DeInit
08000778 g     F .text	00000034 RCC_DeInit
0800087c g     F .text	00000014 RCC_MCO2Config
08000c84  w    F .text	00000004 FSMC_IRQHandler
08000c84  w    F .text	00000004 ETH_IRQHandler
08000c84  w    F .text	00000004 OTG_HS_EP1_OUT_IRQHandler
08000c84  w    F .text	00000004 WWDG_IRQHandler
08000b20 g     F .text	0000001c RCC_AHB2PeriphClockLPModeCmd
08000acc g     F .text	0000001c RCC_APB1PeriphResetCmd
08000240 g     F .text	0000001c Delay
08000c84  w    F .text	00000004 TIM2_IRQHandler
080006c8 g     F .text	00000012 GPIO_StructInit
08000c84  w    F .text	00000004 OTG_FS_WKUP_IRQHandler
08000c84  w    F .text	00000004 TIM1_TRG_COM_TIM11_IRQHandler
08000c84  w    F .text	00000004 OTG_HS_IRQHandler
20020000 g       *ABS*	00000000 _estack
08000c84  w    F .text	00000004 EXTI1_IRQHandler
20000028 g     O .bss	00000004 Time
20000024 g       .data	00000000 _edata
08000c84  w    F .text	00000004 USART2_IRQHandler
08000000 g     O .isr_vector	00000000 g_pfnVectors
08000394 g     F .text	0000008c SystemCoreClockUpdate
08000c84  w    F .text	00000004 I2C2_ER_IRQHandler
08000c84  w    F .text	00000004 DMA2_Stream1_IRQHandler
0800025c g     F .text	00000014 TimingDelay_Decrement
08000c84  w    F .text	00000004 CAN1_SCE_IRQHandler
08000a24 g     F .text	0000001c RCC_AHB3PeriphClockCmd
080009e0 g     F .text	0000000c RCC_I2SCLKConfig
08000c84  w    F .text	00000004 FLASH_IRQHandler
08000c84  w    F .text	00000004 DMA2_Stream4_IRQHandler
080006dc g     F .text	00000024 GPIO_PinLockConfig
08000218 g     F .text	00000002 BusFault_Handler
080009ec g     F .text	0000001c RCC_AHB1PeriphClockCmd
08000c84  w    F .text	00000004 USART1_IRQHandler
08000804 g     F .text	0000000c RCC_LSICmd
08000c84  w    F .text	00000004 OTG_FS_IRQHandler
08000c84  w    F .text	00000004 SPI3_IRQHandler
08000c84  w    F .text	00000004 DMA1_Stream4_IRQHandler
08000ae8 g     F .text	0000001c RCC_APB2PeriphResetCmd
08000c84  w    F .text	00000004 I2C1_ER_IRQHandler
08000700 g     F .text	0000000c GPIO_ReadInputDataBit
08000c84  w    F .text	00000004 DMA2_Stream6_IRQHandler
080008b4 g     F .text	00000014 RCC_HCLKConfig
08000c84  w    F .text	00000004 DMA1_Stream3_IRQHandler



Disassembly of section .text:

08000188 <InitLeds>:
InitLeds():
C:\Users\Filip\GIT\STM32F4Discovery\Eclipse\Template\Debug/../src/discovery.c:3
#include "discovery.h"

void InitLeds(){
 8000188:	b500      	push	{lr}
 800018a:	b083      	sub	sp, #12
C:\Users\Filip\GIT\STM32F4Discovery\Eclipse\Template\Debug/../src/discovery.c:5

	RCC_AHB1PeriphClockCmd(RCC_AHB1Periph_GPIOD, ENABLE);
 800018c:	2008      	movs	r0, #8
 800018e:	2101      	movs	r1, #1
 8000190:	f000 fc2c 	bl	80009ec <RCC_AHB1PeriphClockCmd>
C:\Users\Filip\GIT\STM32F4Discovery\Eclipse\Template\Debug/../src/discovery.c:8

	GPIO_InitTypeDef GPIO_InitStructure;
	GPIO_InitStructure.GPIO_Pin = LED_R | LED_G | LED_B | LED_O;
 8000194:	f44f 4370 	mov.w	r3, #61440	; 0xf000
 8000198:	9300      	str	r3, [sp, #0]
C:\Users\Filip\GIT\STM32F4Discovery\Eclipse\Template\Debug/../src/discovery.c:9
	GPIO_InitStructure.GPIO_OType = GPIO_OType_PP;
 800019a:	2300      	movs	r3, #0
 800019c:	f88d 3006 	strb.w	r3, [sp, #6]
C:\Users\Filip\GIT\STM32F4Discovery\Eclipse\Template\Debug/../src/discovery.c:10
	GPIO_InitStructure.GPIO_Mode = GPIO_Mode_OUT;
 80001a0:	2201      	movs	r2, #1
 80001a2:	f88d 2004 	strb.w	r2, [sp, #4]
C:\Users\Filip\GIT\STM32F4Discovery\Eclipse\Template\Debug/../src/discovery.c:11
	GPIO_InitStructure.GPIO_PuPd = GPIO_PuPd_NOPULL;
 80001a6:	f88d 3007 	strb.w	r3, [sp, #7]
C:\Users\Filip\GIT\STM32F4Discovery\Eclipse\Template\Debug/../src/discovery.c:12
	GPIO_InitStructure.GPIO_Speed = GPIO_Speed_100MHz;
 80001aa:	2303      	movs	r3, #3
 80001ac:	f88d 3005 	strb.w	r3, [sp, #5]
C:\Users\Filip\GIT\STM32F4Discovery\Eclipse\Template\Debug/../src/discovery.c:14

	GPIO_Init(LED_Port, &GPIO_InitStructure);
 80001b0:	4803      	ldr	r0, [pc, #12]	; (80001c0 <InitLeds+0x38>)
 80001b2:	4669      	mov	r1, sp
 80001b4:	f000 fa40 	bl	8000638 <GPIO_Init>
C:\Users\Filip\GIT\STM32F4Discovery\Eclipse\Template\Debug/../src/discovery.c:15
}
 80001b8:	b003      	add	sp, #12
 80001ba:	f85d fb04 	ldr.w	pc, [sp], #4
 80001be:	bf00      	nop
 80001c0:	40020c00 	.word	0x40020c00

080001c4 <main>:
main():
C:\Users\Filip\GIT\STM32F4Discovery\Eclipse\Template\Debug/../src/main.c:7
#include "discovery.h"

//extern volatile uint32_t Time;

int main(void)
{	
 80001c4:	b508      	push	{r3, lr}
C:\Users\Filip\GIT\STM32F4Discovery\Eclipse\Template\Debug/../src/main.c:8
  SysTick_Config(SystemCoreClock/1000);
 80001c6:	4b0c      	ldr	r3, [pc, #48]	; (80001f8 <main+0x34>)
 80001c8:	681a      	ldr	r2, [r3, #0]
 80001ca:	4b0c      	ldr	r3, [pc, #48]	; (80001fc <main+0x38>)
 80001cc:	fba3 1202 	umull	r1, r2, r3, r2
SysTick_Config():
C:\Users\Filip\GIT\STM32F4Discovery\Eclipse\Template\CMSIS\Include/core_cm4.h:1285
 */
static __INLINE uint32_t SysTick_Config(uint32_t ticks)
{
  if (ticks > SysTick_LOAD_RELOAD_Msk)  return (1);            /* Reload value impossible */

  SysTick->LOAD  = (ticks & SysTick_LOAD_RELOAD_Msk) - 1;      /* set reload register */
 80001d0:	0992      	lsrs	r2, r2, #6
 80001d2:	3a01      	subs	r2, #1
 80001d4:	4b0a      	ldr	r3, [pc, #40]	; (8000200 <main+0x3c>)
 80001d6:	605a      	str	r2, [r3, #4]
NVIC_SetPriority():
C:\Users\Filip\GIT\STM32F4Discovery\Eclipse\Template\CMSIS\Include/core_cm4.h:1159
    \param [in]  priority  Priority to set
 */
static __INLINE void NVIC_SetPriority(IRQn_Type IRQn, uint32_t priority)
{
  if(IRQn < 0) {
    SCB->SHP[((uint32_t)(IRQn) & 0xF)-4] = ((priority << (8 - __NVIC_PRIO_BITS)) & 0xff); } /* set Priority for Cortex-M  System Interrupts */
 80001d8:	21f0      	movs	r1, #240	; 0xf0
 80001da:	4a0a      	ldr	r2, [pc, #40]	; (8000204 <main+0x40>)
 80001dc:	f882 1023 	strb.w	r1, [r2, #35]	; 0x23
SysTick_Config():
C:\Users\Filip\GIT\STM32F4Discovery\Eclipse\Template\CMSIS\Include/core_cm4.h:1287
{
  if (ticks > SysTick_LOAD_RELOAD_Msk)  return (1);            /* Reload value impossible */

  SysTick->LOAD  = (ticks & SysTick_LOAD_RELOAD_Msk) - 1;      /* set reload register */
  NVIC_SetPriority (SysTick_IRQn, (1<<__NVIC_PRIO_BITS) - 1);  /* set Priority for Cortex-M0 System Interrupts */
  SysTick->VAL   = 0;                                          /* Load the SysTick Counter Value */
 80001e0:	2200      	movs	r2, #0
 80001e2:	609a      	str	r2, [r3, #8]
C:\Users\Filip\GIT\STM32F4Discovery\Eclipse\Template\CMSIS\Include/core_cm4.h:1288
  SysTick->CTRL  = SysTick_CTRL_CLKSOURCE_Msk |
 80001e4:	2207      	movs	r2, #7
 80001e6:	601a      	str	r2, [r3, #0]
main():
C:\Users\Filip\GIT\STM32F4Discovery\Eclipse\Template\Debug/../src/main.c:9
  InitLeds();
 80001e8:	f7ff ffce 	bl	8000188 <InitLeds>
C:\Users\Filip\GIT\STM32F4Discovery\Eclipse\Template\Debug/../src/main.c:10
  LedOn(LED_R | LED_G);
 80001ec:	f44f 42a0 	mov.w	r2, #20480	; 0x5000
 80001f0:	4b05      	ldr	r3, [pc, #20]	; (8000208 <main+0x44>)
 80001f2:	831a      	strh	r2, [r3, #24]
 80001f4:	e7fe      	b.n	80001f4 <main+0x30>
 80001f6:	bf00      	nop
 80001f8:	20000000 	.word	0x20000000
 80001fc:	10624dd3 	.word	0x10624dd3
 8000200:	e000e010 	.word	0xe000e010
 8000204:	e000ed00 	.word	0xe000ed00
 8000208:	40020c00 	.word	0x40020c00

0800020c <NMI_Handler>:
NMI_Handler():
C:\Users\Filip\Eclipse\Template\Debug/../src/stm32f4xx_it.c:19
 800020c:	4770      	bx	lr
 800020e:	bf00      	nop

08000210 <HardFault_Handler>:
HardFault_Handler():
C:\Users\Filip\Eclipse\Template\Debug/../src/stm32f4xx_it.c:29
 8000210:	e7fe      	b.n	8000210 <HardFault_Handler>
 8000212:	bf00      	nop

08000214 <MemManage_Handler>:
MemManage_Handler():
C:\Users\Filip\Eclipse\Template\Debug/../src/stm32f4xx_it.c:43
 8000214:	e7fe      	b.n	8000214 <MemManage_Handler>
 8000216:	bf00      	nop

08000218 <BusFault_Handler>:
BusFault_Handler():
C:\Users\Filip\Eclipse\Template\Debug/../src/stm32f4xx_it.c:57
 8000218:	e7fe      	b.n	8000218 <BusFault_Handler>
 800021a:	bf00      	nop

0800021c <UsageFault_Handler>:
UsageFault_Handler():
C:\Users\Filip\Eclipse\Template\Debug/../src/stm32f4xx_it.c:71
 800021c:	e7fe      	b.n	800021c <UsageFault_Handler>
 800021e:	bf00      	nop

08000220 <SVC_Handler>:
SVC_Handler():
C:\Users\Filip\Eclipse\Template\Debug/../src/stm32f4xx_it.c:85
 8000220:	4770      	bx	lr
 8000222:	bf00      	nop

08000224 <DebugMon_Handler>:
DebugMon_Handler():
C:\Users\Filip\Eclipse\Template\Debug/../src/stm32f4xx_it.c:95
 8000224:	4770      	bx	lr
 8000226:	bf00      	nop

08000228 <PendSV_Handler>:
PendSV_Handler():
C:\Users\Filip\Eclipse\Template\Debug/../src/stm32f4xx_it.c:105
 8000228:	4770      	bx	lr
 800022a:	bf00      	nop

0800022c <EXTI0_IRQHandler>:
EXTI0_IRQHandler():
C:\Users\Filip\Eclipse\Template\Debug/../src/stm32f4xx_it.c:131
 800022c:	b508      	push	{r3, lr}
C:\Users\Filip\Eclipse\Template\Debug/../src/stm32f4xx_it.c:133
 800022e:	2001      	movs	r0, #1
 8000230:	f000 f96c 	bl	800050c <EXTI_GetITStatus>
 8000234:	b110      	cbz	r0, 800023c <EXTI0_IRQHandler+0x10>
C:\Users\Filip\Eclipse\Template\Debug/../src/stm32f4xx_it.c:135
 8000236:	2001      	movs	r0, #1
 8000238:	f000 f976 	bl	8000528 <EXTI_ClearITPendingBit>
 800023c:	bd08      	pop	{r3, pc}
 800023e:	bf00      	nop

08000240 <Delay>:
Delay():
C:\Users\Filip\Eclipse\Template\Debug/../src/stm32f4xx_it.c:143
 8000240:	b082      	sub	sp, #8
 8000242:	9001      	str	r0, [sp, #4]
C:\Users\Filip\Eclipse\Template\Debug/../src/stm32f4xx_it.c:144
 8000244:	9a01      	ldr	r2, [sp, #4]
 8000246:	4b04      	ldr	r3, [pc, #16]	; (8000258 <Delay+0x18>)
 8000248:	601a      	str	r2, [r3, #0]
C:\Users\Filip\Eclipse\Template\Debug/../src/stm32f4xx_it.c:146
 800024a:	461a      	mov	r2, r3
C:\Users\Filip\Eclipse\Template\Debug/../src/stm32f4xx_it.c:146 (discriminator 1)
 800024c:	6813      	ldr	r3, [r2, #0]
 800024e:	2b00      	cmp	r3, #0
 8000250:	d1fc      	bne.n	800024c <Delay+0xc>
C:\Users\Filip\Eclipse\Template\Debug/../src/stm32f4xx_it.c:147
 8000252:	b002      	add	sp, #8
 8000254:	4770      	bx	lr
 8000256:	bf00      	nop
 8000258:	20000024 	.word	0x20000024

0800025c <TimingDelay_Decrement>:
TimingDelay_Decrement():
C:\Users\Filip\Eclipse\Template\Debug/../src/stm32f4xx_it.c:151
 800025c:	4b03      	ldr	r3, [pc, #12]	; (800026c <TimingDelay_Decrement+0x10>)
 800025e:	681b      	ldr	r3, [r3, #0]
 8000260:	b11b      	cbz	r3, 800026a <TimingDelay_Decrement+0xe>
C:\Users\Filip\Eclipse\Template\Debug/../src/stm32f4xx_it.c:153
 8000262:	4b02      	ldr	r3, [pc, #8]	; (800026c <TimingDelay_Decrement+0x10>)
 8000264:	681a      	ldr	r2, [r3, #0]
 8000266:	3a01      	subs	r2, #1
 8000268:	601a      	str	r2, [r3, #0]
 800026a:	4770      	bx	lr
 800026c:	20000024 	.word	0x20000024

08000270 <SysTick_Handler>:
SysTick_Handler():
C:\Users\Filip\Eclipse\Template\Debug/../src/stm32f4xx_it.c:115
 8000270:	b508      	push	{r3, lr}
C:\Users\Filip\Eclipse\Template\Debug/../src/stm32f4xx_it.c:116
 8000272:	4b05      	ldr	r3, [pc, #20]	; (8000288 <SysTick_Handler+0x18>)
 8000274:	681b      	ldr	r3, [r3, #0]
 8000276:	b10b      	cbz	r3, 800027c <SysTick_Handler+0xc>
C:\Users\Filip\Eclipse\Template\Debug/../src/stm32f4xx_it.c:118
 8000278:	f7ff fff0 	bl	800025c <TimingDelay_Decrement>
C:\Users\Filip\Eclipse\Template\Debug/../src/stm32f4xx_it.c:120
 800027c:	4b03      	ldr	r3, [pc, #12]	; (800028c <SysTick_Handler+0x1c>)
 800027e:	681a      	ldr	r2, [r3, #0]
 8000280:	3201      	adds	r2, #1
 8000282:	601a      	str	r2, [r3, #0]
 8000284:	bd08      	pop	{r3, pc}
 8000286:	bf00      	nop
 8000288:	20000024 	.word	0x20000024
 800028c:	20000028 	.word	0x20000028

08000290 <SetSysClock>:
SetSysClock():
C:\Users\Filip\Eclipse\Template\Debug/../src/system_stm32f4xx.c:334
 8000290:	b082      	sub	sp, #8
C:\Users\Filip\Eclipse\Template\Debug/../src/system_stm32f4xx.c:338
 8000292:	2300      	movs	r3, #0
 8000294:	9301      	str	r3, [sp, #4]
 8000296:	9300      	str	r3, [sp, #0]
C:\Users\Filip\Eclipse\Template\Debug/../src/system_stm32f4xx.c:341
 8000298:	4b29      	ldr	r3, [pc, #164]	; (8000340 <SetSysClock+0xb0>)
 800029a:	681a      	ldr	r2, [r3, #0]
 800029c:	f442 3280 	orr.w	r2, r2, #65536	; 0x10000
 80002a0:	601a      	str	r2, [r3, #0]
C:\Users\Filip\Eclipse\Template\Debug/../src/system_stm32f4xx.c:346
 80002a2:	461a      	mov	r2, r3
C:\Users\Filip\Eclipse\Template\Debug/../src/system_stm32f4xx.c:346 (discriminator 1)
 80002a4:	6813      	ldr	r3, [r2, #0]
 80002a6:	f403 3300 	and.w	r3, r3, #131072	; 0x20000
 80002aa:	9300      	str	r3, [sp, #0]
C:\Users\Filip\Eclipse\Template\Debug/../src/system_stm32f4xx.c:347 (discriminator 1)
 80002ac:	9b01      	ldr	r3, [sp, #4]
 80002ae:	3301      	adds	r3, #1
 80002b0:	9301      	str	r3, [sp, #4]
C:\Users\Filip\Eclipse\Template\Debug/../src/system_stm32f4xx.c:348 (discriminator 1)
 80002b2:	9b00      	ldr	r3, [sp, #0]
 80002b4:	b91b      	cbnz	r3, 80002be <SetSysClock+0x2e>
 80002b6:	9b01      	ldr	r3, [sp, #4]
 80002b8:	f5b3 6fa0 	cmp.w	r3, #1280	; 0x500
 80002bc:	d1f2      	bne.n	80002a4 <SetSysClock+0x14>
C:\Users\Filip\Eclipse\Template\Debug/../src/system_stm32f4xx.c:350
 80002be:	4b20      	ldr	r3, [pc, #128]	; (8000340 <SetSysClock+0xb0>)
 80002c0:	681b      	ldr	r3, [r3, #0]
 80002c2:	f413 3f00 	tst.w	r3, #131072	; 0x20000
C:\Users\Filip\Eclipse\Template\Debug/../src/system_stm32f4xx.c:352
 80002c6:	bf14      	ite	ne
 80002c8:	2301      	movne	r3, #1
C:\Users\Filip\Eclipse\Template\Debug/../src/system_stm32f4xx.c:356
 80002ca:	2300      	moveq	r3, #0
 80002cc:	9300      	str	r3, [sp, #0]
C:\Users\Filip\Eclipse\Template\Debug/../src/system_stm32f4xx.c:359
 80002ce:	9b00      	ldr	r3, [sp, #0]
 80002d0:	2b01      	cmp	r3, #1
 80002d2:	d132      	bne.n	800033a <SetSysClock+0xaa>
C:\Users\Filip\Eclipse\Template\Debug/../src/system_stm32f4xx.c:362
 80002d4:	4b1a      	ldr	r3, [pc, #104]	; (8000340 <SetSysClock+0xb0>)
 80002d6:	6c1a      	ldr	r2, [r3, #64]	; 0x40
 80002d8:	f042 5280 	orr.w	r2, r2, #268435456	; 0x10000000
 80002dc:	641a      	str	r2, [r3, #64]	; 0x40
C:\Users\Filip\Eclipse\Template\Debug/../src/system_stm32f4xx.c:363
 80002de:	4a19      	ldr	r2, [pc, #100]	; (8000344 <SetSysClock+0xb4>)
 80002e0:	6811      	ldr	r1, [r2, #0]
 80002e2:	f441 4180 	orr.w	r1, r1, #16384	; 0x4000
 80002e6:	6011      	str	r1, [r2, #0]
C:\Users\Filip\Eclipse\Template\Debug/../src/system_stm32f4xx.c:366
 80002e8:	689a      	ldr	r2, [r3, #8]
 80002ea:	609a      	str	r2, [r3, #8]
C:\Users\Filip\Eclipse\Template\Debug/../src/system_stm32f4xx.c:369
 80002ec:	689a      	ldr	r2, [r3, #8]
 80002ee:	f442 4200 	orr.w	r2, r2, #32768	; 0x8000
 80002f2:	609a      	str	r2, [r3, #8]
C:\Users\Filip\Eclipse\Template\Debug/../src/system_stm32f4xx.c:372
 80002f4:	689a      	ldr	r2, [r3, #8]
 80002f6:	f442 52a0 	orr.w	r2, r2, #5120	; 0x1400
 80002fa:	609a      	str	r2, [r3, #8]
C:\Users\Filip\Eclipse\Template\Debug/../src/system_stm32f4xx.c:375
 80002fc:	4a12      	ldr	r2, [pc, #72]	; (8000348 <SetSysClock+0xb8>)
 80002fe:	605a      	str	r2, [r3, #4]
C:\Users\Filip\Eclipse\Template\Debug/../src/system_stm32f4xx.c:379
 8000300:	681a      	ldr	r2, [r3, #0]
 8000302:	f042 7280 	orr.w	r2, r2, #16777216	; 0x1000000
 8000306:	601a      	str	r2, [r3, #0]
C:\Users\Filip\Eclipse\Template\Debug/../src/system_stm32f4xx.c:382
 8000308:	461a      	mov	r2, r3
C:\Users\Filip\Eclipse\Template\Debug/../src/system_stm32f4xx.c:382 (discriminator 1)
 800030a:	6813      	ldr	r3, [r2, #0]
 800030c:	f013 7f00 	tst.w	r3, #33554432	; 0x2000000
 8000310:	d0fb      	beq.n	800030a <SetSysClock+0x7a>
C:\Users\Filip\Eclipse\Template\Debug/../src/system_stm32f4xx.c:387
 8000312:	f240 6205 	movw	r2, #1541	; 0x605
 8000316:	4b0d      	ldr	r3, [pc, #52]	; (800034c <SetSysClock+0xbc>)
 8000318:	601a      	str	r2, [r3, #0]
C:\Users\Filip\Eclipse\Template\Debug/../src/system_stm32f4xx.c:390
 800031a:	f5a3 6380 	sub.w	r3, r3, #1024	; 0x400
 800031e:	689a      	ldr	r2, [r3, #8]
 8000320:	f022 0203 	bic.w	r2, r2, #3
 8000324:	609a      	str	r2, [r3, #8]
C:\Users\Filip\Eclipse\Template\Debug/../src/system_stm32f4xx.c:391
 8000326:	689a      	ldr	r2, [r3, #8]
 8000328:	f042 0202 	orr.w	r2, r2, #2
 800032c:	609a      	str	r2, [r3, #8]
C:\Users\Filip\Eclipse\Template\Debug/../src/system_stm32f4xx.c:394
 800032e:	461a      	mov	r2, r3
C:\Users\Filip\Eclipse\Template\Debug/../src/system_stm32f4xx.c:394 (discriminator 1)
 8000330:	6893      	ldr	r3, [r2, #8]
 8000332:	f003 030c 	and.w	r3, r3, #12
 8000336:	2b08      	cmp	r3, #8
 8000338:	d1fa      	bne.n	8000330 <SetSysClock+0xa0>
C:\Users\Filip\Eclipse\Template\Debug/../src/system_stm32f4xx.c:403
 800033a:	b002      	add	sp, #8
 800033c:	4770      	bx	lr
 800033e:	bf00      	nop
 8000340:	40023800 	.word	0x40023800
 8000344:	40007000 	.word	0x40007000
 8000348:	07405408 	.word	0x07405408
 800034c:	40023c00 	.word	0x40023c00

08000350 <SystemInit>:
SystemInit():
C:\Users\Filip\Eclipse\Template\Debug/../src/system_stm32f4xx.c:205
 8000350:	b508      	push	{r3, lr}
C:\Users\Filip\Eclipse\Template\Debug/../src/system_stm32f4xx.c:208
 8000352:	4b0d      	ldr	r3, [pc, #52]	; (8000388 <SystemInit+0x38>)
 8000354:	681a      	ldr	r2, [r3, #0]
 8000356:	f042 0201 	orr.w	r2, r2, #1
 800035a:	601a      	str	r2, [r3, #0]
C:\Users\Filip\Eclipse\Template\Debug/../src/system_stm32f4xx.c:211
 800035c:	2100      	movs	r1, #0
 800035e:	6099      	str	r1, [r3, #8]
C:\Users\Filip\Eclipse\Template\Debug/../src/system_stm32f4xx.c:214
 8000360:	681a      	ldr	r2, [r3, #0]
 8000362:	f022 7284 	bic.w	r2, r2, #17301504	; 0x1080000
 8000366:	f422 3280 	bic.w	r2, r2, #65536	; 0x10000
 800036a:	601a      	str	r2, [r3, #0]
C:\Users\Filip\Eclipse\Template\Debug/../src/system_stm32f4xx.c:217
 800036c:	4a07      	ldr	r2, [pc, #28]	; (800038c <SystemInit+0x3c>)
 800036e:	605a      	str	r2, [r3, #4]
C:\Users\Filip\Eclipse\Template\Debug/../src/system_stm32f4xx.c:220
 8000370:	681a      	ldr	r2, [r3, #0]
 8000372:	f422 2280 	bic.w	r2, r2, #262144	; 0x40000
 8000376:	601a      	str	r2, [r3, #0]
C:\Users\Filip\Eclipse\Template\Debug/../src/system_stm32f4xx.c:223
 8000378:	60d9      	str	r1, [r3, #12]
C:\Users\Filip\Eclipse\Template\Debug/../src/system_stm32f4xx.c:231
 800037a:	f7ff ff89 	bl	8000290 <SetSysClock>
C:\Users\Filip\Eclipse\Template\Debug/../src/system_stm32f4xx.c:237
 800037e:	f04f 6200 	mov.w	r2, #134217728	; 0x8000000
 8000382:	4b03      	ldr	r3, [pc, #12]	; (8000390 <SystemInit+0x40>)
 8000384:	609a      	str	r2, [r3, #8]
 8000386:	bd08      	pop	{r3, pc}
 8000388:	40023800 	.word	0x40023800
 800038c:	24003010 	.word	0x24003010
 8000390:	e000ed00 	.word	0xe000ed00

08000394 <SystemCoreClockUpdate>:
SystemCoreClockUpdate():
C:\Users\Filip\Eclipse\Template\Debug/../src/system_stm32f4xx.c:282
 8000394:	4b1e      	ldr	r3, [pc, #120]	; (8000410 <SystemCoreClockUpdate+0x7c>)
 8000396:	689b      	ldr	r3, [r3, #8]
 8000398:	f003 030c 	and.w	r3, r3, #12
C:\Users\Filip\Eclipse\Template\Debug/../src/system_stm32f4xx.c:284
 800039c:	2b04      	cmp	r3, #4
 800039e:	d006      	beq.n	80003ae <SystemCoreClockUpdate+0x1a>
 80003a0:	2b08      	cmp	r3, #8
 80003a2:	d008      	beq.n	80003b6 <SystemCoreClockUpdate+0x22>
 80003a4:	bb23      	cbnz	r3, 80003f0 <SystemCoreClockUpdate+0x5c>
C:\Users\Filip\Eclipse\Template\Debug/../src/system_stm32f4xx.c:287
 80003a6:	4a1b      	ldr	r2, [pc, #108]	; (8000414 <SystemCoreClockUpdate+0x80>)
 80003a8:	4b1b      	ldr	r3, [pc, #108]	; (8000418 <SystemCoreClockUpdate+0x84>)
 80003aa:	601a      	str	r2, [r3, #0]
C:\Users\Filip\Eclipse\Template\Debug/../src/system_stm32f4xx.c:288
 80003ac:	e023      	b.n	80003f6 <SystemCoreClockUpdate+0x62>
C:\Users\Filip\Eclipse\Template\Debug/../src/system_stm32f4xx.c:290
 80003ae:	4a1b      	ldr	r2, [pc, #108]	; (800041c <SystemCoreClockUpdate+0x88>)
 80003b0:	4b19      	ldr	r3, [pc, #100]	; (8000418 <SystemCoreClockUpdate+0x84>)
 80003b2:	601a      	str	r2, [r3, #0]
C:\Users\Filip\Eclipse\Template\Debug/../src/system_stm32f4xx.c:291
 80003b4:	e01f      	b.n	80003f6 <SystemCoreClockUpdate+0x62>
C:\Users\Filip\Eclipse\Template\Debug/../src/system_stm32f4xx.c:297
 80003b6:	4b16      	ldr	r3, [pc, #88]	; (8000410 <SystemCoreClockUpdate+0x7c>)
 80003b8:	6859      	ldr	r1, [r3, #4]
C:\Users\Filip\Eclipse\Template\Debug/../src/system_stm32f4xx.c:298
 80003ba:	685b      	ldr	r3, [r3, #4]
 80003bc:	f003 033f 	and.w	r3, r3, #63	; 0x3f
C:\Users\Filip\Eclipse\Template\Debug/../src/system_stm32f4xx.c:300
 80003c0:	f411 0f80 	tst.w	r1, #4194304	; 0x400000
C:\Users\Filip\Eclipse\Template\Debug/../src/system_stm32f4xx.c:303
 80003c4:	bf14      	ite	ne
 80003c6:	4a15      	ldrne	r2, [pc, #84]	; (800041c <SystemCoreClockUpdate+0x88>)
C:\Users\Filip\Eclipse\Template\Debug/../src/system_stm32f4xx.c:308
 80003c8:	4a12      	ldreq	r2, [pc, #72]	; (8000414 <SystemCoreClockUpdate+0x80>)
 80003ca:	fbb2 f3f3 	udiv	r3, r2, r3
 80003ce:	4a10      	ldr	r2, [pc, #64]	; (8000410 <SystemCoreClockUpdate+0x7c>)
 80003d0:	6852      	ldr	r2, [r2, #4]
 80003d2:	f3c2 1288 	ubfx	r2, r2, #6, #9
 80003d6:	fb02 f203 	mul.w	r2, r2, r3
C:\Users\Filip\Eclipse\Template\Debug/../src/system_stm32f4xx.c:311
 80003da:	4b0d      	ldr	r3, [pc, #52]	; (8000410 <SystemCoreClockUpdate+0x7c>)
 80003dc:	685b      	ldr	r3, [r3, #4]
 80003de:	f3c3 4301 	ubfx	r3, r3, #16, #2
 80003e2:	3301      	adds	r3, #1
 80003e4:	005b      	lsls	r3, r3, #1
C:\Users\Filip\Eclipse\Template\Debug/../src/system_stm32f4xx.c:312
 80003e6:	fbb2 f2f3 	udiv	r2, r2, r3
 80003ea:	4b0b      	ldr	r3, [pc, #44]	; (8000418 <SystemCoreClockUpdate+0x84>)
 80003ec:	601a      	str	r2, [r3, #0]
C:\Users\Filip\Eclipse\Template\Debug/../src/system_stm32f4xx.c:313
 80003ee:	e002      	b.n	80003f6 <SystemCoreClockUpdate+0x62>
C:\Users\Filip\Eclipse\Template\Debug/../src/system_stm32f4xx.c:315
 80003f0:	4a08      	ldr	r2, [pc, #32]	; (8000414 <SystemCoreClockUpdate+0x80>)
 80003f2:	4b09      	ldr	r3, [pc, #36]	; (8000418 <SystemCoreClockUpdate+0x84>)
 80003f4:	601a      	str	r2, [r3, #0]
C:\Users\Filip\Eclipse\Template\Debug/../src/system_stm32f4xx.c:320
 80003f6:	4b06      	ldr	r3, [pc, #24]	; (8000410 <SystemCoreClockUpdate+0x7c>)
 80003f8:	689a      	ldr	r2, [r3, #8]
 80003fa:	f3c2 1203 	ubfx	r2, r2, #4, #4
 80003fe:	4b06      	ldr	r3, [pc, #24]	; (8000418 <SystemCoreClockUpdate+0x84>)
 8000400:	441a      	add	r2, r3
 8000402:	7911      	ldrb	r1, [r2, #4]
 8000404:	b2c9      	uxtb	r1, r1
C:\Users\Filip\Eclipse\Template\Debug/../src/system_stm32f4xx.c:322
 8000406:	681a      	ldr	r2, [r3, #0]
 8000408:	40ca      	lsrs	r2, r1
 800040a:	601a      	str	r2, [r3, #0]
 800040c:	4770      	bx	lr
 800040e:	bf00      	nop
 8000410:	40023800 	.word	0x40023800
 8000414:	00f42400 	.word	0x00f42400
 8000418:	20000000 	.word	0x20000000
 800041c:	007a1200 	.word	0x007a1200

08000420 <EXTI_DeInit>:
EXTI_DeInit():
C:\Users\Filip\Eclipse\Template\Debug/../STM32F4xx_StdPeriph_Driver/src/stm32f4xx_exti.c:105
 8000420:	4b04      	ldr	r3, [pc, #16]	; (8000434 <EXTI_DeInit+0x14>)
 8000422:	2200      	movs	r2, #0
 8000424:	601a      	str	r2, [r3, #0]
C:\Users\Filip\Eclipse\Template\Debug/../STM32F4xx_StdPeriph_Driver/src/stm32f4xx_exti.c:106
 8000426:	605a      	str	r2, [r3, #4]
C:\Users\Filip\Eclipse\Template\Debug/../STM32F4xx_StdPeriph_Driver/src/stm32f4xx_exti.c:107
 8000428:	609a      	str	r2, [r3, #8]
C:\Users\Filip\Eclipse\Template\Debug/../STM32F4xx_StdPeriph_Driver/src/stm32f4xx_exti.c:108
 800042a:	60da      	str	r2, [r3, #12]
C:\Users\Filip\Eclipse\Template\Debug/../STM32F4xx_StdPeriph_Driver/src/stm32f4xx_exti.c:109
 800042c:	4a02      	ldr	r2, [pc, #8]	; (8000438 <EXTI_DeInit+0x18>)
 800042e:	615a      	str	r2, [r3, #20]
 8000430:	4770      	bx	lr
 8000432:	bf00      	nop
 8000434:	40013c00 	.word	0x40013c00
 8000438:	007fffff 	.word	0x007fffff

0800043c <EXTI_Init>:
EXTI_Init():
C:\Users\Filip\Eclipse\Template\Debug/../STM32F4xx_StdPeriph_Driver/src/stm32f4xx_exti.c:120
 800043c:	b410      	push	{r4}
C:\Users\Filip\Eclipse\Template\Debug/../STM32F4xx_StdPeriph_Driver/src/stm32f4xx_exti.c:131
 800043e:	7983      	ldrb	r3, [r0, #6]
 8000440:	2b00      	cmp	r3, #0
 8000442:	d033      	beq.n	80004ac <EXTI_Init+0x70>
C:\Users\Filip\Eclipse\Template\Debug/../STM32F4xx_StdPeriph_Driver/src/stm32f4xx_exti.c:134
 8000444:	4b20      	ldr	r3, [pc, #128]	; (80004c8 <EXTI_Init+0x8c>)
 8000446:	6819      	ldr	r1, [r3, #0]
 8000448:	6802      	ldr	r2, [r0, #0]
 800044a:	ea21 0202 	bic.w	r2, r1, r2
 800044e:	601a      	str	r2, [r3, #0]
C:\Users\Filip\Eclipse\Template\Debug/../STM32F4xx_StdPeriph_Driver/src/stm32f4xx_exti.c:135
 8000450:	6859      	ldr	r1, [r3, #4]
 8000452:	6802      	ldr	r2, [r0, #0]
 8000454:	ea21 0202 	bic.w	r2, r1, r2
 8000458:	605a      	str	r2, [r3, #4]
C:\Users\Filip\Eclipse\Template\Debug/../STM32F4xx_StdPeriph_Driver/src/stm32f4xx_exti.c:137
 800045a:	7902      	ldrb	r2, [r0, #4]
 800045c:	f102 4280 	add.w	r2, r2, #1073741824	; 0x40000000
 8000460:	f502 329e 	add.w	r2, r2, #80896	; 0x13c00
C:\Users\Filip\Eclipse\Template\Debug/../STM32F4xx_StdPeriph_Driver/src/stm32f4xx_exti.c:139
 8000464:	6814      	ldr	r4, [r2, #0]
 8000466:	6801      	ldr	r1, [r0, #0]
 8000468:	4321      	orrs	r1, r4
 800046a:	6011      	str	r1, [r2, #0]
C:\Users\Filip\Eclipse\Template\Debug/../STM32F4xx_StdPeriph_Driver/src/stm32f4xx_exti.c:142
 800046c:	6899      	ldr	r1, [r3, #8]
 800046e:	6802      	ldr	r2, [r0, #0]
 8000470:	ea21 0202 	bic.w	r2, r1, r2
 8000474:	609a      	str	r2, [r3, #8]
C:\Users\Filip\Eclipse\Template\Debug/../STM32F4xx_StdPeriph_Driver/src/stm32f4xx_exti.c:143
 8000476:	68d9      	ldr	r1, [r3, #12]
 8000478:	6802      	ldr	r2, [r0, #0]
 800047a:	ea21 0202 	bic.w	r2, r1, r2
 800047e:	60da      	str	r2, [r3, #12]
C:\Users\Filip\Eclipse\Template\Debug/../STM32F4xx_StdPeriph_Driver/src/stm32f4xx_exti.c:146
 8000480:	7943      	ldrb	r3, [r0, #5]
 8000482:	2b10      	cmp	r3, #16
 8000484:	d109      	bne.n	800049a <EXTI_Init+0x5e>
C:\Users\Filip\Eclipse\Template\Debug/../STM32F4xx_StdPeriph_Driver/src/stm32f4xx_exti.c:149
 8000486:	4b10      	ldr	r3, [pc, #64]	; (80004c8 <EXTI_Init+0x8c>)
 8000488:	6899      	ldr	r1, [r3, #8]
 800048a:	6802      	ldr	r2, [r0, #0]
 800048c:	430a      	orrs	r2, r1
 800048e:	609a      	str	r2, [r3, #8]
C:\Users\Filip\Eclipse\Template\Debug/../STM32F4xx_StdPeriph_Driver/src/stm32f4xx_exti.c:150
 8000490:	68d9      	ldr	r1, [r3, #12]
 8000492:	6802      	ldr	r2, [r0, #0]
 8000494:	430a      	orrs	r2, r1
 8000496:	60da      	str	r2, [r3, #12]
 8000498:	e012      	b.n	80004c0 <EXTI_Init+0x84>
C:\Users\Filip\Eclipse\Template\Debug/../STM32F4xx_StdPeriph_Driver/src/stm32f4xx_exti.c:155
 800049a:	f103 4380 	add.w	r3, r3, #1073741824	; 0x40000000
 800049e:	f503 339e 	add.w	r3, r3, #80896	; 0x13c00
C:\Users\Filip\Eclipse\Template\Debug/../STM32F4xx_StdPeriph_Driver/src/stm32f4xx_exti.c:157
 80004a2:	6819      	ldr	r1, [r3, #0]
 80004a4:	6802      	ldr	r2, [r0, #0]
 80004a6:	430a      	orrs	r2, r1
 80004a8:	601a      	str	r2, [r3, #0]
 80004aa:	e009      	b.n	80004c0 <EXTI_Init+0x84>
C:\Users\Filip\Eclipse\Template\Debug/../STM32F4xx_StdPeriph_Driver/src/stm32f4xx_exti.c:162
 80004ac:	7903      	ldrb	r3, [r0, #4]
 80004ae:	f103 4380 	add.w	r3, r3, #1073741824	; 0x40000000
 80004b2:	f503 339e 	add.w	r3, r3, #80896	; 0x13c00
C:\Users\Filip\Eclipse\Template\Debug/../STM32F4xx_StdPeriph_Driver/src/stm32f4xx_exti.c:165
 80004b6:	681a      	ldr	r2, [r3, #0]
 80004b8:	6801      	ldr	r1, [r0, #0]
 80004ba:	ea22 0201 	bic.w	r2, r2, r1
 80004be:	601a      	str	r2, [r3, #0]
C:\Users\Filip\Eclipse\Template\Debug/../STM32F4xx_StdPeriph_Driver/src/stm32f4xx_exti.c:167
 80004c0:	f85d 4b04 	ldr.w	r4, [sp], #4
 80004c4:	4770      	bx	lr
 80004c6:	bf00      	nop
 80004c8:	40013c00 	.word	0x40013c00

080004cc <EXTI_StructInit>:
EXTI_StructInit():
C:\Users\Filip\Eclipse\Template\Debug/../STM32F4xx_StdPeriph_Driver/src/stm32f4xx_exti.c:177
 80004cc:	2300      	movs	r3, #0
 80004ce:	6003      	str	r3, [r0, #0]
C:\Users\Filip\Eclipse\Template\Debug/../STM32F4xx_StdPeriph_Driver/src/stm32f4xx_exti.c:178
 80004d0:	7103      	strb	r3, [r0, #4]
C:\Users\Filip\Eclipse\Template\Debug/../STM32F4xx_StdPeriph_Driver/src/stm32f4xx_exti.c:179
 80004d2:	220c      	movs	r2, #12
 80004d4:	7142      	strb	r2, [r0, #5]
C:\Users\Filip\Eclipse\Template\Debug/../STM32F4xx_StdPeriph_Driver/src/stm32f4xx_exti.c:180
 80004d6:	7183      	strb	r3, [r0, #6]
 80004d8:	4770      	bx	lr
 80004da:	bf00      	nop

080004dc <EXTI_GenerateSWInterrupt>:
EXTI_GenerateSWInterrupt():
C:\Users\Filip\Eclipse\Template\Debug/../STM32F4xx_StdPeriph_Driver/src/stm32f4xx_exti.c:195
 80004dc:	4b02      	ldr	r3, [pc, #8]	; (80004e8 <EXTI_GenerateSWInterrupt+0xc>)
 80004de:	691a      	ldr	r2, [r3, #16]
 80004e0:	4310      	orrs	r0, r2
 80004e2:	6118      	str	r0, [r3, #16]
 80004e4:	4770      	bx	lr
 80004e6:	bf00      	nop
 80004e8:	40013c00 	.word	0x40013c00

080004ec <EXTI_GetFlagStatus>:
EXTI_GetFlagStatus():
C:\Users\Filip\Eclipse\Template\Debug/../STM32F4xx_StdPeriph_Driver/src/stm32f4xx_exti.c:226
 80004ec:	4b03      	ldr	r3, [pc, #12]	; (80004fc <EXTI_GetFlagStatus+0x10>)
 80004ee:	695b      	ldr	r3, [r3, #20]
 80004f0:	4018      	ands	r0, r3
C:\Users\Filip\Eclipse\Template\Debug/../STM32F4xx_StdPeriph_Driver/src/stm32f4xx_exti.c:235
 80004f2:	3000      	adds	r0, #0
 80004f4:	bf18      	it	ne
 80004f6:	2001      	movne	r0, #1
 80004f8:	4770      	bx	lr
 80004fa:	bf00      	nop
 80004fc:	40013c00 	.word	0x40013c00

08000500 <EXTI_ClearFlag>:
EXTI_ClearFlag():
C:\Users\Filip\Eclipse\Template\Debug/../STM32F4xx_StdPeriph_Driver/src/stm32f4xx_exti.c:248
 8000500:	4b01      	ldr	r3, [pc, #4]	; (8000508 <EXTI_ClearFlag+0x8>)
 8000502:	6158      	str	r0, [r3, #20]
 8000504:	4770      	bx	lr
 8000506:	bf00      	nop
 8000508:	40013c00 	.word	0x40013c00

0800050c <EXTI_GetITStatus>:
EXTI_GetITStatus():
C:\Users\Filip\Eclipse\Template\Debug/../STM32F4xx_StdPeriph_Driver/src/stm32f4xx_exti.c:264
 800050c:	4b05      	ldr	r3, [pc, #20]	; (8000524 <EXTI_GetITStatus+0x18>)
 800050e:	681a      	ldr	r2, [r3, #0]
 8000510:	4002      	ands	r2, r0
C:\Users\Filip\Eclipse\Template\Debug/../STM32F4xx_StdPeriph_Driver/src/stm32f4xx_exti.c:265
 8000512:	695b      	ldr	r3, [r3, #20]
 8000514:	4203      	tst	r3, r0
 8000516:	d003      	beq.n	8000520 <EXTI_GetITStatus+0x14>
C:\Users\Filip\Eclipse\Template\Debug/../STM32F4xx_StdPeriph_Driver/src/stm32f4xx_exti.c:271 (discriminator 1)
 8000518:	1c10      	adds	r0, r2, #0
 800051a:	bf18      	it	ne
 800051c:	2001      	movne	r0, #1
 800051e:	4770      	bx	lr
C:\Users\Filip\Eclipse\Template\Debug/../STM32F4xx_StdPeriph_Driver/src/stm32f4xx_exti.c:271
 8000520:	2000      	movs	r0, #0
C:\Users\Filip\Eclipse\Template\Debug/../STM32F4xx_StdPeriph_Driver/src/stm32f4xx_exti.c:274
 8000522:	4770      	bx	lr
 8000524:	40013c00 	.word	0x40013c00

08000528 <EXTI_ClearITPendingBit>:
EXTI_ClearITPendingBit():
C:\Users\Filip\Eclipse\Template\Debug/../STM32F4xx_StdPeriph_Driver/src/stm32f4xx_exti.c:287
 8000528:	4b01      	ldr	r3, [pc, #4]	; (8000530 <EXTI_ClearITPendingBit+0x8>)
 800052a:	6158      	str	r0, [r3, #20]
 800052c:	4770      	bx	lr
 800052e:	bf00      	nop
 8000530:	40013c00 	.word	0x40013c00

08000534 <GPIO_DeInit>:
GPIO_DeInit():
C:\Users\Filip\Eclipse\Template\Debug/../STM32F4xx_StdPeriph_Driver/src/stm32f4xx_gpio.c:121
 8000534:	b508      	push	{r3, lr}
C:\Users\Filip\Eclipse\Template\Debug/../STM32F4xx_StdPeriph_Driver/src/stm32f4xx_gpio.c:125
 8000536:	4b37      	ldr	r3, [pc, #220]	; (8000614 <GPIO_DeInit+0xe0>)
 8000538:	4298      	cmp	r0, r3
 800053a:	d108      	bne.n	800054e <GPIO_DeInit+0x1a>
C:\Users\Filip\Eclipse\Template\Debug/../STM32F4xx_StdPeriph_Driver/src/stm32f4xx_gpio.c:127
 800053c:	2001      	movs	r0, #1
 800053e:	4601      	mov	r1, r0
 8000540:	f000 fa9a 	bl	8000a78 <RCC_AHB1PeriphResetCmd>
C:\Users\Filip\Eclipse\Template\Debug/../STM32F4xx_StdPeriph_Driver/src/stm32f4xx_gpio.c:128
 8000544:	2001      	movs	r0, #1
 8000546:	2100      	movs	r1, #0
 8000548:	f000 fa96 	bl	8000a78 <RCC_AHB1PeriphResetCmd>
 800054c:	bd08      	pop	{r3, pc}
C:\Users\Filip\Eclipse\Template\Debug/../STM32F4xx_StdPeriph_Driver/src/stm32f4xx_gpio.c:130
 800054e:	4b32      	ldr	r3, [pc, #200]	; (8000618 <GPIO_DeInit+0xe4>)
 8000550:	4298      	cmp	r0, r3
 8000552:	d108      	bne.n	8000566 <GPIO_DeInit+0x32>
C:\Users\Filip\Eclipse\Template\Debug/../STM32F4xx_StdPeriph_Driver/src/stm32f4xx_gpio.c:132
 8000554:	2002      	movs	r0, #2
 8000556:	2101      	movs	r1, #1
 8000558:	f000 fa8e 	bl	8000a78 <RCC_AHB1PeriphResetCmd>
C:\Users\Filip\Eclipse\Template\Debug/../STM32F4xx_StdPeriph_Driver/src/stm32f4xx_gpio.c:133
 800055c:	2002      	movs	r0, #2
 800055e:	2100      	movs	r1, #0
 8000560:	f000 fa8a 	bl	8000a78 <RCC_AHB1PeriphResetCmd>
 8000564:	bd08      	pop	{r3, pc}
C:\Users\Filip\Eclipse\Template\Debug/../STM32F4xx_StdPeriph_Driver/src/stm32f4xx_gpio.c:135
 8000566:	4b2d      	ldr	r3, [pc, #180]	; (800061c <GPIO_DeInit+0xe8>)
 8000568:	4298      	cmp	r0, r3
 800056a:	d108      	bne.n	800057e <GPIO_DeInit+0x4a>
C:\Users\Filip\Eclipse\Template\Debug/../STM32F4xx_StdPeriph_Driver/src/stm32f4xx_gpio.c:137
 800056c:	2004      	movs	r0, #4
 800056e:	2101      	movs	r1, #1
 8000570:	f000 fa82 	bl	8000a78 <RCC_AHB1PeriphResetCmd>
C:\Users\Filip\Eclipse\Template\Debug/../STM32F4xx_StdPeriph_Driver/src/stm32f4xx_gpio.c:138
 8000574:	2004      	movs	r0, #4
 8000576:	2100      	movs	r1, #0
 8000578:	f000 fa7e 	bl	8000a78 <RCC_AHB1PeriphResetCmd>
 800057c:	bd08      	pop	{r3, pc}
C:\Users\Filip\Eclipse\Template\Debug/../STM32F4xx_StdPeriph_Driver/src/stm32f4xx_gpio.c:140
 800057e:	4b28      	ldr	r3, [pc, #160]	; (8000620 <GPIO_DeInit+0xec>)
 8000580:	4298      	cmp	r0, r3
 8000582:	d108      	bne.n	8000596 <GPIO_DeInit+0x62>
C:\Users\Filip\Eclipse\Template\Debug/../STM32F4xx_StdPeriph_Driver/src/stm32f4xx_gpio.c:142
 8000584:	2008      	movs	r0, #8
 8000586:	2101      	movs	r1, #1
 8000588:	f000 fa76 	bl	8000a78 <RCC_AHB1PeriphResetCmd>
C:\Users\Filip\Eclipse\Template\Debug/../STM32F4xx_StdPeriph_Driver/src/stm32f4xx_gpio.c:143
 800058c:	2008      	movs	r0, #8
 800058e:	2100      	movs	r1, #0
 8000590:	f000 fa72 	bl	8000a78 <RCC_AHB1PeriphResetCmd>
 8000594:	bd08      	pop	{r3, pc}
C:\Users\Filip\Eclipse\Template\Debug/../STM32F4xx_StdPeriph_Driver/src/stm32f4xx_gpio.c:145
 8000596:	4b23      	ldr	r3, [pc, #140]	; (8000624 <GPIO_DeInit+0xf0>)
 8000598:	4298      	cmp	r0, r3
 800059a:	d108      	bne.n	80005ae <GPIO_DeInit+0x7a>
C:\Users\Filip\Eclipse\Template\Debug/../STM32F4xx_StdPeriph_Driver/src/stm32f4xx_gpio.c:147
 800059c:	2010      	movs	r0, #16
 800059e:	2101      	movs	r1, #1
 80005a0:	f000 fa6a 	bl	8000a78 <RCC_AHB1PeriphResetCmd>
C:\Users\Filip\Eclipse\Template\Debug/../STM32F4xx_StdPeriph_Driver/src/stm32f4xx_gpio.c:148
 80005a4:	2010      	movs	r0, #16
 80005a6:	2100      	movs	r1, #0
 80005a8:	f000 fa66 	bl	8000a78 <RCC_AHB1PeriphResetCmd>
 80005ac:	bd08      	pop	{r3, pc}
C:\Users\Filip\Eclipse\Template\Debug/../STM32F4xx_StdPeriph_Driver/src/stm32f4xx_gpio.c:150
 80005ae:	4b1e      	ldr	r3, [pc, #120]	; (8000628 <GPIO_DeInit+0xf4>)
 80005b0:	4298      	cmp	r0, r3
 80005b2:	d108      	bne.n	80005c6 <GPIO_DeInit+0x92>
C:\Users\Filip\Eclipse\Template\Debug/../STM32F4xx_StdPeriph_Driver/src/stm32f4xx_gpio.c:152
 80005b4:	2020      	movs	r0, #32
 80005b6:	2101      	movs	r1, #1
 80005b8:	f000 fa5e 	bl	8000a78 <RCC_AHB1PeriphResetCmd>
C:\Users\Filip\Eclipse\Template\Debug/../STM32F4xx_StdPeriph_Driver/src/stm32f4xx_gpio.c:153
 80005bc:	2020      	movs	r0, #32
 80005be:	2100      	movs	r1, #0
 80005c0:	f000 fa5a 	bl	8000a78 <RCC_AHB1PeriphResetCmd>
 80005c4:	bd08      	pop	{r3, pc}
C:\Users\Filip\Eclipse\Template\Debug/../STM32F4xx_StdPeriph_Driver/src/stm32f4xx_gpio.c:155
 80005c6:	4b19      	ldr	r3, [pc, #100]	; (800062c <GPIO_DeInit+0xf8>)
 80005c8:	4298      	cmp	r0, r3
 80005ca:	d108      	bne.n	80005de <GPIO_DeInit+0xaa>
C:\Users\Filip\Eclipse\Template\Debug/../STM32F4xx_StdPeriph_Driver/src/stm32f4xx_gpio.c:157
 80005cc:	2040      	movs	r0, #64	; 0x40
 80005ce:	2101      	movs	r1, #1
 80005d0:	f000 fa52 	bl	8000a78 <RCC_AHB1PeriphResetCmd>
C:\Users\Filip\Eclipse\Template\Debug/../STM32F4xx_StdPeriph_Driver/src/stm32f4xx_gpio.c:158
 80005d4:	2040      	movs	r0, #64	; 0x40
 80005d6:	2100      	movs	r1, #0
 80005d8:	f000 fa4e 	bl	8000a78 <RCC_AHB1PeriphResetCmd>
 80005dc:	bd08      	pop	{r3, pc}
C:\Users\Filip\Eclipse\Template\Debug/../STM32F4xx_StdPeriph_Driver/src/stm32f4xx_gpio.c:160
 80005de:	4b14      	ldr	r3, [pc, #80]	; (8000630 <GPIO_DeInit+0xfc>)
 80005e0:	4298      	cmp	r0, r3
 80005e2:	d108      	bne.n	80005f6 <GPIO_DeInit+0xc2>
C:\Users\Filip\Eclipse\Template\Debug/../STM32F4xx_StdPeriph_Driver/src/stm32f4xx_gpio.c:162
 80005e4:	2080      	movs	r0, #128	; 0x80
 80005e6:	2101      	movs	r1, #1
 80005e8:	f000 fa46 	bl	8000a78 <RCC_AHB1PeriphResetCmd>
C:\Users\Filip\Eclipse\Template\Debug/../STM32F4xx_StdPeriph_Driver/src/stm32f4xx_gpio.c:163
 80005ec:	2080      	movs	r0, #128	; 0x80
 80005ee:	2100      	movs	r1, #0
 80005f0:	f000 fa42 	bl	8000a78 <RCC_AHB1PeriphResetCmd>
 80005f4:	bd08      	pop	{r3, pc}
C:\Users\Filip\Eclipse\Template\Debug/../STM32F4xx_StdPeriph_Driver/src/stm32f4xx_gpio.c:167
 80005f6:	4b0f      	ldr	r3, [pc, #60]	; (8000634 <GPIO_DeInit+0x100>)
 80005f8:	4298      	cmp	r0, r3
 80005fa:	d109      	bne.n	8000610 <GPIO_DeInit+0xdc>
C:\Users\Filip\Eclipse\Template\Debug/../STM32F4xx_StdPeriph_Driver/src/stm32f4xx_gpio.c:169
 80005fc:	f44f 7080 	mov.w	r0, #256	; 0x100
 8000600:	2101      	movs	r1, #1
 8000602:	f000 fa39 	bl	8000a78 <RCC_AHB1PeriphResetCmd>
C:\Users\Filip\Eclipse\Template\Debug/../STM32F4xx_StdPeriph_Driver/src/stm32f4xx_gpio.c:170
 8000606:	f44f 7080 	mov.w	r0, #256	; 0x100
 800060a:	2100      	movs	r1, #0
 800060c:	f000 fa34 	bl	8000a78 <RCC_AHB1PeriphResetCmd>
 8000610:	bd08      	pop	{r3, pc}
 8000612:	bf00      	nop
 8000614:	40020000 	.word	0x40020000
 8000618:	40020400 	.word	0x40020400
 800061c:	40020800 	.word	0x40020800
 8000620:	40020c00 	.word	0x40020c00
 8000624:	40021000 	.word	0x40021000
 8000628:	40021400 	.word	0x40021400
 800062c:	40021800 	.word	0x40021800
 8000630:	40021c00 	.word	0x40021c00
 8000634:	40022000 	.word	0x40022000

08000638 <GPIO_Init>:
GPIO_Init():
C:\Users\Filip\Eclipse\Template\Debug/../STM32F4xx_StdPeriph_Driver/src/stm32f4xx_gpio.c:183
 8000638:	b4f0      	push	{r4, r5, r6, r7}
C:\Users\Filip\Eclipse\Template\Debug/../STM32F4xx_StdPeriph_Driver/src/stm32f4xx_gpio.c:194
 800063a:	2300      	movs	r3, #0
C:\Users\Filip\Eclipse\Template\Debug/../STM32F4xx_StdPeriph_Driver/src/stm32f4xx_gpio.c:196
 800063c:	2501      	movs	r5, #1
C:\Users\Filip\Eclipse\Template\Debug/../STM32F4xx_StdPeriph_Driver/src/stm32f4xx_gpio.c:202
 800063e:	2603      	movs	r6, #3
C:\Users\Filip\Eclipse\Template\Debug/../STM32F4xx_StdPeriph_Driver/src/stm32f4xx_gpio.c:194
 8000640:	e03e      	b.n	80006c0 <GPIO_Init+0x88>
C:\Users\Filip\Eclipse\Template\Debug/../STM32F4xx_StdPeriph_Driver/src/stm32f4xx_gpio.c:196
 8000642:	fa05 f203 	lsl.w	r2, r5, r3
C:\Users\Filip\Eclipse\Template\Debug/../STM32F4xx_StdPeriph_Driver/src/stm32f4xx_gpio.c:198
 8000646:	680c      	ldr	r4, [r1, #0]
 8000648:	4014      	ands	r4, r2
C:\Users\Filip\Eclipse\Template\Debug/../STM32F4xx_StdPeriph_Driver/src/stm32f4xx_gpio.c:200
 800064a:	4294      	cmp	r4, r2
 800064c:	d137      	bne.n	80006be <GPIO_Init+0x86>
C:\Users\Filip\Eclipse\Template\Debug/../STM32F4xx_StdPeriph_Driver/src/stm32f4xx_gpio.c:202
 800064e:	6807      	ldr	r7, [r0, #0]
 8000650:	005a      	lsls	r2, r3, #1
 8000652:	fa06 f402 	lsl.w	r4, r6, r2
 8000656:	43e4      	mvns	r4, r4
 8000658:	4027      	ands	r7, r4
 800065a:	6007      	str	r7, [r0, #0]
C:\Users\Filip\Eclipse\Template\Debug/../STM32F4xx_StdPeriph_Driver/src/stm32f4xx_gpio.c:203
 800065c:	f8d0 c000 	ldr.w	ip, [r0]
 8000660:	790f      	ldrb	r7, [r1, #4]
 8000662:	4097      	lsls	r7, r2
 8000664:	ea4c 0707 	orr.w	r7, ip, r7
 8000668:	6007      	str	r7, [r0, #0]
C:\Users\Filip\Eclipse\Template\Debug/../STM32F4xx_StdPeriph_Driver/src/stm32f4xx_gpio.c:205
 800066a:	790f      	ldrb	r7, [r1, #4]
 800066c:	3f01      	subs	r7, #1
 800066e:	b2ff      	uxtb	r7, r7
 8000670:	2f01      	cmp	r7, #1
 8000672:	d816      	bhi.n	80006a2 <GPIO_Init+0x6a>
C:\Users\Filip\Eclipse\Template\Debug/../STM32F4xx_StdPeriph_Driver/src/stm32f4xx_gpio.c:211
 8000674:	6887      	ldr	r7, [r0, #8]
 8000676:	403c      	ands	r4, r7
 8000678:	6084      	str	r4, [r0, #8]
C:\Users\Filip\Eclipse\Template\Debug/../STM32F4xx_StdPeriph_Driver/src/stm32f4xx_gpio.c:212
 800067a:	6887      	ldr	r7, [r0, #8]
 800067c:	794c      	ldrb	r4, [r1, #5]
 800067e:	4094      	lsls	r4, r2
 8000680:	433c      	orrs	r4, r7
 8000682:	6084      	str	r4, [r0, #8]
C:\Users\Filip\Eclipse\Template\Debug/../STM32F4xx_StdPeriph_Driver/src/stm32f4xx_gpio.c:218
 8000684:	6847      	ldr	r7, [r0, #4]
 8000686:	b29c      	uxth	r4, r3
 8000688:	fa05 fc04 	lsl.w	ip, r5, r4
 800068c:	ea27 070c 	bic.w	r7, r7, ip
 8000690:	6047      	str	r7, [r0, #4]
C:\Users\Filip\Eclipse\Template\Debug/../STM32F4xx_StdPeriph_Driver/src/stm32f4xx_gpio.c:219
 8000692:	6847      	ldr	r7, [r0, #4]
 8000694:	f891 c006 	ldrb.w	ip, [r1, #6]
 8000698:	fa0c f404 	lsl.w	r4, ip, r4
 800069c:	b2a4      	uxth	r4, r4
 800069e:	433c      	orrs	r4, r7
 80006a0:	6044      	str	r4, [r0, #4]
C:\Users\Filip\Eclipse\Template\Debug/../STM32F4xx_StdPeriph_Driver/src/stm32f4xx_gpio.c:223
 80006a2:	68c7      	ldr	r7, [r0, #12]
 80006a4:	b29c      	uxth	r4, r3
 80006a6:	0064      	lsls	r4, r4, #1
 80006a8:	fa06 f404 	lsl.w	r4, r6, r4
 80006ac:	ea27 0404 	bic.w	r4, r7, r4
 80006b0:	60c4      	str	r4, [r0, #12]
C:\Users\Filip\Eclipse\Template\Debug/../STM32F4xx_StdPeriph_Driver/src/stm32f4xx_gpio.c:224
 80006b2:	68c4      	ldr	r4, [r0, #12]
 80006b4:	79cf      	ldrb	r7, [r1, #7]
 80006b6:	fa07 f202 	lsl.w	r2, r7, r2
 80006ba:	4322      	orrs	r2, r4
 80006bc:	60c2      	str	r2, [r0, #12]
C:\Users\Filip\Eclipse\Template\Debug/../STM32F4xx_StdPeriph_Driver/src/stm32f4xx_gpio.c:194
 80006be:	3301      	adds	r3, #1
C:\Users\Filip\Eclipse\Template\Debug/../STM32F4xx_StdPeriph_Driver/src/stm32f4xx_gpio.c:194 (discriminator 1)
 80006c0:	2b0f      	cmp	r3, #15
 80006c2:	d9be      	bls.n	8000642 <GPIO_Init+0xa>
C:\Users\Filip\Eclipse\Template\Debug/../STM32F4xx_StdPeriph_Driver/src/stm32f4xx_gpio.c:227
 80006c4:	bcf0      	pop	{r4, r5, r6, r7}
 80006c6:	4770      	bx	lr

080006c8 <GPIO_StructInit>:
GPIO_StructInit():
C:\Users\Filip\Eclipse\Template\Debug/../STM32F4xx_StdPeriph_Driver/src/stm32f4xx_gpio.c:237
 80006c8:	f64f 73ff 	movw	r3, #65535	; 0xffff
 80006cc:	6003      	str	r3, [r0, #0]
C:\Users\Filip\Eclipse\Template\Debug/../STM32F4xx_StdPeriph_Driver/src/stm32f4xx_gpio.c:238
 80006ce:	2300      	movs	r3, #0
 80006d0:	7103      	strb	r3, [r0, #4]
C:\Users\Filip\Eclipse\Template\Debug/../STM32F4xx_StdPeriph_Driver/src/stm32f4xx_gpio.c:239
 80006d2:	7143      	strb	r3, [r0, #5]
C:\Users\Filip\Eclipse\Template\Debug/../STM32F4xx_StdPeriph_Driver/src/stm32f4xx_gpio.c:240
 80006d4:	7183      	strb	r3, [r0, #6]
C:\Users\Filip\Eclipse\Template\Debug/../STM32F4xx_StdPeriph_Driver/src/stm32f4xx_gpio.c:241
 80006d6:	71c3      	strb	r3, [r0, #7]
 80006d8:	4770      	bx	lr
 80006da:	bf00      	nop

080006dc <GPIO_PinLockConfig>:
GPIO_PinLockConfig():
C:\Users\Filip\Eclipse\Template\Debug/../STM32F4xx_StdPeriph_Driver/src/stm32f4xx_gpio.c:256
 80006dc:	b082      	sub	sp, #8
C:\Users\Filip\Eclipse\Template\Debug/../STM32F4xx_StdPeriph_Driver/src/stm32f4xx_gpio.c:257
 80006de:	f44f 3380 	mov.w	r3, #65536	; 0x10000
 80006e2:	9301      	str	r3, [sp, #4]
C:\Users\Filip\Eclipse\Template\Debug/../STM32F4xx_StdPeriph_Driver/src/stm32f4xx_gpio.c:263
 80006e4:	9b01      	ldr	r3, [sp, #4]
 80006e6:	430b      	orrs	r3, r1
 80006e8:	9301      	str	r3, [sp, #4]
C:\Users\Filip\Eclipse\Template\Debug/../STM32F4xx_StdPeriph_Driver/src/stm32f4xx_gpio.c:265
 80006ea:	9b01      	ldr	r3, [sp, #4]
 80006ec:	61c3      	str	r3, [r0, #28]
C:\Users\Filip\Eclipse\Template\Debug/../STM32F4xx_StdPeriph_Driver/src/stm32f4xx_gpio.c:267
 80006ee:	61c1      	str	r1, [r0, #28]
C:\Users\Filip\Eclipse\Template\Debug/../STM32F4xx_StdPeriph_Driver/src/stm32f4xx_gpio.c:269
 80006f0:	9b01      	ldr	r3, [sp, #4]
 80006f2:	61c3      	str	r3, [r0, #28]
C:\Users\Filip\Eclipse\Template\Debug/../STM32F4xx_StdPeriph_Driver/src/stm32f4xx_gpio.c:271
 80006f4:	69c3      	ldr	r3, [r0, #28]
 80006f6:	9301      	str	r3, [sp, #4]
C:\Users\Filip\Eclipse\Template\Debug/../STM32F4xx_StdPeriph_Driver/src/stm32f4xx_gpio.c:273
 80006f8:	69c3      	ldr	r3, [r0, #28]
 80006fa:	9301      	str	r3, [sp, #4]
C:\Users\Filip\Eclipse\Template\Debug/../STM32F4xx_StdPeriph_Driver/src/stm32f4xx_gpio.c:274
 80006fc:	b002      	add	sp, #8
 80006fe:	4770      	bx	lr

08000700 <GPIO_ReadInputDataBit>:
GPIO_ReadInputDataBit():
C:\Users\Filip\Eclipse\Template\Debug/../STM32F4xx_StdPeriph_Driver/src/stm32f4xx_gpio.c:307
 8000700:	6900      	ldr	r0, [r0, #16]
 8000702:	4008      	ands	r0, r1
C:\Users\Filip\Eclipse\Template\Debug/../STM32F4xx_StdPeriph_Driver/src/stm32f4xx_gpio.c:316
 8000704:	3000      	adds	r0, #0
 8000706:	bf18      	it	ne
 8000708:	2001      	movne	r0, #1
 800070a:	4770      	bx	lr

0800070c <GPIO_ReadInputData>:
GPIO_ReadInputData():
C:\Users\Filip\Eclipse\Template\Debug/../STM32F4xx_StdPeriph_Driver/src/stm32f4xx_gpio.c:328
 800070c:	6900      	ldr	r0, [r0, #16]
C:\Users\Filip\Eclipse\Template\Debug/../STM32F4xx_StdPeriph_Driver/src/stm32f4xx_gpio.c:329
 800070e:	b280      	uxth	r0, r0
 8000710:	4770      	bx	lr
 8000712:	bf00      	nop

08000714 <GPIO_ReadOutputDataBit>:
GPIO_ReadOutputDataBit():
C:\Users\Filip\Eclipse\Template\Debug/../STM32F4xx_StdPeriph_Driver/src/stm32f4xx_gpio.c:346
 8000714:	6940      	ldr	r0, [r0, #20]
 8000716:	4008      	ands	r0, r1
C:\Users\Filip\Eclipse\Template\Debug/../STM32F4xx_StdPeriph_Driver/src/stm32f4xx_gpio.c:355
 8000718:	3000      	adds	r0, #0
 800071a:	bf18      	it	ne
 800071c:	2001      	movne	r0, #1
 800071e:	4770      	bx	lr

08000720 <GPIO_ReadOutputData>:
GPIO_ReadOutputData():
C:\Users\Filip\Eclipse\Template\Debug/../STM32F4xx_StdPeriph_Driver/src/stm32f4xx_gpio.c:367
 8000720:	6940      	ldr	r0, [r0, #20]
C:\Users\Filip\Eclipse\Template\Debug/../STM32F4xx_StdPeriph_Driver/src/stm32f4xx_gpio.c:368
 8000722:	b280      	uxth	r0, r0
 8000724:	4770      	bx	lr
 8000726:	bf00      	nop

08000728 <GPIO_SetBits>:
GPIO_SetBits():
C:\Users\Filip\Eclipse\Template\Debug/../STM32F4xx_StdPeriph_Driver/src/stm32f4xx_gpio.c:386
 8000728:	8301      	strh	r1, [r0, #24]
 800072a:	4770      	bx	lr

0800072c <GPIO_ResetBits>:
GPIO_ResetBits():
C:\Users\Filip\Eclipse\Template\Debug/../STM32F4xx_StdPeriph_Driver/src/stm32f4xx_gpio.c:405
 800072c:	8341      	strh	r1, [r0, #26]
 800072e:	4770      	bx	lr

08000730 <GPIO_WriteBit>:
GPIO_WriteBit():
C:\Users\Filip\Eclipse\Template\Debug/../STM32F4xx_StdPeriph_Driver/src/stm32f4xx_gpio.c:426
 8000730:	b10a      	cbz	r2, 8000736 <GPIO_WriteBit+0x6>
C:\Users\Filip\Eclipse\Template\Debug/../STM32F4xx_StdPeriph_Driver/src/stm32f4xx_gpio.c:428
 8000732:	8301      	strh	r1, [r0, #24]
 8000734:	4770      	bx	lr
C:\Users\Filip\Eclipse\Template\Debug/../STM32F4xx_StdPeriph_Driver/src/stm32f4xx_gpio.c:432
 8000736:	8341      	strh	r1, [r0, #26]
 8000738:	4770      	bx	lr
 800073a:	bf00      	nop

0800073c <GPIO_Write>:
GPIO_Write():
C:\Users\Filip\Eclipse\Template\Debug/../STM32F4xx_StdPeriph_Driver/src/stm32f4xx_gpio.c:447
 800073c:	6141      	str	r1, [r0, #20]
 800073e:	4770      	bx	lr

08000740 <GPIO_ToggleBits>:
GPIO_ToggleBits():
C:\Users\Filip\Eclipse\Template\Debug/../STM32F4xx_StdPeriph_Driver/src/stm32f4xx_gpio.c:461
 8000740:	6943      	ldr	r3, [r0, #20]
 8000742:	4059      	eors	r1, r3
 8000744:	6141      	str	r1, [r0, #20]
 8000746:	4770      	bx	lr

08000748 <GPIO_PinAFConfig>:
GPIO_PinAFConfig():
C:\Users\Filip\Eclipse\Template\Debug/../STM32F4xx_StdPeriph_Driver/src/stm32f4xx_gpio.c:530
 8000748:	b430      	push	{r4, r5}
C:\Users\Filip\Eclipse\Template\Debug/../STM32F4xx_StdPeriph_Driver/src/stm32f4xx_gpio.c:539
 800074a:	f001 0307 	and.w	r3, r1, #7
 800074e:	009b      	lsls	r3, r3, #2
 8000750:	409a      	lsls	r2, r3
C:\Users\Filip\Eclipse\Template\Debug/../STM32F4xx_StdPeriph_Driver/src/stm32f4xx_gpio.c:540
 8000752:	08c9      	lsrs	r1, r1, #3
 8000754:	3108      	adds	r1, #8
 8000756:	f850 4021 	ldr.w	r4, [r0, r1, lsl #2]
 800075a:	250f      	movs	r5, #15
 800075c:	fa05 f303 	lsl.w	r3, r5, r3
 8000760:	ea24 0303 	bic.w	r3, r4, r3
 8000764:	f840 3021 	str.w	r3, [r0, r1, lsl #2]
C:\Users\Filip\Eclipse\Template\Debug/../STM32F4xx_StdPeriph_Driver/src/stm32f4xx_gpio.c:541
 8000768:	f850 3021 	ldr.w	r3, [r0, r1, lsl #2]
 800076c:	431a      	orrs	r2, r3
C:\Users\Filip\Eclipse\Template\Debug/../STM32F4xx_StdPeriph_Driver/src/stm32f4xx_gpio.c:542
 800076e:	f840 2021 	str.w	r2, [r0, r1, lsl #2]
C:\Users\Filip\Eclipse\Template\Debug/../STM32F4xx_StdPeriph_Driver/src/stm32f4xx_gpio.c:543
 8000772:	bc30      	pop	{r4, r5}
 8000774:	4770      	bx	lr
 8000776:	bf00      	nop

08000778 <RCC_DeInit>:
RCC_DeInit():
C:\Users\Filip\Eclipse\Template\Debug/../STM32F4xx_StdPeriph_Driver/src/stm32f4xx_rcc.c:199
 8000778:	4b0a      	ldr	r3, [pc, #40]	; (80007a4 <RCC_DeInit+0x2c>)
 800077a:	681a      	ldr	r2, [r3, #0]
 800077c:	f042 0201 	orr.w	r2, r2, #1
 8000780:	601a      	str	r2, [r3, #0]
C:\Users\Filip\Eclipse\Template\Debug/../STM32F4xx_StdPeriph_Driver/src/stm32f4xx_rcc.c:202
 8000782:	2100      	movs	r1, #0
 8000784:	6099      	str	r1, [r3, #8]
C:\Users\Filip\Eclipse\Template\Debug/../STM32F4xx_StdPeriph_Driver/src/stm32f4xx_rcc.c:205
 8000786:	681a      	ldr	r2, [r3, #0]
 8000788:	f022 7284 	bic.w	r2, r2, #17301504	; 0x1080000
 800078c:	f422 3280 	bic.w	r2, r2, #65536	; 0x10000
 8000790:	601a      	str	r2, [r3, #0]
C:\Users\Filip\Eclipse\Template\Debug/../STM32F4xx_StdPeriph_Driver/src/stm32f4xx_rcc.c:208
 8000792:	4a05      	ldr	r2, [pc, #20]	; (80007a8 <RCC_DeInit+0x30>)
 8000794:	605a      	str	r2, [r3, #4]
C:\Users\Filip\Eclipse\Template\Debug/../STM32F4xx_StdPeriph_Driver/src/stm32f4xx_rcc.c:211
 8000796:	681a      	ldr	r2, [r3, #0]
 8000798:	f422 2280 	bic.w	r2, r2, #262144	; 0x40000
 800079c:	601a      	str	r2, [r3, #0]
C:\Users\Filip\Eclipse\Template\Debug/../STM32F4xx_StdPeriph_Driver/src/stm32f4xx_rcc.c:214
 800079e:	60d9      	str	r1, [r3, #12]
 80007a0:	4770      	bx	lr
 80007a2:	bf00      	nop
 80007a4:	40023800 	.word	0x40023800
 80007a8:	24003010 	.word	0x24003010

080007ac <RCC_HSEConfig>:
RCC_HSEConfig():
C:\Users\Filip\Eclipse\Template\Debug/../STM32F4xx_StdPeriph_Driver/src/stm32f4xx_rcc.c:243
 80007ac:	4b02      	ldr	r3, [pc, #8]	; (80007b8 <RCC_HSEConfig+0xc>)
 80007ae:	2200      	movs	r2, #0
 80007b0:	701a      	strb	r2, [r3, #0]
C:\Users\Filip\Eclipse\Template\Debug/../STM32F4xx_StdPeriph_Driver/src/stm32f4xx_rcc.c:246
 80007b2:	7018      	strb	r0, [r3, #0]
 80007b4:	4770      	bx	lr
 80007b6:	bf00      	nop
 80007b8:	40023802 	.word	0x40023802

080007bc <RCC_AdjustHSICalibrationValue>:
RCC_AdjustHSICalibrationValue():
C:\Users\Filip\Eclipse\Template\Debug/../STM32F4xx_StdPeriph_Driver/src/stm32f4xx_rcc.c:298
 80007bc:	4b03      	ldr	r3, [pc, #12]	; (80007cc <RCC_AdjustHSICalibrationValue+0x10>)
 80007be:	681a      	ldr	r2, [r3, #0]
C:\Users\Filip\Eclipse\Template\Debug/../STM32F4xx_StdPeriph_Driver/src/stm32f4xx_rcc.c:301
 80007c0:	f022 02f8 	bic.w	r2, r2, #248	; 0xf8
C:\Users\Filip\Eclipse\Template\Debug/../STM32F4xx_StdPeriph_Driver/src/stm32f4xx_rcc.c:304
 80007c4:	ea42 00c0 	orr.w	r0, r2, r0, lsl #3
C:\Users\Filip\Eclipse\Template\Debug/../STM32F4xx_StdPeriph_Driver/src/stm32f4xx_rcc.c:307
 80007c8:	6018      	str	r0, [r3, #0]
 80007ca:	4770      	bx	lr
 80007cc:	40023800 	.word	0x40023800

080007d0 <RCC_HSICmd>:
RCC_HSICmd():
C:\Users\Filip\Eclipse\Template\Debug/../STM32F4xx_StdPeriph_Driver/src/stm32f4xx_rcc.c:333
 80007d0:	4b01      	ldr	r3, [pc, #4]	; (80007d8 <RCC_HSICmd+0x8>)
 80007d2:	6018      	str	r0, [r3, #0]
 80007d4:	4770      	bx	lr
 80007d6:	bf00      	nop
 80007d8:	42470000 	.word	0x42470000

080007dc <RCC_LSEConfig>:
RCC_LSEConfig():
C:\Users\Filip\Eclipse\Template\Debug/../STM32F4xx_StdPeriph_Driver/src/stm32f4xx_rcc.c:360
 80007dc:	4b08      	ldr	r3, [pc, #32]	; (8000800 <RCC_LSEConfig+0x24>)
 80007de:	2200      	movs	r2, #0
 80007e0:	701a      	strb	r2, [r3, #0]
C:\Users\Filip\Eclipse\Template\Debug/../STM32F4xx_StdPeriph_Driver/src/stm32f4xx_rcc.c:363
 80007e2:	701a      	strb	r2, [r3, #0]
C:\Users\Filip\Eclipse\Template\Debug/../STM32F4xx_StdPeriph_Driver/src/stm32f4xx_rcc.c:366
 80007e4:	2801      	cmp	r0, #1
 80007e6:	d002      	beq.n	80007ee <RCC_LSEConfig+0x12>
 80007e8:	2804      	cmp	r0, #4
 80007ea:	d004      	beq.n	80007f6 <RCC_LSEConfig+0x1a>
 80007ec:	4770      	bx	lr
C:\Users\Filip\Eclipse\Template\Debug/../STM32F4xx_StdPeriph_Driver/src/stm32f4xx_rcc.c:370
 80007ee:	2201      	movs	r2, #1
 80007f0:	4b03      	ldr	r3, [pc, #12]	; (8000800 <RCC_LSEConfig+0x24>)
 80007f2:	701a      	strb	r2, [r3, #0]
C:\Users\Filip\Eclipse\Template\Debug/../STM32F4xx_StdPeriph_Driver/src/stm32f4xx_rcc.c:371
 80007f4:	4770      	bx	lr
C:\Users\Filip\Eclipse\Template\Debug/../STM32F4xx_StdPeriph_Driver/src/stm32f4xx_rcc.c:374
 80007f6:	2205      	movs	r2, #5
 80007f8:	4b01      	ldr	r3, [pc, #4]	; (8000800 <RCC_LSEConfig+0x24>)
 80007fa:	701a      	strb	r2, [r3, #0]
 80007fc:	4770      	bx	lr
 80007fe:	bf00      	nop
 8000800:	40023870 	.word	0x40023870

08000804 <RCC_LSICmd>:
RCC_LSICmd():
C:\Users\Filip\Eclipse\Template\Debug/../STM32F4xx_StdPeriph_Driver/src/stm32f4xx_rcc.c:398
 8000804:	4b01      	ldr	r3, [pc, #4]	; (800080c <RCC_LSICmd+0x8>)
 8000806:	6018      	str	r0, [r3, #0]
 8000808:	4770      	bx	lr
 800080a:	bf00      	nop
 800080c:	42470e80 	.word	0x42470e80

08000810 <RCC_PLLConfig>:
RCC_PLLConfig():
C:\Users\Filip\Eclipse\Template\Debug/../STM32F4xx_StdPeriph_Driver/src/stm32f4xx_rcc.c:445
 8000810:	ea41 1282 	orr.w	r2, r1, r2, lsl #6
 8000814:	085b      	lsrs	r3, r3, #1
 8000816:	3b01      	subs	r3, #1
 8000818:	ea42 4203 	orr.w	r2, r2, r3, lsl #16
 800081c:	4310      	orrs	r0, r2
 800081e:	9b00      	ldr	r3, [sp, #0]
 8000820:	ea40 6303 	orr.w	r3, r0, r3, lsl #24
 8000824:	4901      	ldr	r1, [pc, #4]	; (800082c <RCC_PLLConfig+0x1c>)
 8000826:	604b      	str	r3, [r1, #4]
 8000828:	4770      	bx	lr
 800082a:	bf00      	nop
 800082c:	40023800 	.word	0x40023800

08000830 <RCC_PLLCmd>:
RCC_PLLCmd():
C:\Users\Filip\Eclipse\Template\Debug/../STM32F4xx_StdPeriph_Driver/src/stm32f4xx_rcc.c:463
 8000830:	4b01      	ldr	r3, [pc, #4]	; (8000838 <RCC_PLLCmd+0x8>)
 8000832:	6018      	str	r0, [r3, #0]
 8000834:	4770      	bx	lr
 8000836:	bf00      	nop
 8000838:	42470060 	.word	0x42470060

0800083c <RCC_PLLI2SConfig>:
RCC_PLLI2SConfig():
C:\Users\Filip\Eclipse\Template\Debug/../STM32F4xx_StdPeriph_Driver/src/stm32f4xx_rcc.c:491
 800083c:	0709      	lsls	r1, r1, #28
 800083e:	ea41 1080 	orr.w	r0, r1, r0, lsl #6
 8000842:	4b02      	ldr	r3, [pc, #8]	; (800084c <RCC_PLLI2SConfig+0x10>)
 8000844:	f8c3 0084 	str.w	r0, [r3, #132]	; 0x84
 8000848:	4770      	bx	lr
 800084a:	bf00      	nop
 800084c:	40023800 	.word	0x40023800

08000850 <RCC_PLLI2SCmd>:
RCC_PLLI2SCmd():
C:\Users\Filip\Eclipse\Template\Debug/../STM32F4xx_StdPeriph_Driver/src/stm32f4xx_rcc.c:504
 8000850:	4b01      	ldr	r3, [pc, #4]	; (8000858 <RCC_PLLI2SCmd+0x8>)
 8000852:	6018      	str	r0, [r3, #0]
 8000854:	4770      	bx	lr
 8000856:	bf00      	nop
 8000858:	42470068 	.word	0x42470068

0800085c <RCC_ClockSecuritySystemCmd>:
RCC_ClockSecuritySystemCmd():
C:\Users\Filip\Eclipse\Template\Debug/../STM32F4xx_StdPeriph_Driver/src/stm32f4xx_rcc.c:522
 800085c:	4b01      	ldr	r3, [pc, #4]	; (8000864 <RCC_ClockSecuritySystemCmd+0x8>)
 800085e:	6018      	str	r0, [r3, #0]
 8000860:	4770      	bx	lr
 8000862:	bf00      	nop
 8000864:	4247004c 	.word	0x4247004c

08000868 <RCC_MCO1Config>:
RCC_MCO1Config():
C:\Users\Filip\Eclipse\Template\Debug/../STM32F4xx_StdPeriph_Driver/src/stm32f4xx_rcc.c:551
 8000868:	4b03      	ldr	r3, [pc, #12]	; (8000878 <RCC_MCO1Config+0x10>)
 800086a:	689a      	ldr	r2, [r3, #8]
C:\Users\Filip\Eclipse\Template\Debug/../STM32F4xx_StdPeriph_Driver/src/stm32f4xx_rcc.c:554
 800086c:	f022 62ec 	bic.w	r2, r2, #123731968	; 0x7600000
C:\Users\Filip\Eclipse\Template\Debug/../STM32F4xx_StdPeriph_Driver/src/stm32f4xx_rcc.c:557
 8000870:	4301      	orrs	r1, r0
 8000872:	430a      	orrs	r2, r1
C:\Users\Filip\Eclipse\Template\Debug/../STM32F4xx_StdPeriph_Driver/src/stm32f4xx_rcc.c:560
 8000874:	609a      	str	r2, [r3, #8]
 8000876:	4770      	bx	lr
 8000878:	40023800 	.word	0x40023800

0800087c <RCC_MCO2Config>:
RCC_MCO2Config():
C:\Users\Filip\Eclipse\Template\Debug/../STM32F4xx_StdPeriph_Driver/src/stm32f4xx_rcc.c:589
 800087c:	4b03      	ldr	r3, [pc, #12]	; (800088c <RCC_MCO2Config+0x10>)
 800087e:	689a      	ldr	r2, [r3, #8]
C:\Users\Filip\Eclipse\Template\Debug/../STM32F4xx_StdPeriph_Driver/src/stm32f4xx_rcc.c:592
 8000880:	f022 4278 	bic.w	r2, r2, #4160749568	; 0xf8000000
C:\Users\Filip\Eclipse\Template\Debug/../STM32F4xx_StdPeriph_Driver/src/stm32f4xx_rcc.c:595
 8000884:	4301      	orrs	r1, r0
 8000886:	430a      	orrs	r2, r1
C:\Users\Filip\Eclipse\Template\Debug/../STM32F4xx_StdPeriph_Driver/src/stm32f4xx_rcc.c:598
 8000888:	609a      	str	r2, [r3, #8]
 800088a:	4770      	bx	lr
 800088c:	40023800 	.word	0x40023800

08000890 <RCC_SYSCLKConfig>:
RCC_SYSCLKConfig():
C:\Users\Filip\Eclipse\Template\Debug/../STM32F4xx_StdPeriph_Driver/src/stm32f4xx_rcc.c:694
 8000890:	4b03      	ldr	r3, [pc, #12]	; (80008a0 <RCC_SYSCLKConfig+0x10>)
 8000892:	689a      	ldr	r2, [r3, #8]
C:\Users\Filip\Eclipse\Template\Debug/../STM32F4xx_StdPeriph_Driver/src/stm32f4xx_rcc.c:697
 8000894:	f022 0203 	bic.w	r2, r2, #3
C:\Users\Filip\Eclipse\Template\Debug/../STM32F4xx_StdPeriph_Driver/src/stm32f4xx_rcc.c:700
 8000898:	4310      	orrs	r0, r2
C:\Users\Filip\Eclipse\Template\Debug/../STM32F4xx_StdPeriph_Driver/src/stm32f4xx_rcc.c:703
 800089a:	6098      	str	r0, [r3, #8]
 800089c:	4770      	bx	lr
 800089e:	bf00      	nop
 80008a0:	40023800 	.word	0x40023800

080008a4 <RCC_GetSYSCLKSource>:
RCC_GetSYSCLKSource():
C:\Users\Filip\Eclipse\Template\Debug/../STM32F4xx_StdPeriph_Driver/src/stm32f4xx_rcc.c:717
 80008a4:	4b02      	ldr	r3, [pc, #8]	; (80008b0 <RCC_GetSYSCLKSource+0xc>)
 80008a6:	6898      	ldr	r0, [r3, #8]
C:\Users\Filip\Eclipse\Template\Debug/../STM32F4xx_StdPeriph_Driver/src/stm32f4xx_rcc.c:718
 80008a8:	f000 000c 	and.w	r0, r0, #12
 80008ac:	4770      	bx	lr
 80008ae:	bf00      	nop
 80008b0:	40023800 	.word	0x40023800

080008b4 <RCC_HCLKConfig>:
RCC_HCLKConfig():
C:\Users\Filip\Eclipse\Template\Debug/../STM32F4xx_StdPeriph_Driver/src/stm32f4xx_rcc.c:747
 80008b4:	4b03      	ldr	r3, [pc, #12]	; (80008c4 <RCC_HCLKConfig+0x10>)
 80008b6:	689a      	ldr	r2, [r3, #8]
C:\Users\Filip\Eclipse\Template\Debug/../STM32F4xx_StdPeriph_Driver/src/stm32f4xx_rcc.c:750
 80008b8:	f022 02f0 	bic.w	r2, r2, #240	; 0xf0
C:\Users\Filip\Eclipse\Template\Debug/../STM32F4xx_StdPeriph_Driver/src/stm32f4xx_rcc.c:753
 80008bc:	4310      	orrs	r0, r2
C:\Users\Filip\Eclipse\Template\Debug/../STM32F4xx_StdPeriph_Driver/src/stm32f4xx_rcc.c:756
 80008be:	6098      	str	r0, [r3, #8]
 80008c0:	4770      	bx	lr
 80008c2:	bf00      	nop
 80008c4:	40023800 	.word	0x40023800

080008c8 <RCC_PCLK1Config>:
RCC_PCLK1Config():
C:\Users\Filip\Eclipse\Template\Debug/../STM32F4xx_StdPeriph_Driver/src/stm32f4xx_rcc.c:779
 80008c8:	4b03      	ldr	r3, [pc, #12]	; (80008d8 <RCC_PCLK1Config+0x10>)
 80008ca:	689a      	ldr	r2, [r3, #8]
C:\Users\Filip\Eclipse\Template\Debug/../STM32F4xx_StdPeriph_Driver/src/stm32f4xx_rcc.c:782
 80008cc:	f422 52e0 	bic.w	r2, r2, #7168	; 0x1c00
C:\Users\Filip\Eclipse\Template\Debug/../STM32F4xx_StdPeriph_Driver/src/stm32f4xx_rcc.c:785
 80008d0:	4310      	orrs	r0, r2
C:\Users\Filip\Eclipse\Template\Debug/../STM32F4xx_StdPeriph_Driver/src/stm32f4xx_rcc.c:788
 80008d2:	6098      	str	r0, [r3, #8]
 80008d4:	4770      	bx	lr
 80008d6:	bf00      	nop
 80008d8:	40023800 	.word	0x40023800

080008dc <RCC_PCLK2Config>:
RCC_PCLK2Config():
C:\Users\Filip\Eclipse\Template\Debug/../STM32F4xx_StdPeriph_Driver/src/stm32f4xx_rcc.c:810
 80008dc:	4b03      	ldr	r3, [pc, #12]	; (80008ec <RCC_PCLK2Config+0x10>)
 80008de:	689a      	ldr	r2, [r3, #8]
C:\Users\Filip\Eclipse\Template\Debug/../STM32F4xx_StdPeriph_Driver/src/stm32f4xx_rcc.c:813
 80008e0:	f422 4260 	bic.w	r2, r2, #57344	; 0xe000
C:\Users\Filip\Eclipse\Template\Debug/../STM32F4xx_StdPeriph_Driver/src/stm32f4xx_rcc.c:816
 80008e4:	ea42 00c0 	orr.w	r0, r2, r0, lsl #3
C:\Users\Filip\Eclipse\Template\Debug/../STM32F4xx_StdPeriph_Driver/src/stm32f4xx_rcc.c:819
 80008e8:	6098      	str	r0, [r3, #8]
 80008ea:	4770      	bx	lr
 80008ec:	40023800 	.word	0x40023800

080008f0 <RCC_GetClocksFreq>:
RCC_GetClocksFreq():
C:\Users\Filip\Eclipse\Template\Debug/../STM32F4xx_StdPeriph_Driver/src/stm32f4xx_rcc.c:856
 80008f0:	b410      	push	{r4}
C:\Users\Filip\Eclipse\Template\Debug/../STM32F4xx_StdPeriph_Driver/src/stm32f4xx_rcc.c:860
 80008f2:	4b25      	ldr	r3, [pc, #148]	; (8000988 <RCC_GetClocksFreq+0x98>)
 80008f4:	689b      	ldr	r3, [r3, #8]
 80008f6:	f003 030c 	and.w	r3, r3, #12
C:\Users\Filip\Eclipse\Template\Debug/../STM32F4xx_StdPeriph_Driver/src/stm32f4xx_rcc.c:862
 80008fa:	2b04      	cmp	r3, #4
 80008fc:	d005      	beq.n	800090a <RCC_GetClocksFreq+0x1a>
 80008fe:	2b08      	cmp	r3, #8
 8000900:	d006      	beq.n	8000910 <RCC_GetClocksFreq+0x20>
 8000902:	bb0b      	cbnz	r3, 8000948 <RCC_GetClocksFreq+0x58>
C:\Users\Filip\Eclipse\Template\Debug/../STM32F4xx_StdPeriph_Driver/src/stm32f4xx_rcc.c:865
 8000904:	4b21      	ldr	r3, [pc, #132]	; (800098c <RCC_GetClocksFreq+0x9c>)
 8000906:	6003      	str	r3, [r0, #0]
C:\Users\Filip\Eclipse\Template\Debug/../STM32F4xx_StdPeriph_Driver/src/stm32f4xx_rcc.c:866
 8000908:	e020      	b.n	800094c <RCC_GetClocksFreq+0x5c>
C:\Users\Filip\Eclipse\Template\Debug/../STM32F4xx_StdPeriph_Driver/src/stm32f4xx_rcc.c:868
 800090a:	4b21      	ldr	r3, [pc, #132]	; (8000990 <RCC_GetClocksFreq+0xa0>)
 800090c:	6003      	str	r3, [r0, #0]
C:\Users\Filip\Eclipse\Template\Debug/../STM32F4xx_StdPeriph_Driver/src/stm32f4xx_rcc.c:869
 800090e:	e01d      	b.n	800094c <RCC_GetClocksFreq+0x5c>
C:\Users\Filip\Eclipse\Template\Debug/../STM32F4xx_StdPeriph_Driver/src/stm32f4xx_rcc.c:875
 8000910:	4b1d      	ldr	r3, [pc, #116]	; (8000988 <RCC_GetClocksFreq+0x98>)
 8000912:	685a      	ldr	r2, [r3, #4]
C:\Users\Filip\Eclipse\Template\Debug/../STM32F4xx_StdPeriph_Driver/src/stm32f4xx_rcc.c:876
 8000914:	685b      	ldr	r3, [r3, #4]
 8000916:	f003 033f 	and.w	r3, r3, #63	; 0x3f
C:\Users\Filip\Eclipse\Template\Debug/../STM32F4xx_StdPeriph_Driver/src/stm32f4xx_rcc.c:878
 800091a:	f412 0f80 	tst.w	r2, #4194304	; 0x400000
C:\Users\Filip\Eclipse\Template\Debug/../STM32F4xx_StdPeriph_Driver/src/stm32f4xx_rcc.c:881
 800091e:	bf14      	ite	ne
 8000920:	4a1b      	ldrne	r2, [pc, #108]	; (8000990 <RCC_GetClocksFreq+0xa0>)
C:\Users\Filip\Eclipse\Template\Debug/../STM32F4xx_StdPeriph_Driver/src/stm32f4xx_rcc.c:886
 8000922:	4a1a      	ldreq	r2, [pc, #104]	; (800098c <RCC_GetClocksFreq+0x9c>)
 8000924:	fbb2 f3f3 	udiv	r3, r2, r3
 8000928:	4a17      	ldr	r2, [pc, #92]	; (8000988 <RCC_GetClocksFreq+0x98>)
 800092a:	6852      	ldr	r2, [r2, #4]
 800092c:	f3c2 1288 	ubfx	r2, r2, #6, #9
 8000930:	fb02 f303 	mul.w	r3, r2, r3
C:\Users\Filip\Eclipse\Template\Debug/../STM32F4xx_StdPeriph_Driver/src/stm32f4xx_rcc.c:889
 8000934:	4a14      	ldr	r2, [pc, #80]	; (8000988 <RCC_GetClocksFreq+0x98>)
 8000936:	6852      	ldr	r2, [r2, #4]
 8000938:	f3c2 4201 	ubfx	r2, r2, #16, #2
 800093c:	3201      	adds	r2, #1
 800093e:	0052      	lsls	r2, r2, #1
C:\Users\Filip\Eclipse\Template\Debug/../STM32F4xx_StdPeriph_Driver/src/stm32f4xx_rcc.c:890
 8000940:	fbb3 f3f2 	udiv	r3, r3, r2
 8000944:	6003      	str	r3, [r0, #0]
C:\Users\Filip\Eclipse\Template\Debug/../STM32F4xx_StdPeriph_Driver/src/stm32f4xx_rcc.c:891
 8000946:	e001      	b.n	800094c <RCC_GetClocksFreq+0x5c>
C:\Users\Filip\Eclipse\Template\Debug/../STM32F4xx_StdPeriph_Driver/src/stm32f4xx_rcc.c:893
 8000948:	4b10      	ldr	r3, [pc, #64]	; (800098c <RCC_GetClocksFreq+0x9c>)
 800094a:	6003      	str	r3, [r0, #0]
C:\Users\Filip\Eclipse\Template\Debug/../STM32F4xx_StdPeriph_Driver/src/stm32f4xx_rcc.c:899
 800094c:	490e      	ldr	r1, [pc, #56]	; (8000988 <RCC_GetClocksFreq+0x98>)
 800094e:	688b      	ldr	r3, [r1, #8]
C:\Users\Filip\Eclipse\Template\Debug/../STM32F4xx_StdPeriph_Driver/src/stm32f4xx_rcc.c:900
 8000950:	f3c3 1303 	ubfx	r3, r3, #4, #4
C:\Users\Filip\Eclipse\Template\Debug/../STM32F4xx_StdPeriph_Driver/src/stm32f4xx_rcc.c:901
 8000954:	4a0f      	ldr	r2, [pc, #60]	; (8000994 <RCC_GetClocksFreq+0xa4>)
 8000956:	5cd3      	ldrb	r3, [r2, r3]
 8000958:	b2db      	uxtb	r3, r3
C:\Users\Filip\Eclipse\Template\Debug/../STM32F4xx_StdPeriph_Driver/src/stm32f4xx_rcc.c:903
 800095a:	6804      	ldr	r4, [r0, #0]
 800095c:	fa24 f303 	lsr.w	r3, r4, r3
 8000960:	6043      	str	r3, [r0, #4]
C:\Users\Filip\Eclipse\Template\Debug/../STM32F4xx_StdPeriph_Driver/src/stm32f4xx_rcc.c:906
 8000962:	688c      	ldr	r4, [r1, #8]
C:\Users\Filip\Eclipse\Template\Debug/../STM32F4xx_StdPeriph_Driver/src/stm32f4xx_rcc.c:907
 8000964:	f3c4 2482 	ubfx	r4, r4, #10, #3
C:\Users\Filip\Eclipse\Template\Debug/../STM32F4xx_StdPeriph_Driver/src/stm32f4xx_rcc.c:908
 8000968:	5d14      	ldrb	r4, [r2, r4]
 800096a:	b2e4      	uxtb	r4, r4
C:\Users\Filip\Eclipse\Template\Debug/../STM32F4xx_StdPeriph_Driver/src/stm32f4xx_rcc.c:910
 800096c:	fa23 f404 	lsr.w	r4, r3, r4
 8000970:	6084      	str	r4, [r0, #8]
C:\Users\Filip\Eclipse\Template\Debug/../STM32F4xx_StdPeriph_Driver/src/stm32f4xx_rcc.c:913
 8000972:	6889      	ldr	r1, [r1, #8]
C:\Users\Filip\Eclipse\Template\Debug/../STM32F4xx_StdPeriph_Driver/src/stm32f4xx_rcc.c:914
 8000974:	f3c1 3142 	ubfx	r1, r1, #13, #3
C:\Users\Filip\Eclipse\Template\Debug/../STM32F4xx_StdPeriph_Driver/src/stm32f4xx_rcc.c:915
 8000978:	5c52      	ldrb	r2, [r2, r1]
 800097a:	b2d2      	uxtb	r2, r2
C:\Users\Filip\Eclipse\Template\Debug/../STM32F4xx_StdPeriph_Driver/src/stm32f4xx_rcc.c:917
 800097c:	40d3      	lsrs	r3, r2
 800097e:	60c3      	str	r3, [r0, #12]
C:\Users\Filip\Eclipse\Template\Debug/../STM32F4xx_StdPeriph_Driver/src/stm32f4xx_rcc.c:918
 8000980:	f85d 4b04 	ldr.w	r4, [sp], #4
 8000984:	4770      	bx	lr
 8000986:	bf00      	nop
 8000988:	40023800 	.word	0x40023800
 800098c:	00f42400 	.word	0x00f42400
 8000990:	007a1200 	.word	0x007a1200
 8000994:	20000014 	.word	0x20000014

08000998 <RCC_RTCCLKConfig>:
RCC_RTCCLKConfig():
C:\Users\Filip\Eclipse\Template\Debug/../STM32F4xx_StdPeriph_Driver/src/stm32f4xx_rcc.c:987
 8000998:	f400 7340 	and.w	r3, r0, #768	; 0x300
 800099c:	f5b3 7f40 	cmp.w	r3, #768	; 0x300
 80009a0:	d109      	bne.n	80009b6 <RCC_RTCCLKConfig+0x1e>
C:\Users\Filip\Eclipse\Template\Debug/../STM32F4xx_StdPeriph_Driver/src/stm32f4xx_rcc.c:989
 80009a2:	4a08      	ldr	r2, [pc, #32]	; (80009c4 <RCC_RTCCLKConfig+0x2c>)
 80009a4:	6891      	ldr	r1, [r2, #8]
C:\Users\Filip\Eclipse\Template\Debug/../STM32F4xx_StdPeriph_Driver/src/stm32f4xx_rcc.c:992
 80009a6:	f421 11f8 	bic.w	r1, r1, #2031616	; 0x1f0000
C:\Users\Filip\Eclipse\Template\Debug/../STM32F4xx_StdPeriph_Driver/src/stm32f4xx_rcc.c:995
 80009aa:	f020 4370 	bic.w	r3, r0, #4026531840	; 0xf0000000
 80009ae:	f423 7340 	bic.w	r3, r3, #768	; 0x300
 80009b2:	430b      	orrs	r3, r1
C:\Users\Filip\Eclipse\Template\Debug/../STM32F4xx_StdPeriph_Driver/src/stm32f4xx_rcc.c:998
 80009b4:	6093      	str	r3, [r2, #8]
C:\Users\Filip\Eclipse\Template\Debug/../STM32F4xx_StdPeriph_Driver/src/stm32f4xx_rcc.c:1002
 80009b6:	4b03      	ldr	r3, [pc, #12]	; (80009c4 <RCC_RTCCLKConfig+0x2c>)
 80009b8:	6f1a      	ldr	r2, [r3, #112]	; 0x70
 80009ba:	f3c0 000b 	ubfx	r0, r0, #0, #12
 80009be:	4310      	orrs	r0, r2
 80009c0:	6718      	str	r0, [r3, #112]	; 0x70
 80009c2:	4770      	bx	lr
 80009c4:	40023800 	.word	0x40023800

080009c8 <RCC_RTCCLKCmd>:
RCC_RTCCLKCmd():
C:\Users\Filip\Eclipse\Template\Debug/../STM32F4xx_StdPeriph_Driver/src/stm32f4xx_rcc.c:1017
 80009c8:	4b01      	ldr	r3, [pc, #4]	; (80009d0 <RCC_RTCCLKCmd+0x8>)
 80009ca:	6018      	str	r0, [r3, #0]
 80009cc:	4770      	bx	lr
 80009ce:	bf00      	nop
 80009d0:	42470e3c 	.word	0x42470e3c

080009d4 <RCC_BackupResetCmd>:
RCC_BackupResetCmd():
C:\Users\Filip\Eclipse\Template\Debug/../STM32F4xx_StdPeriph_Driver/src/stm32f4xx_rcc.c:1033
 80009d4:	4b01      	ldr	r3, [pc, #4]	; (80009dc <RCC_BackupResetCmd+0x8>)
 80009d6:	6018      	str	r0, [r3, #0]
 80009d8:	4770      	bx	lr
 80009da:	bf00      	nop
 80009dc:	42470e40 	.word	0x42470e40

080009e0 <RCC_I2SCLKConfig>:
RCC_I2SCLKConfig():
C:\Users\Filip\Eclipse\Template\Debug/../STM32F4xx_StdPeriph_Driver/src/stm32f4xx_rcc.c:1051
 80009e0:	4b01      	ldr	r3, [pc, #4]	; (80009e8 <RCC_I2SCLKConfig+0x8>)
 80009e2:	6018      	str	r0, [r3, #0]
 80009e4:	4770      	bx	lr
 80009e6:	bf00      	nop
 80009e8:	4247015c 	.word	0x4247015c

080009ec <RCC_AHB1PeriphClockCmd>:
RCC_AHB1PeriphClockCmd():
C:\Users\Filip\Eclipse\Template\Debug/../STM32F4xx_StdPeriph_Driver/src/stm32f4xx_rcc.c:1091
 80009ec:	b121      	cbz	r1, 80009f8 <RCC_AHB1PeriphClockCmd+0xc>
C:\Users\Filip\Eclipse\Template\Debug/../STM32F4xx_StdPeriph_Driver/src/stm32f4xx_rcc.c:1093
 80009ee:	4b05      	ldr	r3, [pc, #20]	; (8000a04 <RCC_AHB1PeriphClockCmd+0x18>)
 80009f0:	6b1a      	ldr	r2, [r3, #48]	; 0x30
 80009f2:	4310      	orrs	r0, r2
 80009f4:	6318      	str	r0, [r3, #48]	; 0x30
 80009f6:	4770      	bx	lr
C:\Users\Filip\Eclipse\Template\Debug/../STM32F4xx_StdPeriph_Driver/src/stm32f4xx_rcc.c:1097
 80009f8:	4b02      	ldr	r3, [pc, #8]	; (8000a04 <RCC_AHB1PeriphClockCmd+0x18>)
 80009fa:	6b1a      	ldr	r2, [r3, #48]	; 0x30
 80009fc:	ea22 0000 	bic.w	r0, r2, r0
 8000a00:	6318      	str	r0, [r3, #48]	; 0x30
 8000a02:	4770      	bx	lr
 8000a04:	40023800 	.word	0x40023800

08000a08 <RCC_AHB2PeriphClockCmd>:
RCC_AHB2PeriphClockCmd():
C:\Users\Filip\Eclipse\Template\Debug/../STM32F4xx_StdPeriph_Driver/src/stm32f4xx_rcc.c:1123
 8000a08:	b121      	cbz	r1, 8000a14 <RCC_AHB2PeriphClockCmd+0xc>
C:\Users\Filip\Eclipse\Template\Debug/../STM32F4xx_StdPeriph_Driver/src/stm32f4xx_rcc.c:1125
 8000a0a:	4b05      	ldr	r3, [pc, #20]	; (8000a20 <RCC_AHB2PeriphClockCmd+0x18>)
 8000a0c:	6b5a      	ldr	r2, [r3, #52]	; 0x34
 8000a0e:	4310      	orrs	r0, r2
 8000a10:	6358      	str	r0, [r3, #52]	; 0x34
 8000a12:	4770      	bx	lr
C:\Users\Filip\Eclipse\Template\Debug/../STM32F4xx_StdPeriph_Driver/src/stm32f4xx_rcc.c:1129
 8000a14:	4b02      	ldr	r3, [pc, #8]	; (8000a20 <RCC_AHB2PeriphClockCmd+0x18>)
 8000a16:	6b5a      	ldr	r2, [r3, #52]	; 0x34
 8000a18:	ea22 0000 	bic.w	r0, r2, r0
 8000a1c:	6358      	str	r0, [r3, #52]	; 0x34
 8000a1e:	4770      	bx	lr
 8000a20:	40023800 	.word	0x40023800

08000a24 <RCC_AHB3PeriphClockCmd>:
RCC_AHB3PeriphClockCmd():
C:\Users\Filip\Eclipse\Template\Debug/../STM32F4xx_StdPeriph_Driver/src/stm32f4xx_rcc.c:1150
 8000a24:	b121      	cbz	r1, 8000a30 <RCC_AHB3PeriphClockCmd+0xc>
C:\Users\Filip\Eclipse\Template\Debug/../STM32F4xx_StdPeriph_Driver/src/stm32f4xx_rcc.c:1152
 8000a26:	4b05      	ldr	r3, [pc, #20]	; (8000a3c <RCC_AHB3PeriphClockCmd+0x18>)
 8000a28:	6b9a      	ldr	r2, [r3, #56]	; 0x38
 8000a2a:	4310      	orrs	r0, r2
 8000a2c:	6398      	str	r0, [r3, #56]	; 0x38
 8000a2e:	4770      	bx	lr
C:\Users\Filip\Eclipse\Template\Debug/../STM32F4xx_StdPeriph_Driver/src/stm32f4xx_rcc.c:1156
 8000a30:	4b02      	ldr	r3, [pc, #8]	; (8000a3c <RCC_AHB3PeriphClockCmd+0x18>)
 8000a32:	6b9a      	ldr	r2, [r3, #56]	; 0x38
 8000a34:	ea22 0000 	bic.w	r0, r2, r0
 8000a38:	6398      	str	r0, [r3, #56]	; 0x38
 8000a3a:	4770      	bx	lr
 8000a3c:	40023800 	.word	0x40023800

08000a40 <RCC_APB1PeriphClockCmd>:
RCC_APB1PeriphClockCmd():
C:\Users\Filip\Eclipse\Template\Debug/../STM32F4xx_StdPeriph_Driver/src/stm32f4xx_rcc.c:1200
 8000a40:	b121      	cbz	r1, 8000a4c <RCC_APB1PeriphClockCmd+0xc>
C:\Users\Filip\Eclipse\Template\Debug/../STM32F4xx_StdPeriph_Driver/src/stm32f4xx_rcc.c:1202
 8000a42:	4b05      	ldr	r3, [pc, #20]	; (8000a58 <RCC_APB1PeriphClockCmd+0x18>)
 8000a44:	6c1a      	ldr	r2, [r3, #64]	; 0x40
 8000a46:	4310      	orrs	r0, r2
 8000a48:	6418      	str	r0, [r3, #64]	; 0x40
 8000a4a:	4770      	bx	lr
C:\Users\Filip\Eclipse\Template\Debug/../STM32F4xx_StdPeriph_Driver/src/stm32f4xx_rcc.c:1206
 8000a4c:	4b02      	ldr	r3, [pc, #8]	; (8000a58 <RCC_APB1PeriphClockCmd+0x18>)
 8000a4e:	6c1a      	ldr	r2, [r3, #64]	; 0x40
 8000a50:	ea22 0000 	bic.w	r0, r2, r0
 8000a54:	6418      	str	r0, [r3, #64]	; 0x40
 8000a56:	4770      	bx	lr
 8000a58:	40023800 	.word	0x40023800

08000a5c <RCC_APB2PeriphClockCmd>:
RCC_APB2PeriphClockCmd():
C:\Users\Filip\Eclipse\Template\Debug/../STM32F4xx_StdPeriph_Driver/src/stm32f4xx_rcc.c:1240
 8000a5c:	b121      	cbz	r1, 8000a68 <RCC_APB2PeriphClockCmd+0xc>
C:\Users\Filip\Eclipse\Template\Debug/../STM32F4xx_StdPeriph_Driver/src/stm32f4xx_rcc.c:1242
 8000a5e:	4b05      	ldr	r3, [pc, #20]	; (8000a74 <RCC_APB2PeriphClockCmd+0x18>)
 8000a60:	6c5a      	ldr	r2, [r3, #68]	; 0x44
 8000a62:	4310      	orrs	r0, r2
 8000a64:	6458      	str	r0, [r3, #68]	; 0x44
 8000a66:	4770      	bx	lr
C:\Users\Filip\Eclipse\Template\Debug/../STM32F4xx_StdPeriph_Driver/src/stm32f4xx_rcc.c:1246
 8000a68:	4b02      	ldr	r3, [pc, #8]	; (8000a74 <RCC_APB2PeriphClockCmd+0x18>)
 8000a6a:	6c5a      	ldr	r2, [r3, #68]	; 0x44
 8000a6c:	ea22 0000 	bic.w	r0, r2, r0
 8000a70:	6458      	str	r0, [r3, #68]	; 0x44
 8000a72:	4770      	bx	lr
 8000a74:	40023800 	.word	0x40023800

08000a78 <RCC_AHB1PeriphResetCmd>:
RCC_AHB1PeriphResetCmd():
C:\Users\Filip\Eclipse\Template\Debug/../STM32F4xx_StdPeriph_Driver/src/stm32f4xx_rcc.c:1279
 8000a78:	b121      	cbz	r1, 8000a84 <RCC_AHB1PeriphResetCmd+0xc>
C:\Users\Filip\Eclipse\Template\Debug/../STM32F4xx_StdPeriph_Driver/src/stm32f4xx_rcc.c:1281
 8000a7a:	4b05      	ldr	r3, [pc, #20]	; (8000a90 <RCC_AHB1PeriphResetCmd+0x18>)
 8000a7c:	691a      	ldr	r2, [r3, #16]
 8000a7e:	4310      	orrs	r0, r2
 8000a80:	6118      	str	r0, [r3, #16]
 8000a82:	4770      	bx	lr
C:\Users\Filip\Eclipse\Template\Debug/../STM32F4xx_StdPeriph_Driver/src/stm32f4xx_rcc.c:1285
 8000a84:	4b02      	ldr	r3, [pc, #8]	; (8000a90 <RCC_AHB1PeriphResetCmd+0x18>)
 8000a86:	691a      	ldr	r2, [r3, #16]
 8000a88:	ea22 0000 	bic.w	r0, r2, r0
 8000a8c:	6118      	str	r0, [r3, #16]
 8000a8e:	4770      	bx	lr
 8000a90:	40023800 	.word	0x40023800

08000a94 <RCC_AHB2PeriphResetCmd>:
RCC_AHB2PeriphResetCmd():
C:\Users\Filip\Eclipse\Template\Debug/../STM32F4xx_StdPeriph_Driver/src/stm32f4xx_rcc.c:1308
 8000a94:	b121      	cbz	r1, 8000aa0 <RCC_AHB2PeriphResetCmd+0xc>
C:\Users\Filip\Eclipse\Template\Debug/../STM32F4xx_StdPeriph_Driver/src/stm32f4xx_rcc.c:1310
 8000a96:	4b05      	ldr	r3, [pc, #20]	; (8000aac <RCC_AHB2PeriphResetCmd+0x18>)
 8000a98:	695a      	ldr	r2, [r3, #20]
 8000a9a:	4310      	orrs	r0, r2
 8000a9c:	6158      	str	r0, [r3, #20]
 8000a9e:	4770      	bx	lr
C:\Users\Filip\Eclipse\Template\Debug/../STM32F4xx_StdPeriph_Driver/src/stm32f4xx_rcc.c:1314
 8000aa0:	4b02      	ldr	r3, [pc, #8]	; (8000aac <RCC_AHB2PeriphResetCmd+0x18>)
 8000aa2:	695a      	ldr	r2, [r3, #20]
 8000aa4:	ea22 0000 	bic.w	r0, r2, r0
 8000aa8:	6158      	str	r0, [r3, #20]
 8000aaa:	4770      	bx	lr
 8000aac:	40023800 	.word	0x40023800

08000ab0 <RCC_AHB3PeriphResetCmd>:
RCC_AHB3PeriphResetCmd():
C:\Users\Filip\Eclipse\Template\Debug/../STM32F4xx_StdPeriph_Driver/src/stm32f4xx_rcc.c:1332
 8000ab0:	b121      	cbz	r1, 8000abc <RCC_AHB3PeriphResetCmd+0xc>
C:\Users\Filip\Eclipse\Template\Debug/../STM32F4xx_StdPeriph_Driver/src/stm32f4xx_rcc.c:1334
 8000ab2:	4b05      	ldr	r3, [pc, #20]	; (8000ac8 <RCC_AHB3PeriphResetCmd+0x18>)
 8000ab4:	699a      	ldr	r2, [r3, #24]
 8000ab6:	4310      	orrs	r0, r2
 8000ab8:	6198      	str	r0, [r3, #24]
 8000aba:	4770      	bx	lr
C:\Users\Filip\Eclipse\Template\Debug/../STM32F4xx_StdPeriph_Driver/src/stm32f4xx_rcc.c:1338
 8000abc:	4b02      	ldr	r3, [pc, #8]	; (8000ac8 <RCC_AHB3PeriphResetCmd+0x18>)
 8000abe:	699a      	ldr	r2, [r3, #24]
 8000ac0:	ea22 0000 	bic.w	r0, r2, r0
 8000ac4:	6198      	str	r0, [r3, #24]
 8000ac6:	4770      	bx	lr
 8000ac8:	40023800 	.word	0x40023800

08000acc <RCC_APB1PeriphResetCmd>:
RCC_APB1PeriphResetCmd():
C:\Users\Filip\Eclipse\Template\Debug/../STM32F4xx_StdPeriph_Driver/src/stm32f4xx_rcc.c:1378
 8000acc:	b121      	cbz	r1, 8000ad8 <RCC_APB1PeriphResetCmd+0xc>
C:\Users\Filip\Eclipse\Template\Debug/../STM32F4xx_StdPeriph_Driver/src/stm32f4xx_rcc.c:1380
 8000ace:	4b05      	ldr	r3, [pc, #20]	; (8000ae4 <RCC_APB1PeriphResetCmd+0x18>)
 8000ad0:	6a1a      	ldr	r2, [r3, #32]
 8000ad2:	4310      	orrs	r0, r2
 8000ad4:	6218      	str	r0, [r3, #32]
 8000ad6:	4770      	bx	lr
C:\Users\Filip\Eclipse\Template\Debug/../STM32F4xx_StdPeriph_Driver/src/stm32f4xx_rcc.c:1384
 8000ad8:	4b02      	ldr	r3, [pc, #8]	; (8000ae4 <RCC_APB1PeriphResetCmd+0x18>)
 8000ada:	6a1a      	ldr	r2, [r3, #32]
 8000adc:	ea22 0000 	bic.w	r0, r2, r0
 8000ae0:	6218      	str	r0, [r3, #32]
 8000ae2:	4770      	bx	lr
 8000ae4:	40023800 	.word	0x40023800

08000ae8 <RCC_APB2PeriphResetCmd>:
RCC_APB2PeriphResetCmd():
C:\Users\Filip\Eclipse\Template\Debug/../STM32F4xx_StdPeriph_Driver/src/stm32f4xx_rcc.c:1414
 8000ae8:	b121      	cbz	r1, 8000af4 <RCC_APB2PeriphResetCmd+0xc>
C:\Users\Filip\Eclipse\Template\Debug/../STM32F4xx_StdPeriph_Driver/src/stm32f4xx_rcc.c:1416
 8000aea:	4b05      	ldr	r3, [pc, #20]	; (8000b00 <RCC_APB2PeriphResetCmd+0x18>)
 8000aec:	6a5a      	ldr	r2, [r3, #36]	; 0x24
 8000aee:	4310      	orrs	r0, r2
 8000af0:	6258      	str	r0, [r3, #36]	; 0x24
 8000af2:	4770      	bx	lr
C:\Users\Filip\Eclipse\Template\Debug/../STM32F4xx_StdPeriph_Driver/src/stm32f4xx_rcc.c:1420
 8000af4:	4b02      	ldr	r3, [pc, #8]	; (8000b00 <RCC_APB2PeriphResetCmd+0x18>)
 8000af6:	6a5a      	ldr	r2, [r3, #36]	; 0x24
 8000af8:	ea22 0000 	bic.w	r0, r2, r0
 8000afc:	6258      	str	r0, [r3, #36]	; 0x24
 8000afe:	4770      	bx	lr
 8000b00:	40023800 	.word	0x40023800

08000b04 <RCC_AHB1PeriphClockLPModeCmd>:
RCC_AHB1PeriphClockLPModeCmd():
C:\Users\Filip\Eclipse\Template\Debug/../STM32F4xx_StdPeriph_Driver/src/stm32f4xx_rcc.c:1460
 8000b04:	b121      	cbz	r1, 8000b10 <RCC_AHB1PeriphClockLPModeCmd+0xc>
C:\Users\Filip\Eclipse\Template\Debug/../STM32F4xx_StdPeriph_Driver/src/stm32f4xx_rcc.c:1462
 8000b06:	4b05      	ldr	r3, [pc, #20]	; (8000b1c <RCC_AHB1PeriphClockLPModeCmd+0x18>)
 8000b08:	6d1a      	ldr	r2, [r3, #80]	; 0x50
 8000b0a:	4310      	orrs	r0, r2
 8000b0c:	6518      	str	r0, [r3, #80]	; 0x50
 8000b0e:	4770      	bx	lr
C:\Users\Filip\Eclipse\Template\Debug/../STM32F4xx_StdPeriph_Driver/src/stm32f4xx_rcc.c:1466
 8000b10:	4b02      	ldr	r3, [pc, #8]	; (8000b1c <RCC_AHB1PeriphClockLPModeCmd+0x18>)
 8000b12:	6d1a      	ldr	r2, [r3, #80]	; 0x50
 8000b14:	ea22 0000 	bic.w	r0, r2, r0
 8000b18:	6518      	str	r0, [r3, #80]	; 0x50
 8000b1a:	4770      	bx	lr
 8000b1c:	40023800 	.word	0x40023800

08000b20 <RCC_AHB2PeriphClockLPModeCmd>:
RCC_AHB2PeriphClockLPModeCmd():
C:\Users\Filip\Eclipse\Template\Debug/../STM32F4xx_StdPeriph_Driver/src/stm32f4xx_rcc.c:1492
 8000b20:	b121      	cbz	r1, 8000b2c <RCC_AHB2PeriphClockLPModeCmd+0xc>
C:\Users\Filip\Eclipse\Template\Debug/../STM32F4xx_StdPeriph_Driver/src/stm32f4xx_rcc.c:1494
 8000b22:	4b05      	ldr	r3, [pc, #20]	; (8000b38 <RCC_AHB2PeriphClockLPModeCmd+0x18>)
 8000b24:	6d5a      	ldr	r2, [r3, #84]	; 0x54
 8000b26:	4310      	orrs	r0, r2
 8000b28:	6558      	str	r0, [r3, #84]	; 0x54
 8000b2a:	4770      	bx	lr
C:\Users\Filip\Eclipse\Template\Debug/../STM32F4xx_StdPeriph_Driver/src/stm32f4xx_rcc.c:1498
 8000b2c:	4b02      	ldr	r3, [pc, #8]	; (8000b38 <RCC_AHB2PeriphClockLPModeCmd+0x18>)
 8000b2e:	6d5a      	ldr	r2, [r3, #84]	; 0x54
 8000b30:	ea22 0000 	bic.w	r0, r2, r0
 8000b34:	6558      	str	r0, [r3, #84]	; 0x54
 8000b36:	4770      	bx	lr
 8000b38:	40023800 	.word	0x40023800

08000b3c <RCC_AHB3PeriphClockLPModeCmd>:
RCC_AHB3PeriphClockLPModeCmd():
C:\Users\Filip\Eclipse\Template\Debug/../STM32F4xx_StdPeriph_Driver/src/stm32f4xx_rcc.c:1519
 8000b3c:	b121      	cbz	r1, 8000b48 <RCC_AHB3PeriphClockLPModeCmd+0xc>
C:\Users\Filip\Eclipse\Template\Debug/../STM32F4xx_StdPeriph_Driver/src/stm32f4xx_rcc.c:1521
 8000b3e:	4b05      	ldr	r3, [pc, #20]	; (8000b54 <RCC_AHB3PeriphClockLPModeCmd+0x18>)
 8000b40:	6d9a      	ldr	r2, [r3, #88]	; 0x58
 8000b42:	4310      	orrs	r0, r2
 8000b44:	6598      	str	r0, [r3, #88]	; 0x58
 8000b46:	4770      	bx	lr
C:\Users\Filip\Eclipse\Template\Debug/../STM32F4xx_StdPeriph_Driver/src/stm32f4xx_rcc.c:1525
 8000b48:	4b02      	ldr	r3, [pc, #8]	; (8000b54 <RCC_AHB3PeriphClockLPModeCmd+0x18>)
 8000b4a:	6d9a      	ldr	r2, [r3, #88]	; 0x58
 8000b4c:	ea22 0000 	bic.w	r0, r2, r0
 8000b50:	6598      	str	r0, [r3, #88]	; 0x58
 8000b52:	4770      	bx	lr
 8000b54:	40023800 	.word	0x40023800

08000b58 <RCC_APB1PeriphClockLPModeCmd>:
RCC_APB1PeriphClockLPModeCmd():
C:\Users\Filip\Eclipse\Template\Debug/../STM32F4xx_StdPeriph_Driver/src/stm32f4xx_rcc.c:1569
 8000b58:	b121      	cbz	r1, 8000b64 <RCC_APB1PeriphClockLPModeCmd+0xc>
C:\Users\Filip\Eclipse\Template\Debug/../STM32F4xx_StdPeriph_Driver/src/stm32f4xx_rcc.c:1571
 8000b5a:	4b05      	ldr	r3, [pc, #20]	; (8000b70 <RCC_APB1PeriphClockLPModeCmd+0x18>)
 8000b5c:	6e1a      	ldr	r2, [r3, #96]	; 0x60
 8000b5e:	4310      	orrs	r0, r2
 8000b60:	6618      	str	r0, [r3, #96]	; 0x60
 8000b62:	4770      	bx	lr
C:\Users\Filip\Eclipse\Template\Debug/../STM32F4xx_StdPeriph_Driver/src/stm32f4xx_rcc.c:1575
 8000b64:	4b02      	ldr	r3, [pc, #8]	; (8000b70 <RCC_APB1PeriphClockLPModeCmd+0x18>)
 8000b66:	6e1a      	ldr	r2, [r3, #96]	; 0x60
 8000b68:	ea22 0000 	bic.w	r0, r2, r0
 8000b6c:	6618      	str	r0, [r3, #96]	; 0x60
 8000b6e:	4770      	bx	lr
 8000b70:	40023800 	.word	0x40023800

08000b74 <RCC_APB2PeriphClockLPModeCmd>:
RCC_APB2PeriphClockLPModeCmd():
C:\Users\Filip\Eclipse\Template\Debug/../STM32F4xx_StdPeriph_Driver/src/stm32f4xx_rcc.c:1609
 8000b74:	b121      	cbz	r1, 8000b80 <RCC_APB2PeriphClockLPModeCmd+0xc>
C:\Users\Filip\Eclipse\Template\Debug/../STM32F4xx_StdPeriph_Driver/src/stm32f4xx_rcc.c:1611
 8000b76:	4b05      	ldr	r3, [pc, #20]	; (8000b8c <RCC_APB2PeriphClockLPModeCmd+0x18>)
 8000b78:	6e5a      	ldr	r2, [r3, #100]	; 0x64
 8000b7a:	4310      	orrs	r0, r2
 8000b7c:	6658      	str	r0, [r3, #100]	; 0x64
 8000b7e:	4770      	bx	lr
C:\Users\Filip\Eclipse\Template\Debug/../STM32F4xx_StdPeriph_Driver/src/stm32f4xx_rcc.c:1615
 8000b80:	4b02      	ldr	r3, [pc, #8]	; (8000b8c <RCC_APB2PeriphClockLPModeCmd+0x18>)
 8000b82:	6e5a      	ldr	r2, [r3, #100]	; 0x64
 8000b84:	ea22 0000 	bic.w	r0, r2, r0
 8000b88:	6658      	str	r0, [r3, #100]	; 0x64
 8000b8a:	4770      	bx	lr
 8000b8c:	40023800 	.word	0x40023800

08000b90 <RCC_ITConfig>:
RCC_ITConfig():
C:\Users\Filip\Eclipse\Template\Debug/../STM32F4xx_StdPeriph_Driver/src/stm32f4xx_rcc.c:1654
 8000b90:	b121      	cbz	r1, 8000b9c <RCC_ITConfig+0xc>
C:\Users\Filip\Eclipse\Template\Debug/../STM32F4xx_StdPeriph_Driver/src/stm32f4xx_rcc.c:1657
 8000b92:	4b05      	ldr	r3, [pc, #20]	; (8000ba8 <RCC_ITConfig+0x18>)
 8000b94:	781a      	ldrb	r2, [r3, #0]
 8000b96:	4310      	orrs	r0, r2
 8000b98:	7018      	strb	r0, [r3, #0]
 8000b9a:	4770      	bx	lr
C:\Users\Filip\Eclipse\Template\Debug/../STM32F4xx_StdPeriph_Driver/src/stm32f4xx_rcc.c:1662
 8000b9c:	4b02      	ldr	r3, [pc, #8]	; (8000ba8 <RCC_ITConfig+0x18>)
 8000b9e:	781a      	ldrb	r2, [r3, #0]
 8000ba0:	ea22 0000 	bic.w	r0, r2, r0
 8000ba4:	7018      	strb	r0, [r3, #0]
 8000ba6:	4770      	bx	lr
 8000ba8:	4002380d 	.word	0x4002380d

08000bac <RCC_GetFlagStatus>:
RCC_GetFlagStatus():
C:\Users\Filip\Eclipse\Template\Debug/../STM32F4xx_StdPeriph_Driver/src/stm32f4xx_rcc.c:1695
 8000bac:	0943      	lsrs	r3, r0, #5
C:\Users\Filip\Eclipse\Template\Debug/../STM32F4xx_StdPeriph_Driver/src/stm32f4xx_rcc.c:1696
 8000bae:	2b01      	cmp	r3, #1
 8000bb0:	d102      	bne.n	8000bb8 <RCC_GetFlagStatus+0xc>
C:\Users\Filip\Eclipse\Template\Debug/../STM32F4xx_StdPeriph_Driver/src/stm32f4xx_rcc.c:1698
 8000bb2:	4b07      	ldr	r3, [pc, #28]	; (8000bd0 <RCC_GetFlagStatus+0x24>)
 8000bb4:	681b      	ldr	r3, [r3, #0]
 8000bb6:	e004      	b.n	8000bc2 <RCC_GetFlagStatus+0x16>
C:\Users\Filip\Eclipse\Template\Debug/../STM32F4xx_StdPeriph_Driver/src/stm32f4xx_rcc.c:1700
 8000bb8:	2b02      	cmp	r3, #2
C:\Users\Filip\Eclipse\Template\Debug/../STM32F4xx_StdPeriph_Driver/src/stm32f4xx_rcc.c:1702
 8000bba:	4b05      	ldr	r3, [pc, #20]	; (8000bd0 <RCC_GetFlagStatus+0x24>)
 8000bbc:	bf0c      	ite	eq
 8000bbe:	6f1b      	ldreq	r3, [r3, #112]	; 0x70
C:\Users\Filip\Eclipse\Template\Debug/../STM32F4xx_StdPeriph_Driver/src/stm32f4xx_rcc.c:1706
 8000bc0:	6f5b      	ldrne	r3, [r3, #116]	; 0x74
C:\Users\Filip\Eclipse\Template\Debug/../STM32F4xx_StdPeriph_Driver/src/stm32f4xx_rcc.c:1710
 8000bc2:	f000 001f 	and.w	r0, r0, #31
C:\Users\Filip\Eclipse\Template\Debug/../STM32F4xx_StdPeriph_Driver/src/stm32f4xx_rcc.c:1711
 8000bc6:	fa23 f000 	lsr.w	r0, r3, r0
 8000bca:	f000 0001 	and.w	r0, r0, #1
C:\Users\Filip\Eclipse\Template\Debug/../STM32F4xx_StdPeriph_Driver/src/stm32f4xx_rcc.c:1721
 8000bce:	4770      	bx	lr
 8000bd0:	40023800 	.word	0x40023800

08000bd4 <RCC_WaitForHSEStartUp>:
RCC_WaitForHSEStartUp():
C:\Users\Filip\Eclipse\Template\Debug/../STM32F4xx_StdPeriph_Driver/src/stm32f4xx_rcc.c:262
 8000bd4:	b510      	push	{r4, lr}
 8000bd6:	b082      	sub	sp, #8
C:\Users\Filip\Eclipse\Template\Debug/../STM32F4xx_StdPeriph_Driver/src/stm32f4xx_rcc.c:263
 8000bd8:	2300      	movs	r3, #0
 8000bda:	9301      	str	r3, [sp, #4]
C:\Users\Filip\Eclipse\Template\Debug/../STM32F4xx_StdPeriph_Driver/src/stm32f4xx_rcc.c:269
 8000bdc:	2431      	movs	r4, #49	; 0x31
C:\Users\Filip\Eclipse\Template\Debug/../STM32F4xx_StdPeriph_Driver/src/stm32f4xx_rcc.c:269 (discriminator 1)
 8000bde:	4620      	mov	r0, r4
 8000be0:	f7ff ffe4 	bl	8000bac <RCC_GetFlagStatus>
C:\Users\Filip\Eclipse\Template\Debug/../STM32F4xx_StdPeriph_Driver/src/stm32f4xx_rcc.c:270 (discriminator 1)
 8000be4:	9b01      	ldr	r3, [sp, #4]
 8000be6:	3301      	adds	r3, #1
 8000be8:	9301      	str	r3, [sp, #4]
C:\Users\Filip\Eclipse\Template\Debug/../STM32F4xx_StdPeriph_Driver/src/stm32f4xx_rcc.c:271 (discriminator 1)
 8000bea:	9b01      	ldr	r3, [sp, #4]
 8000bec:	f5b3 6fa0 	cmp.w	r3, #1280	; 0x500
 8000bf0:	d001      	beq.n	8000bf6 <RCC_WaitForHSEStartUp+0x22>
 8000bf2:	2800      	cmp	r0, #0
 8000bf4:	d0f3      	beq.n	8000bde <RCC_WaitForHSEStartUp+0xa>
C:\Users\Filip\Eclipse\Template\Debug/../STM32F4xx_StdPeriph_Driver/src/stm32f4xx_rcc.c:273
 8000bf6:	2031      	movs	r0, #49	; 0x31
 8000bf8:	f7ff ffd8 	bl	8000bac <RCC_GetFlagStatus>
C:\Users\Filip\Eclipse\Template\Debug/../STM32F4xx_StdPeriph_Driver/src/stm32f4xx_rcc.c:282
 8000bfc:	3000      	adds	r0, #0
 8000bfe:	bf18      	it	ne
 8000c00:	2001      	movne	r0, #1
 8000c02:	b002      	add	sp, #8
 8000c04:	bd10      	pop	{r4, pc}
 8000c06:	bf00      	nop

08000c08 <RCC_ClearFlag>:
RCC_ClearFlag():
C:\Users\Filip\Eclipse\Template\Debug/../STM32F4xx_StdPeriph_Driver/src/stm32f4xx_rcc.c:1733
 8000c08:	4b02      	ldr	r3, [pc, #8]	; (8000c14 <RCC_ClearFlag+0xc>)
 8000c0a:	6f5a      	ldr	r2, [r3, #116]	; 0x74
 8000c0c:	f042 7280 	orr.w	r2, r2, #16777216	; 0x1000000
 8000c10:	675a      	str	r2, [r3, #116]	; 0x74
 8000c12:	4770      	bx	lr
 8000c14:	40023800 	.word	0x40023800

08000c18 <RCC_GetITStatus>:
RCC_GetITStatus():
C:\Users\Filip\Eclipse\Template\Debug/../STM32F4xx_StdPeriph_Driver/src/stm32f4xx_rcc.c:1757
 8000c18:	4b03      	ldr	r3, [pc, #12]	; (8000c28 <RCC_GetITStatus+0x10>)
 8000c1a:	68db      	ldr	r3, [r3, #12]
 8000c1c:	4018      	ands	r0, r3
C:\Users\Filip\Eclipse\Template\Debug/../STM32F4xx_StdPeriph_Driver/src/stm32f4xx_rcc.c:1767
 8000c1e:	3000      	adds	r0, #0
 8000c20:	bf18      	it	ne
 8000c22:	2001      	movne	r0, #1
 8000c24:	4770      	bx	lr
 8000c26:	bf00      	nop
 8000c28:	40023800 	.word	0x40023800

08000c2c <RCC_ClearITPendingBit>:
RCC_ClearITPendingBit():
C:\Users\Filip\Eclipse\Template\Debug/../STM32F4xx_StdPeriph_Driver/src/stm32f4xx_rcc.c:1789
 8000c2c:	4b01      	ldr	r3, [pc, #4]	; (8000c34 <RCC_ClearITPendingBit+0x8>)
 8000c2e:	7018      	strb	r0, [r3, #0]
 8000c30:	4770      	bx	lr
 8000c32:	bf00      	nop
 8000c34:	4002380e 	.word	0x4002380e

08000c38 <Reset_Handler>:
Reset_Handler():
C:\Users\Filip\Eclipse\Template\Debug/../STM32F4xx/Source/startup_stm32f4xx.S:69
 8000c38:	2100      	movs	r1, #0
C:\Users\Filip\Eclipse\Template\Debug/../STM32F4xx/Source/startup_stm32f4xx.S:70
 8000c3a:	f000 b804 	b.w	8000c46 <LoopCopyDataInit>

08000c3e <CopyDataInit>:
C:\Users\Filip\Eclipse\Template\Debug/../STM32F4xx/Source/startup_stm32f4xx.S:73
 8000c3e:	4b0c      	ldr	r3, [pc, #48]	; (8000c70 <LoopFillZerobss+0x12>)
C:\Users\Filip\Eclipse\Template\Debug/../STM32F4xx/Source/startup_stm32f4xx.S:74
 8000c40:	585b      	ldr	r3, [r3, r1]
C:\Users\Filip\Eclipse\Template\Debug/../STM32F4xx/Source/startup_stm32f4xx.S:75
 8000c42:	5043      	str	r3, [r0, r1]
C:\Users\Filip\Eclipse\Template\Debug/../STM32F4xx/Source/startup_stm32f4xx.S:76
 8000c44:	3104      	adds	r1, #4

08000c46 <LoopCopyDataInit>:
C:\Users\Filip\Eclipse\Template\Debug/../STM32F4xx/Source/startup_stm32f4xx.S:79
 8000c46:	480b      	ldr	r0, [pc, #44]	; (8000c74 <LoopFillZerobss+0x16>)
C:\Users\Filip\Eclipse\Template\Debug/../STM32F4xx/Source/startup_stm32f4xx.S:80
 8000c48:	4b0b      	ldr	r3, [pc, #44]	; (8000c78 <LoopFillZerobss+0x1a>)
C:\Users\Filip\Eclipse\Template\Debug/../STM32F4xx/Source/startup_stm32f4xx.S:81
 8000c4a:	1842      	adds	r2, r0, r1
C:\Users\Filip\Eclipse\Template\Debug/../STM32F4xx/Source/startup_stm32f4xx.S:82
 8000c4c:	429a      	cmp	r2, r3
C:\Users\Filip\Eclipse\Template\Debug/../STM32F4xx/Source/startup_stm32f4xx.S:83
 8000c4e:	f4ff aff6 	bcc.w	8000c3e <CopyDataInit>
C:\Users\Filip\Eclipse\Template\Debug/../STM32F4xx/Source/startup_stm32f4xx.S:84
 8000c52:	4a0a      	ldr	r2, [pc, #40]	; (8000c7c <LoopFillZerobss+0x1e>)
C:\Users\Filip\Eclipse\Template\Debug/../STM32F4xx/Source/startup_stm32f4xx.S:85
 8000c54:	f000 b803 	b.w	8000c5e <LoopFillZerobss>

08000c58 <FillZerobss>:
C:\Users\Filip\Eclipse\Template\Debug/../STM32F4xx/Source/startup_stm32f4xx.S:88
 8000c58:	2300      	movs	r3, #0
C:\Users\Filip\Eclipse\Template\Debug/../STM32F4xx/Source/startup_stm32f4xx.S:89
 8000c5a:	f842 3b04 	str.w	r3, [r2], #4

08000c5e <LoopFillZerobss>:
C:\Users\Filip\Eclipse\Template\Debug/../STM32F4xx/Source/startup_stm32f4xx.S:92
 8000c5e:	4b08      	ldr	r3, [pc, #32]	; (8000c80 <LoopFillZerobss+0x22>)
C:\Users\Filip\Eclipse\Template\Debug/../STM32F4xx/Source/startup_stm32f4xx.S:93
 8000c60:	429a      	cmp	r2, r3
C:\Users\Filip\Eclipse\Template\Debug/../STM32F4xx/Source/startup_stm32f4xx.S:94
 8000c62:	f4ff aff9 	bcc.w	8000c58 <FillZerobss>
C:\Users\Filip\Eclipse\Template\Debug/../STM32F4xx/Source/startup_stm32f4xx.S:97
 8000c66:	f7ff fb73 	bl	8000350 <SystemInit>
C:\Users\Filip\Eclipse\Template\Debug/../STM32F4xx/Source/startup_stm32f4xx.S:99
 8000c6a:	f7ff faab 	bl	80001c4 <main>
C:\Users\Filip\Eclipse\Template\Debug/../STM32F4xx/Source/startup_stm32f4xx.S:100
 8000c6e:	4770      	bx	lr
$d():
C:\Users\Filip\Eclipse\Template\Debug/../STM32F4xx/Source/startup_stm32f4xx.S:73
 8000c70:	08000c88 	.word	0x08000c88
C:\Users\Filip\Eclipse\Template\Debug/../STM32F4xx/Source/startup_stm32f4xx.S:79
 8000c74:	20000000 	.word	0x20000000
C:\Users\Filip\Eclipse\Template\Debug/../STM32F4xx/Source/startup_stm32f4xx.S:80
 8000c78:	20000024 	.word	0x20000024
C:\Users\Filip\Eclipse\Template\Debug/../STM32F4xx/Source/startup_stm32f4xx.S:84
 8000c7c:	20000024 	.word	0x20000024
C:\Users\Filip\Eclipse\Template\Debug/../STM32F4xx/Source/startup_stm32f4xx.S:92
 8000c80:	2000002c 	.word	0x2000002c

08000c84 <ADC_IRQHandler>:
RTC_Alarm_IRQHandler():
C:\Users\Filip\Eclipse\Template\Debug/../STM32F4xx/Source/startup_stm32f4xx.S:113
 8000c84:	f7ff bffe 	b.w	8000c84 <ADC_IRQHandler>
