   1              		.syntax unified
   2              		.cpu cortex-m4
   3              		.fpu softvfp
   4              		.eabi_attribute 20, 1
   5              		.eabi_attribute 21, 1
   6              		.eabi_attribute 23, 3
   7              		.eabi_attribute 24, 1
   8              		.eabi_attribute 25, 1
   9              		.eabi_attribute 26, 1
  10              		.eabi_attribute 30, 1
  11              		.eabi_attribute 34, 1
  12              		.eabi_attribute 18, 4
  13              		.thumb
  14              		.file	"measure.c"
  15              		.text
  16              	.Ltext0:
  17              		.cfi_sections	.debug_frame
  18              		.align	2
  19              		.global	Init_Measure
  20              		.thumb
  21              		.thumb_func
  23              	Init_Measure:
  24              	.LFB110:
  25              		.file 1 "../src/measure.c"
   1:../src/measure.c **** #include "measure.h"
   2:../src/measure.c **** 
   3:../src/measure.c **** __IO uint16_t ADC_Value[2];
   4:../src/measure.c **** 
   5:../src/measure.c **** void Init_Measure(void){
  26              		.loc 1 5 0
  27              		.cfi_startproc
  28              		@ args = 0, pretend = 0, frame = 112
  29              		@ frame_needed = 0, uses_anonymous_args = 0
  30 0000 2DE9F041 		push	{r4, r5, r6, r7, r8, lr}
  31              		.cfi_def_cfa_offset 24
  32              		.cfi_offset 4, -24
  33              		.cfi_offset 5, -20
  34              		.cfi_offset 6, -16
  35              		.cfi_offset 7, -12
  36              		.cfi_offset 8, -8
  37              		.cfi_offset 14, -4
  38 0004 9CB0     		sub	sp, sp, #112
  39              		.cfi_def_cfa_offset 136
   6:../src/measure.c **** 	ADC_InitTypeDef       ADC_InitStructure;
   7:../src/measure.c **** 	ADC_CommonInitTypeDef ADC_CommonInitStructure;
   8:../src/measure.c **** 	DMA_InitTypeDef       DMA_InitStructure;
   9:../src/measure.c **** 	GPIO_InitTypeDef      GPIO_InitStructure;
  10:../src/measure.c **** 	
  11:../src/measure.c ****   RCC_AHB1PeriphClockCmd(RCC_AHB1Periph_DMA2 | RCC_AHB1Periph_GPIOC, ENABLE);
  40              		.loc 1 11 0
  41 0006 3E48     		ldr	r0, .L2
  42 0008 0121     		movs	r1, #1
  43 000a FFF7FEFF 		bl	RCC_AHB1PeriphClockCmd
  44              	.LVL0:
  12:../src/measure.c ****   RCC_APB2PeriphClockCmd(RCC_APB2Periph_ADC1 | RCC_APB2Periph_ADC2, ENABLE);
  45              		.loc 1 12 0
  46 000e 4FF44070 		mov	r0, #768
  47 0012 0121     		movs	r1, #1
  48 0014 FFF7FEFF 		bl	RCC_APB2PeriphClockCmd
  49              	.LVL1:
  13:../src/measure.c **** 
  14:../src/measure.c ****   /* Configure ADC Channel 11 and 12 pin as analog input */ 
  15:../src/measure.c ****   GPIO_InitStructure.GPIO_Pin = GPIO_Pin_2 | GPIO_Pin_3;
  50              		.loc 1 15 0
  51 0018 4FF00C08 		mov	r8, #12
  52 001c CDF80480 		str	r8, [sp, #4]
  16:../src/measure.c ****   GPIO_InitStructure.GPIO_Mode = GPIO_Mode_AN;
  53              		.loc 1 16 0
  54 0020 0323     		movs	r3, #3
  55 0022 8DF80830 		strb	r3, [sp, #8]
  17:../src/measure.c ****   GPIO_InitStructure.GPIO_PuPd = GPIO_PuPd_NOPULL ;
  56              		.loc 1 17 0
  57 0026 0024     		movs	r4, #0
  58 0028 8DF80B40 		strb	r4, [sp, #11]
  18:../src/measure.c ****   GPIO_Init(GPIOC, &GPIO_InitStructure);
  59              		.loc 1 18 0
  60 002c 3548     		ldr	r0, .L2+4
  61 002e 01A9     		add	r1, sp, #4
  62 0030 FFF7FEFF 		bl	GPIO_Init
  63              	.LVL2:
  19:../src/measure.c **** 
  20:../src/measure.c ****   /* DMA2 Stream0 channel0 configuration */
  21:../src/measure.c ****   DMA_InitStructure.DMA_Channel = DMA_Channel_0;  
  64              		.loc 1 21 0
  65 0034 0394     		str	r4, [sp, #12]
  22:../src/measure.c ****   DMA_InitStructure.DMA_PeripheralBaseAddr = (uint32_t) &(ADC->CDR);
  66              		.loc 1 22 0
  67 0036 344B     		ldr	r3, .L2+8
  68 0038 0493     		str	r3, [sp, #16]
  23:../src/measure.c ****   DMA_InitStructure.DMA_Memory0BaseAddr = (uint32_t) ADC_Value;
  69              		.loc 1 23 0
  70 003a 344B     		ldr	r3, .L2+12
  71 003c 0593     		str	r3, [sp, #20]
  24:../src/measure.c ****   DMA_InitStructure.DMA_DIR = DMA_DIR_PeripheralToMemory;
  72              		.loc 1 24 0
  73 003e 0694     		str	r4, [sp, #24]
  25:../src/measure.c ****   DMA_InitStructure.DMA_BufferSize = 1;
  74              		.loc 1 25 0
  75 0040 0125     		movs	r5, #1
  76 0042 0795     		str	r5, [sp, #28]
  26:../src/measure.c ****   DMA_InitStructure.DMA_PeripheralInc = DMA_PeripheralInc_Disable;
  77              		.loc 1 26 0
  78 0044 0894     		str	r4, [sp, #32]
  27:../src/measure.c ****   DMA_InitStructure.DMA_MemoryInc = DMA_MemoryInc_Enable;
  79              		.loc 1 27 0
  80 0046 4FF48063 		mov	r3, #1024
  81 004a 0993     		str	r3, [sp, #36]
  28:../src/measure.c ****   DMA_InitStructure.DMA_PeripheralDataSize = DMA_PeripheralDataSize_Word;
  82              		.loc 1 28 0
  83 004c 4FF48053 		mov	r3, #4096
  84 0050 0A93     		str	r3, [sp, #40]
  29:../src/measure.c ****   DMA_InitStructure.DMA_MemoryDataSize = DMA_MemoryDataSize_Word;
  85              		.loc 1 29 0
  86 0052 4FF48043 		mov	r3, #16384
  87 0056 0B93     		str	r3, [sp, #44]
  30:../src/measure.c ****   DMA_InitStructure.DMA_Mode = DMA_Mode_Circular;
  88              		.loc 1 30 0
  89 0058 4FF48073 		mov	r3, #256
  90 005c 0C93     		str	r3, [sp, #48]
  31:../src/measure.c ****   DMA_InitStructure.DMA_Priority = DMA_Priority_High;
  91              		.loc 1 31 0
  92 005e 4FF40033 		mov	r3, #131072
  93 0062 0D93     		str	r3, [sp, #52]
  32:../src/measure.c ****   DMA_InitStructure.DMA_FIFOMode = DMA_FIFOMode_Disable;         
  94              		.loc 1 32 0
  95 0064 0E94     		str	r4, [sp, #56]
  33:../src/measure.c ****   DMA_InitStructure.DMA_FIFOThreshold = DMA_FIFOThreshold_HalfFull;
  96              		.loc 1 33 0
  97 0066 0F95     		str	r5, [sp, #60]
  34:../src/measure.c ****   DMA_InitStructure.DMA_MemoryBurst = DMA_MemoryBurst_Single;
  98              		.loc 1 34 0
  99 0068 1094     		str	r4, [sp, #64]
  35:../src/measure.c ****   DMA_InitStructure.DMA_PeripheralBurst = DMA_PeripheralBurst_Single;
 100              		.loc 1 35 0
 101 006a 1194     		str	r4, [sp, #68]
  36:../src/measure.c ****   DMA_Init(DMA2_Stream0, &DMA_InitStructure);
 102              		.loc 1 36 0
 103 006c 284E     		ldr	r6, .L2+16
 104 006e 3046     		mov	r0, r6
 105 0070 0DEB0801 		add	r1, sp, r8
 106 0074 FFF7FEFF 		bl	DMA_Init
 107              	.LVL3:
  37:../src/measure.c **** 
  38:../src/measure.c ****   /* DMA2_Stream0 enable */
  39:../src/measure.c ****   DMA_Cmd(DMA2_Stream0, ENABLE);
 108              		.loc 1 39 0
 109 0078 3046     		mov	r0, r6
 110 007a 2946     		mov	r1, r5
 111 007c FFF7FEFF 		bl	DMA_Cmd
 112              	.LVL4:
  40:../src/measure.c **** 
  41:../src/measure.c **** 
  42:../src/measure.c **** /******************************************************************************/
  43:../src/measure.c **** /*  ADCs configuration: double interleaved with 5cycles delay to reach 6Msps  */
  44:../src/measure.c **** /******************************************************************************/
  45:../src/measure.c **** 
  46:../src/measure.c ****   /* ADC Common configuration *************************************************/
  47:../src/measure.c ****   ADC_CommonInitStructure.ADC_Mode = ADC_DualMode_Interl;
 113              		.loc 1 47 0
 114 0080 0723     		movs	r3, #7
 115 0082 1293     		str	r3, [sp, #72]
  48:../src/measure.c ****   ADC_CommonInitStructure.ADC_TwoSamplingDelay = ADC_TwoSamplingDelay_5Cycles;
 116              		.loc 1 48 0
 117 0084 1594     		str	r4, [sp, #84]
  49:../src/measure.c ****   ADC_CommonInitStructure.ADC_DMAAccessMode = ADC_DMAAccessMode_2;  
 118              		.loc 1 49 0
 119 0086 4FF40043 		mov	r3, #32768
 120 008a 1493     		str	r3, [sp, #80]
  50:../src/measure.c ****   ADC_CommonInitStructure.ADC_Prescaler = ADC_Prescaler_Div2; 
 121              		.loc 1 50 0
 122 008c 1394     		str	r4, [sp, #76]
  51:../src/measure.c ****   ADC_CommonInit(&ADC_CommonInitStructure);
 123              		.loc 1 51 0
 124 008e 12A8     		add	r0, sp, #72
 125 0090 FFF7FEFF 		bl	ADC_CommonInit
 126              	.LVL5:
  52:../src/measure.c **** 
  53:../src/measure.c ****   /* ADC1 regular channel 12 configuration ************************************/
  54:../src/measure.c ****   ADC_InitStructure.ADC_Resolution = ADC_Resolution_12b;
 127              		.loc 1 54 0
 128 0094 1694     		str	r4, [sp, #88]
  55:../src/measure.c ****   ADC_InitStructure.ADC_ScanConvMode = DISABLE;
 129              		.loc 1 55 0
 130 0096 8DF85C40 		strb	r4, [sp, #92]
  56:../src/measure.c ****   ADC_InitStructure.ADC_ContinuousConvMode = ENABLE;
 131              		.loc 1 56 0
 132 009a 8DF85D50 		strb	r5, [sp, #93]
  57:../src/measure.c ****   ADC_InitStructure.ADC_ExternalTrigConvEdge = ADC_ExternalTrigConvEdge_None;
 133              		.loc 1 57 0
 134 009e 1894     		str	r4, [sp, #96]
  58:../src/measure.c ****   ADC_InitStructure.ADC_DataAlign = ADC_DataAlign_Right;
 135              		.loc 1 58 0
 136 00a0 1A94     		str	r4, [sp, #104]
  59:../src/measure.c ****   ADC_InitStructure.ADC_NbrOfConversion = 1;
 137              		.loc 1 59 0
 138 00a2 8DF86C50 		strb	r5, [sp, #108]
  60:../src/measure.c ****   ADC_Init(ADC1, &ADC_InitStructure);
 139              		.loc 1 60 0
 140 00a6 A6F5A236 		sub	r6, r6, #82944
 141 00aa 103E     		subs	r6, r6, #16
 142 00ac 3046     		mov	r0, r6
 143 00ae 16A9     		add	r1, sp, #88
 144 00b0 FFF7FEFF 		bl	ADC_Init
 145              	.LVL6:
  61:../src/measure.c **** 	ADC_Init(ADC2, &ADC_InitStructure);
 146              		.loc 1 61 0
 147 00b4 174F     		ldr	r7, .L2+20
 148 00b6 3846     		mov	r0, r7
 149 00b8 16A9     		add	r1, sp, #88
 150 00ba FFF7FEFF 		bl	ADC_Init
 151              	.LVL7:
  62:../src/measure.c **** 
  63:../src/measure.c ****   ADC_RegularChannelConfig(ADC1, ADC_Channel_12, 1, ADC_SampleTime_3Cycles);
 152              		.loc 1 63 0
 153 00be 3046     		mov	r0, r6
 154 00c0 4146     		mov	r1, r8
 155 00c2 2A46     		mov	r2, r5
 156 00c4 2346     		mov	r3, r4
 157 00c6 FFF7FEFF 		bl	ADC_RegularChannelConfig
 158              	.LVL8:
  64:../src/measure.c ****   ADC_RegularChannelConfig(ADC2, ADC_Channel_13, 1, ADC_SampleTime_3Cycles);
 159              		.loc 1 64 0
 160 00ca 3846     		mov	r0, r7
 161 00cc 0D21     		movs	r1, #13
 162 00ce 2A46     		mov	r2, r5
 163 00d0 2346     		mov	r3, r4
 164 00d2 FFF7FEFF 		bl	ADC_RegularChannelConfig
 165              	.LVL9:
  65:../src/measure.c **** 	
  66:../src/measure.c ****   ADC_DMACmd(ADC1, ENABLE);
 166              		.loc 1 66 0
 167 00d6 3046     		mov	r0, r6
 168 00d8 2946     		mov	r1, r5
 169 00da FFF7FEFF 		bl	ADC_DMACmd
 170              	.LVL10:
  67:../src/measure.c ****   ADC_MultiModeDMARequestAfterLastTransferCmd(ENABLE);
 171              		.loc 1 67 0
 172 00de 2846     		mov	r0, r5
 173 00e0 FFF7FEFF 		bl	ADC_MultiModeDMARequestAfterLastTransferCmd
 174              	.LVL11:
  68:../src/measure.c **** 
  69:../src/measure.c ****   ADC_Cmd(ADC1, ENABLE);
 175              		.loc 1 69 0
 176 00e4 3046     		mov	r0, r6
 177 00e6 2946     		mov	r1, r5
 178 00e8 FFF7FEFF 		bl	ADC_Cmd
 179              	.LVL12:
  70:../src/measure.c ****   ADC_Cmd(ADC2, ENABLE);
 180              		.loc 1 70 0
 181 00ec 3846     		mov	r0, r7
 182 00ee 2946     		mov	r1, r5
 183 00f0 FFF7FEFF 		bl	ADC_Cmd
 184              	.LVL13:
  71:../src/measure.c **** 	
  72:../src/measure.c ****   ADC_SoftwareStartConv(ADC1);
 185              		.loc 1 72 0
 186 00f4 3046     		mov	r0, r6
 187 00f6 FFF7FEFF 		bl	ADC_SoftwareStartConv
 188              	.LVL14:
  73:../src/measure.c **** }
 189              		.loc 1 73 0
 190 00fa 1CB0     		add	sp, sp, #112
 191              		@ sp needed
 192 00fc BDE8F081 		pop	{r4, r5, r6, r7, r8, pc}
 193              	.L3:
 194              		.align	2
 195              	.L2:
 196 0100 04004000 		.word	4194308
 197 0104 00080240 		.word	1073874944
 198 0108 08230140 		.word	1073816328
 199 010c 00000000 		.word	ADC_Value
 200 0110 10640240 		.word	1073898512
 201 0114 00210140 		.word	1073815808
 202              		.cfi_endproc
 203              	.LFE110:
 205              		.comm	ADC_Value,4,4
 206              	.Letext0:
 207              		.file 2 "c:\\program files (x86)\\gnu tools arm embedded\\4.8 2014q2\\arm-none-eabi\\include\\mach
 208              		.file 3 "c:\\program files (x86)\\gnu tools arm embedded\\4.8 2014q2\\arm-none-eabi\\include\\stdi
 209              		.file 4 "C:\\Users\\Filip\\Git\\STM32F4Discovery\\Eclipse\\WattMetr\\STM32F4xx\\Include/stm32f4xx.
 210              		.file 5 "C:\\Users\\Filip\\Git\\STM32F4Discovery\\Eclipse\\WattMetr\\STM32F4xx_StdPeriph_Driver\\i
 211              		.file 6 "C:\\Users\\Filip\\Git\\STM32F4Discovery\\Eclipse\\WattMetr\\STM32F4xx_StdPeriph_Driver\\i
 212              		.file 7 "C:\\Users\\Filip\\Git\\STM32F4Discovery\\Eclipse\\WattMetr\\STM32F4xx_StdPeriph_Driver\\i
 213              		.file 8 "C:\\Users\\Filip\\Git\\STM32F4Discovery\\Eclipse\\WattMetr\\CMSIS\\Include/core_cm4.h"
 214              		.file 9 "C:\\Users\\Filip\\Git\\STM32F4Discovery\\Eclipse\\WattMetr\\STM32F4xx_StdPeriph_Driver\\i