
MutalInductionTester.elf:     file format elf32-littlearm
MutalInductionTester.elf
architecture: arm, flags 0x00000112:
EXEC_P, HAS_SYMS, D_PAGED
start address 0x080022ed

Program Header:
    LOAD off    0x00008000 vaddr 0x08000000 paddr 0x08000000 align 2**15
         filesz 0x00002458 memsz 0x00002458 flags r-x
    LOAD off    0x00010000 vaddr 0x20000000 paddr 0x08002458 align 2**15
         filesz 0x00000038 memsz 0x00000480 flags rw-
private flags = 5000002: [Version5 EABI] [has entry point]

Sections:
Idx Name          Size      VMA       LMA       File off  Algn  Flags
  0 .isr_vector   00000188  08000000  08000000  00008000  2**0  CONTENTS, ALLOC, LOAD, READONLY, DATA
  1 .text         000022d0  08000188  08000188  00008188  2**2  CONTENTS, ALLOC, LOAD, READONLY, CODE
  2 .data         00000038  20000000  08002458  00010000  2**2  CONTENTS, ALLOC, LOAD, DATA
  3 .bss          00000048  20000038  08002490  00010038  2**2  ALLOC
  4 ._user_heap_stack 00000400  20000080  080024d8  00010038  2**0  ALLOC
  5 .ARM.attributes 00000031  00000000  00000000  00010038  2**0  CONTENTS, READONLY
  6 .debug_info   00007ce7  00000000  00000000  00010069  2**0  CONTENTS, READONLY, DEBUGGING
  7 .debug_abbrev 00001564  00000000  00000000  00017d50  2**0  CONTENTS, READONLY, DEBUGGING
  8 .debug_loc    00003562  00000000  00000000  000192b4  2**0  CONTENTS, READONLY, DEBUGGING
  9 .debug_aranges 000001a8  00000000  00000000  0001c818  2**3  CONTENTS, READONLY, DEBUGGING
 10 .debug_macro  0000f823  00000000  00000000  0001c9c0  2**0  CONTENTS, READONLY, DEBUGGING
 11 .debug_line   000047f4  00000000  00000000  0002c1e3  2**0  CONTENTS, READONLY, DEBUGGING
 12 .debug_str    00058ae8  00000000  00000000  000309d7  2**0  CONTENTS, READONLY, DEBUGGING
 13 .comment      00000070  00000000  00000000  000894bf  2**0  CONTENTS, READONLY
 14 .debug_frame  00001220  00000000  00000000  00089530  2**2  CONTENTS, READONLY, DEBUGGING
 15 .debug_ranges 00000020  00000000  00000000  0008a750  2**3  CONTENTS, READONLY, DEBUGGING
SYMBOL TABLE:
08000000 l    d  .isr_vector	00000000 .isr_vector
08000188 l    d  .text	00000000 .text
20000000 l    d  .data	00000000 .data
20000038 l    d  .bss	00000000 .bss
20000080 l    d  ._user_heap_stack	00000000 ._user_heap_stack
00000000 l    d  .ARM.attributes	00000000 .ARM.attributes
00000000 l    d  .debug_info	00000000 .debug_info
00000000 l    d  .debug_abbrev	00000000 .debug_abbrev
00000000 l    d  .debug_loc	00000000 .debug_loc
00000000 l    d  .debug_aranges	00000000 .debug_aranges
00000000 l    d  .debug_macro	00000000 .debug_macro
00000000 l    d  .debug_line	00000000 .debug_line
00000000 l    d  .debug_str	00000000 .debug_str
00000000 l    d  .comment	00000000 .comment
00000000 l    d  .debug_frame	00000000 .debug_frame
00000000 l    d  .debug_ranges	00000000 .debug_ranges
00000000 l    df *ABS*	00000000 ./STM32F4xx/Source/startup_stm32f4xx.o
080022fa l       .text	00000000 LoopCopyDataInit
080022f2 l       .text	00000000 CopyDataInit
08002312 l       .text	00000000 LoopFillZerobss
0800230c l       .text	00000000 FillZerobss
08002338 l       .text	00000000 Infinite_Loop
00000000 l    df *ABS*	00000000 comunication.c
00000000 l    df *ABS*	00000000 main.c
00000000 l    df *ABS*	00000000 stm32f4xx_it.c
00000000 l    df *ABS*	00000000 system_stm32f4xx.c
08000694 l     F .text	000000c0 SetSysClock
00000000 l    df *ABS*	00000000 misc.c
00000000 l    df *ABS*	00000000 stm32f4xx_exti.c
00000000 l    df *ABS*	00000000 stm32f4xx_gpio.c
00000000 l    df *ABS*	00000000 stm32f4xx_rcc.c
20000014 l     O .data	00000010 APBAHBPrescTable
00000000 l    df *ABS*	00000000 stm32f4xx_syscfg.c
00000000 l    df *ABS*	00000000 stm32f4xx_tim.c
08001190 l     F .text	00000038 TI1_Config
080011c8 l     F .text	00000040 TI2_Config
08001208 l     F .text	0000003c TI3_Config
08001244 l     F .text	00000040 TI4_Config
00000000 l    df *ABS*	00000000 stm32f4xx_usart.c
00000000 l    df *ABS*	00000000 stm32f4_discovery.c
00000000 l    df *ABS*	00000000 
00000400 l       *ABS*	00000000 _Min_Stack_Size
00000000 l       *ABS*	00000000 _Min_Heap_Size
08002338  w    F .text	00000004 RTC_Alarm_IRQHandler
08001498 g     F .text	00000012 TIM_TimeBaseStructInit
08002338  w    F .text	00000004 HASH_RNG_IRQHandler
08002338  w    F .text	00000004 EXTI2_IRQHandler
080021b4 g     F .text	00000048 STM_EVAL_LEDInit
08002078 g     F .text	00000012 USART_SetGuardTime
0800110c g     F .text	00000018 SYSCFG_DeInit
08002338  w    F .text	00000004 TIM8_CC_IRQHandler
08000ca4 g     F .text	0000000c RCC_HSICmd
080017ec g     F .text	00000014 TIM_ForcedOC2Config
08000d04 g     F .text	0000000c RCC_PLLCmd
08000608 g     F .text	00000014 DebugMon_Handler
080017d0 g     F .text	00000004 TIM_SetCompare2
08000d10 g     F .text	00000014 RCC_PLLI2SConfig
08000c1c g     F .text	0000002e GPIO_PinAFConfig
08001b70 g     F .text	0000001c TIM_SelectCOM
08001100 g     F .text	0000000c RCC_ClearITPendingBit
08000be8 g     F .text	0000000c GPIO_ReadOutputDataBit
08001978 g     F .text	00000020 TIM_CCxCmd
08001a90 g     F .text	0000001a TIM_SetIC4Prescaler
08001b8c g     F .text	0000001c TIM_CCPreloadControl
08002338  w    F .text	00000004 TIM1_CC_IRQHandler
08002338  w    F .text	00000004 DMA2_Stream5_IRQHandler
080005a4 g     F .text	00000014 HardFault_Handler
08002254 g     F .text	00000080 STM_EVAL_PBInit
08002338  w    F .text	00000004 DMA1_Stream5_IRQHandler
08001824 g     F .text	00000010 TIM_OC1PreloadConfig
08000674 g     F .text	00000020 SysTick_Handler
08000838 g     F .text	00000074 NVIC_Init
08000f68 g     F .text	0000001c RCC_AHB2PeriphResetCmd
08002338  w    F .text	00000004 PVD_IRQHandler
08002338  w    F .text	00000004 SDIO_IRQHandler
08002338  w    F .text	00000004 TAMP_STAMP_IRQHandler
08002458 g       .text	00000000 _sidata
0800061c g     F .text	00000014 PendSV_Handler
08000590 g     F .text	00000014 NMI_Handler
08002458 g       .data	00000000 __exidx_end
08002338  w    F .text	00000004 CAN2_RX1_IRQHandler
08002338  w    F .text	00000004 EXTI3_IRQHandler
08001d14 g     F .text	00000014 TIM_ETRClockMode2Config
2000003c g     O .bss	00000004 Last_Send
08001064 g     F .text	0000001c RCC_ITConfig
08001904 g     F .text	00000010 TIM_OC1NPolarityConfig
080017dc g     F .text	00000010 TIM_ForcedOC1Config
08001c00 g     F .text	00000018 TIM_DMACmd
08001cf8 g     F .text	0000001a TIM_ETRClockMode1Config
08002338  w    F .text	00000004 TIM8_TRG_COM_TIM14_IRQHandler
08000304 g     F .text	00000054 proccess_rx
08001a78 g     F .text	00000016 TIM_SetIC3Prescaler
08002338  w    F .text	00000004 TIM1_UP_TIM10_IRQHandler
08000f4c g     F .text	0000001c RCC_AHB1PeriphResetCmd
0800208c g     F .text	0000001c USART_SmartCardCmd
08002148 g     F .text	0000000c USART_GetFlagStatus
080018d4 g     F .text	00000010 TIM_ClearOC3Ref
08002458 g       .text	00000000 _etext
20000038 g       .bss	00000000 _sbss
08000d64 g     F .text	00000014 RCC_SYSCLKConfig
08002338  w    F .text	00000004 TIM8_UP_TIM13_IRQHandler
08002338  w    F .text	00000004 I2C3_ER_IRQHandler
080008f4 g     F .text	0000001c EXTI_DeInit
080010a8 g     F .text	00000032 RCC_WaitForHSEStartUp
08001fd0 g     F .text	00000016 USART_SetAddress
08001f74 g     F .text	00000012 USART_SetPrescaler
20000034 g     O .data	00000004 BUTTON_PORT
08000ea8 g     F .text	0000000c RCC_BackupResetCmd
08001fa4 g     F .text	0000001c USART_OneBitMethodCmd
08001b4c g     F .text	00000024 TIM_CtrlPWMOutputs
080008ac g     F .text	00000014 NVIC_SetVectorTable
08000d30 g     F .text	0000000c RCC_ClockSecuritySystemCmd
08000630 g     F .text	00000012 EXTI0_IRQHandler
08002338  w    F .text	00000004 I2C2_EV_IRQHandler
080010dc g     F .text	00000010 RCC_ClearFlag
08002364 g     O .text	00000004 BUTTON_CLK
0800155c g     F .text	0000001c TIM_Cmd
08002338  w    F .text	00000004 DMA1_Stream2_IRQHandler
08002338  w    F .text	00000004 CAN1_RX0_IRQHandler
08001858 g     F .text	00000014 TIM_OC4PreloadConfig
08002338  w    F .text	00000004 FPU_IRQHandler
20000000 g     O .data	00000004 SystemCoreClock
08002338  w    F .text	00000004 OTG_HS_WKUP_IRQHandler
08001fc8 g     F .text	00000008 USART_ReceiveData
080002d8 g     F .text	0000002a StringToInt
08000c80 g     F .text	00000010 RCC_HSEConfig
08001bd0 g     F .text	00000008 TIM_ClearFlag
08000c14 g     F .text	00000008 GPIO_ToggleBits
08001bf0 g     F .text	00000008 TIM_ClearITPendingBit
080005e0 g     F .text	00000014 UsageFault_Handler
080014cc g     F .text	00000004 TIM_GetCounter
08000f30 g     F .text	0000001c RCC_APB2PeriphClockCmd
080019d0 g     F .text	00000004 TIM_GetCapture3
08002338  w    F .text	00000004 CAN2_SCE_IRQHandler
08002338  w    F .text	00000004 DMA2_Stream2_IRQHandler
08000b0c g     F .text	00000090 GPIO_Init
08000ce4 g     F .text	00000020 RCC_PLLConfig
20000038 g       .bss	00000000 __bss_start__
0800234c g     O .text	00000008 GPIO_PIN
20000000 g       .data	00000000 _sdata
08002338  w    F .text	00000004 SPI1_IRQHandler
08001f58 g     F .text	0000001c USART_Cmd
080019c8 g     F .text	00000004 TIM_GetCapture1
08001010 g     F .text	0000001c RCC_AHB3PeriphClockLPModeCmd
080020dc g     F .text	0000001c USART_IrDACmd
080008dc g     F .text	00000018 SysTick_CLKSourceConfig
08000c10 g     F .text	00000004 GPIO_Write
08002338  w    F .text	00000004 TIM6_DAC_IRQHandler
08000bf4 g     F .text	00000006 GPIO_ReadOutputData
08001674 g     F .text	00000088 TIM_OC3Init
08002338  w    F .text	00000004 TIM1_BRK_TIM9_IRQHandler
08000cb0 g     F .text	00000028 RCC_LSEConfig
08002338  w    F .text	00000004 DCMI_IRQHandler
080021a4 g     F .text	0000000e USART_ClearITPendingBit
08002338  w    F .text	00000004 CAN2_RX0_IRQHandler
08000e9c g     F .text	0000000c RCC_RTCCLKCmd
08001284 g     F .text	00000198 TIM_DeInit
08000f14 g     F .text	0000001c RCC_APB1PeriphClockCmd
080010ec g     F .text	00000014 RCC_GetITStatus
08002458 g       .data	00000000 __exidx_start
08002338  w    F .text	00000004 DMA2_Stream3_IRQHandler
08001bc4 g     F .text	0000000c TIM_GetFlagStatus
08000edc g     F .text	0000001c RCC_AHB2PeriphClockCmd
08001890 g     F .text	00000010 TIM_OC3FastConfig
08001c18 g     F .text	0000001c TIM_SelectCCDMA
08000238 g     F .text	00000024 USART_SendString
08001f88 g     F .text	0000001c USART_OverSampling8Cmd
08000358 g     F .text	0000005c USART6_IRQHandler
08001170 g     F .text	0000000c SYSCFG_CompensationCellCmd
08001544 g     F .text	00000016 TIM_SetClockDivision
08000d3c g     F .text	00000014 RCC_MCO1Config
080003b4 g     F .text	00000030 init_output
08002338  w    F .text	00000004 USART3_IRQHandler
080009fc g     F .text	0000000c EXTI_ClearITPendingBit
20000044 g     O .bss	00000004 TimingDelay
08002338  w    F .text	00000004 CRYP_IRQHandler
20000080 g       .bss	00000000 _ebss
0800215c g     F .text	00000046 USART_GetITStatus
08001578 g     F .text	00000070 TIM_OC1Init
08001848 g     F .text	00000010 TIM_OC3PreloadConfig
080022ec  w    F .text	00000038 Reset_Handler
08000be0 g     F .text	00000006 GPIO_ReadInputData
080014c8 g     F .text	00000004 TIM_SetAutoreload
0800201c g     F .text	00000016 USART_LINBreakDetectLengthConfig
08002338  w    F .text	00000004 CAN1_RX1_IRQHandler
08002338  w    F .text	00000004 UART5_IRQHandler
08001080 g     F .text	00000028 RCC_GetFlagStatus
08002338  w    F .text	00000004 DMA2_Stream0_IRQHandler
080003e4 g     F .text	000000f4 timer_init
20000048 g     O .bss	00000032 rx_buffer
08000bfc g     F .text	00000004 GPIO_SetBits
08000564 g     F .text	0000002c TIM4_IRQHandler
080009c0 g     F .text	00000014 EXTI_GetFlagStatus
08000d78 g     F .text	00000010 RCC_GetSYSCLKSource
08001510 g     F .text	0000001c TIM_ARRPreloadConfig
08000c04 g     F .text	0000000a GPIO_WriteBit
08002338  w    F .text	00000004 I2C1_EV_IRQHandler
08002368 g     O .text	00000002 BUTTON_PIN
08002338  w    F .text	00000004 DMA1_Stream6_IRQHandler
08001bd8 g     F .text	00000016 TIM_GetITStatus
08000f84 g     F .text	0000001c RCC_AHB3PeriphResetCmd
08000dc4 g     F .text	000000a8 RCC_GetClocksFreq
08002338  w    F .text	00000004 DMA1_Stream1_IRQHandler
0800177c g     F .text	00000050 TIM_SelectOCxM
08001048 g     F .text	0000001c RCC_APB2PeriphClockLPModeCmd
08002338  w    F .text	00000004 UART4_IRQHandler
080009b0 g     F .text	00000010 EXTI_GenerateSWInterrupt
08001e48 g     F .text	000000cc USART_Init
20000080 g       .bss	00000000 __bss_end__
20000024 g     O .data	00000010 GPIO_PORT
08001d84 g     F .text	00000006 TIM_RemapConfig
08002338  w    F .text	00000004 TIM3_IRQHandler
08002338  w    F .text	00000004 RCC_IRQHandler
08002338  w    F .text	00000004 TIM8_BRK_TIM12_IRQHandler
0800186c g     F .text	00000010 TIM_OC1FastConfig
08002338 g       .text	00000004 Default_Handler
20000004 g     O .data	00000010 AHBPrescTable
0800205c g     F .text	0000001c USART_HalfDuplexCmd
080009d4 g     F .text	0000000c EXTI_ClearFlag
08000e6c g     F .text	00000030 RCC_RTCCLKConfig
08001834 g     F .text	00000014 TIM_OC2PreloadConfig
08001c44 g     F .text	00000010 TIM_SelectInputTrigger
08002338  w    F .text	00000004 EXTI15_10_IRQHandler
08002218 g     F .text	0000001c STM_EVAL_LEDOff
08001ba8 g     F .text	00000018 TIM_ITConfig
080015e8 g     F .text	0000008c TIM_OC2Init
08002338  w    F .text	00000004 ADC_IRQHandler
08002110 g     F .text	00000038 USART_ITConfig
08000910 g     F .text	00000090 EXTI_Init
08000d24 g     F .text	0000000c RCC_PLLI2SCmd
08002338  w    F .text	00000004 DMA1_Stream7_IRQHandler
080014ac g     F .text	00000006 TIM_PrescalerConfig
20000040 g     O .bss	00000004 Last_Blink
08000c00 g     F .text	00000004 GPIO_ResetBits
08001964 g     F .text	00000014 TIM_OC4PolarityConfig
08001c98 g     F .text	00000016 TIM_SelectOutputTrigger
08002338  w    F .text	00000004 TIM7_IRQHandler
08002338  w    F .text	00000004 CAN2_TX_IRQHandler
08002338  w    F .text	00000004 TIM5_IRQHandler
080020c4 g     F .text	00000016 USART_IrDAConfig
080017d4 g     F .text	00000004 TIM_SetCompare3
08002338  w    F .text	00000004 DMA2_Stream7_IRQHandler
080016fc g     F .text	0000006c TIM_OC4Init
08002338  w    F .text	00000004 I2C3_EV_IRQHandler
0800233c g     O .text	00000010 GPIO_CLK
08001d68 g     F .text	0000001c TIM_SelectHallSensor
08002338  w    F .text	00000004 EXTI9_5_IRQHandler
08002338  w    F .text	00000004 RTC_WKUP_IRQHandler
0800102c g     F .text	0000001c RCC_APB1PeriphClockLPModeCmd
08002338  w    F .text	00000004 ETH_WKUP_IRQHandler
080019d8 g     F .text	00000016 TIM_SetIC1Prescaler
08001d8c g     F .text	000000bc USART_DeInit
080009e0 g     F .text	0000001c EXTI_GetITStatus
08001810 g     F .text	00000014 TIM_ForcedOC4Config
08002338  w    F .text	00000004 SPI2_IRQHandler
08002338  w    F .text	00000004 OTG_HS_EP1_IN_IRQHandler
08001124 g     F .text	0000000c SYSCFG_MemoryRemapConfig
080005b8 g     F .text	00000014 MemManage_Handler
08000c90 g     F .text	00000014 RCC_AdjustHSICalibrationValue
080004d8 g     F .text	0000008c main
08002338  w    F .text	00000004 DMA1_Stream0_IRQHandler
08001f2c g     F .text	00000020 USART_ClockInit
08001c54 g     F .text	00000014 TIM_ITRxExternalClockConfig
0800193c g     F .text	00000014 TIM_OC3PolarityConfig
08000fd8 g     F .text	0000001c RCC_AHB1PeriphClockLPModeCmd
08002338  w    F .text	00000004 CAN1_TX_IRQHandler
080005f4 g     F .text	00000014 SVC_Handler
08002050 g     F .text	0000000c USART_SendBreak
08000298 g     F .text	00000040 USART_SendHex
08001c34 g     F .text	0000000e TIM_InternalClockConfig
080018f4 g     F .text	00000010 TIM_OC1PolarityConfig
0800187c g     F .text	00000014 TIM_OC2FastConfig
08000d9c g     F .text	00000014 RCC_PCLK1Config
08002358 g     O .text	00000001 BUTTON_PIN_SOURCE
080009a0 g     F .text	0000000e EXTI_StructInit
080014c4 g     F .text	00000004 TIM_SetCounter
08002338  w    F .text	00000004 EXTI4_IRQHandler
08000db0 g     F .text	00000014 RCC_PCLK2Config
080017d8 g     F .text	00000004 TIM_SetCompare4
080019cc g     F .text	00000004 TIM_GetCapture2
08002154 g     F .text	00000008 USART_ClearFlag
080014d0 g     F .text	00000006 TIM_GetPrescaler
080018c4 g     F .text	00000010 TIM_ClearOC2Ref
08000754 g     F .text	00000044 SystemInit
08001aac g     F .text	00000062 TIM_ICInit
08000a08 g     F .text	00000104 GPIO_DeInit
08001164 g     F .text	0000000c SYSCFG_ETH_MediaInterfaceConfig
0800025c g     F .text	0000003c USART_SendNumber
08000c4c g     F .text	00000034 RCC_DeInit
080019b8 g     F .text	00000010 TIM_ICStructInit
08001a0c g     F .text	0000006a TIM_PWMIConfig
08000d50 g     F .text	00000014 RCC_MCO2Config
08002338  w    F .text	00000004 FSMC_IRQHandler
08002338  w    F .text	00000004 ETH_IRQHandler
0800117c g     F .text	00000014 SYSCFG_GetCompensationCellStatus
08002338  w    F .text	00000004 OTG_HS_EP1_OUT_IRQHandler
08001928 g     F .text	00000014 TIM_OC2NPolarityConfig
080008c0 g     F .text	0000001c NVIC_SystemLPConfig
080018b4 g     F .text	00000010 TIM_ClearOC1Ref
08002338  w    F .text	00000004 WWDG_IRQHandler
08000ff4 g     F .text	0000001c RCC_AHB2PeriphClockLPModeCmd
08000fa0 g     F .text	0000001c RCC_APB1PeriphResetCmd
08000188 g     F .text	000000b0 Init_Comunication
08000644 g     F .text	0000001c Delay
080022d4 g     F .text	00000018 STM_EVAL_PBGetState
08002338  w    F .text	00000004 TIM2_IRQHandler
080014f4 g     F .text	0000001c TIM_UpdateRequestConfig
08001800 g     F .text	00000010 TIM_ForcedOC3Config
08001c68 g     F .text	00000030 TIM_TIxExternalClockConfig
08002004 g     F .text	00000016 USART_WakeUpConfig
08000b9c g     F .text	00000012 GPIO_StructInit
08002234 g     F .text	00000020 STM_EVAL_LEDToggle
08002338  w    F .text	00000004 OTG_FS_WKUP_IRQHandler
08002360 g     O .text	00000002 BUTTON_EXTI_LINE
08002338  w    F .text	00000004 TIM1_TRG_COM_TIM11_IRQHandler
08002338  w    F .text	00000004 OTG_HS_IRQHandler
08001b38 g     F .text	00000012 TIM_BDTRStructInit
08001768 g     F .text	00000014 TIM_OCStructInit
08001950 g     F .text	00000014 TIM_OC3NPolarityConfig
20020000 g       *ABS*	00000000 _estack
08001fc0 g     F .text	00000008 USART_SendData
08001998 g     F .text	00000020 TIM_CCxNCmd
08002338  w    F .text	00000004 EXTI1_IRQHandler
08001cc8 g     F .text	00000016 TIM_SelectMasterSlaveMode
2000007c g     O .bss	00000004 Time
20000038 g       .data	00000000 _edata
08001fe8 g     F .text	0000001c USART_ReceiverWakeUpCmd
080019d4 g     F .text	00000004 TIM_GetCapture4
08001f14 g     F .text	00000016 USART_StructInit
0800141c g     F .text	0000007c TIM_TimeBaseInit
20000039 g     O .bss	00000001 rx_pointer
08002338  w    F .text	00000004 USART2_IRQHandler
08001130 g     F .text	00000034 SYSCFG_EXTILineConfig
080020a8 g     F .text	0000001c USART_SmartCardNACKCmd
08000000 g     O .isr_vector	00000000 g_pfnVectors
08000798 g     F .text	0000008c SystemCoreClockUpdate
08002034 g     F .text	0000001c USART_LINCmd
20000038 g     O .bss	00000001 rx_last
08001bf8 g     F .text	00000008 TIM_DMAConfig
08002338  w    F .text	00000004 I2C2_ER_IRQHandler
08001bc0 g     F .text	00000004 TIM_GenerateEvent
08002338  w    F .text	00000004 DMA2_Stream1_IRQHandler
08000660 g     F .text	00000014 TimingDelay_Decrement
08001b10 g     F .text	00000028 TIM_BDTRConfig
08002338  w    F .text	00000004 CAN1_SCE_IRQHandler
08000ef8 g     F .text	0000001c RCC_AHB3PeriphClockCmd
08000eb4 g     F .text	0000000c RCC_I2SCLKConfig
0800235c g     O .text	00000001 BUTTON_PORT_SOURCE
08002338  w    F .text	00000004 FLASH_IRQHandler
08002338  w    F .text	00000004 DMA2_Stream4_IRQHandler
08000bb0 g     F .text	00000024 GPIO_PinLockConfig
080005cc g     F .text	00000014 BusFault_Handler
08000ec0 g     F .text	0000001c RCC_AHB1PeriphClockCmd
08002338  w    F .text	00000004 USART1_IRQHandler
08000cd8 g     F .text	0000000c RCC_LSICmd
08002338  w    F .text	00000004 OTG_FS_IRQHandler
080019f0 g     F .text	0000001a TIM_SetIC2Prescaler
08002338  w    F .text	00000004 SPI3_IRQHandler
08001ce0 g     F .text	00000018 TIM_ETRConfig
08002338  w    F .text	00000004 DMA1_Stream4_IRQHandler
08001f4c g     F .text	0000000c USART_ClockStructInit
08000fbc g     F .text	0000001c RCC_APB2PeriphResetCmd
08001cb0 g     F .text	00000016 TIM_SelectSlaveMode
08002338  w    F .text	00000004 I2C1_ER_IRQHandler
080021fc g     F .text	0000001c STM_EVAL_LEDOn
08000824 g     F .text	00000014 NVIC_PriorityGroupConfig
080018e4 g     F .text	00000010 TIM_ClearOC4Ref
0800152c g     F .text	00000016 TIM_SelectOnePulseMode
08001d28 g     F .text	0000003e TIM_EncoderInterfaceConfig
080017cc g     F .text	00000004 TIM_SetCompare1
08001914 g     F .text	00000014 TIM_OC2PolarityConfig
08002354 g     O .text	00000001 BUTTON_IRQn
080014d8 g     F .text	0000001c TIM_UpdateDisableConfig
08000bd4 g     F .text	0000000c GPIO_ReadInputDataBit
080020f8 g     F .text	00000018 USART_DMACmd
080018a0 g     F .text	00000014 TIM_OC4FastConfig
08002338  w    F .text	00000004 DMA2_Stream6_IRQHandler
08000d88 g     F .text	00000014 RCC_HCLKConfig
08002338  w    F .text	00000004 DMA1_Stream3_IRQHandler
080014b4 g     F .text	00000010 TIM_CounterModeConfig



Disassembly of section .text:

08000188 <Init_Comunication>:
Init_Comunication():
C:\Users\Filip\Eclipse\Template\Debug/../src/comunication.c:3
#include "comunication.h"

void Init_Comunication(void){
 8000188:	b570      	push	{r4, r5, r6, lr}
 800018a:	b088      	sub	sp, #32
C:\Users\Filip\Eclipse\Template\Debug/../src/comunication.c:8
	GPIO_InitTypeDef GPIO_InitStructure;
	USART_InitTypeDef USART_InitStructure;
	NVIC_InitTypeDef NVIC_InitStructure;
	
	RCC_APB2PeriphClockCmd(RCC_APB2Periph_USART6, ENABLE);
 800018c:	2020      	movs	r0, #32
 800018e:	2101      	movs	r1, #1
 8000190:	f000 fece 	bl	8000f30 <RCC_APB2PeriphClockCmd>
C:\Users\Filip\Eclipse\Template\Debug/../src/comunication.c:9
	RCC_AHB1PeriphClockCmd(RCC_AHB1Periph_GPIOC, ENABLE);
 8000194:	2004      	movs	r0, #4
 8000196:	2101      	movs	r1, #1
 8000198:	f000 fe92 	bl	8000ec0 <RCC_AHB1PeriphClockCmd>
C:\Users\Filip\Eclipse\Template\Debug/../src/comunication.c:11
	
	GPIO_InitStructure.GPIO_Pin = GPIO_Pin_6 | GPIO_Pin_7;
 800019c:	23c0      	movs	r3, #192	; 0xc0
 800019e:	9306      	str	r3, [sp, #24]
C:\Users\Filip\Eclipse\Template\Debug/../src/comunication.c:12
	GPIO_InitStructure.GPIO_Mode = GPIO_Mode_AF;
 80001a0:	2302      	movs	r3, #2
 80001a2:	f88d 301c 	strb.w	r3, [sp, #28]
C:\Users\Filip\Eclipse\Template\Debug/../src/comunication.c:13
	GPIO_InitStructure.GPIO_Speed = GPIO_Speed_50MHz;
 80001a6:	f88d 301d 	strb.w	r3, [sp, #29]
C:\Users\Filip\Eclipse\Template\Debug/../src/comunication.c:14
	GPIO_InitStructure.GPIO_OType = GPIO_OType_PP;
 80001aa:	2400      	movs	r4, #0
 80001ac:	f88d 401e 	strb.w	r4, [sp, #30]
C:\Users\Filip\Eclipse\Template\Debug/../src/comunication.c:15
	GPIO_InitStructure.GPIO_PuPd = GPIO_PuPd_UP ;
 80001b0:	2501      	movs	r5, #1
 80001b2:	f88d 501f 	strb.w	r5, [sp, #31]
C:\Users\Filip\Eclipse\Template\Debug/../src/comunication.c:16
	GPIO_Init(GPIOC, &GPIO_InitStructure);
 80001b6:	4e1f      	ldr	r6, [pc, #124]	; (8000234 <Init_Comunication+0xac>)
 80001b8:	4630      	mov	r0, r6
 80001ba:	a906      	add	r1, sp, #24
 80001bc:	f000 fca6 	bl	8000b0c <GPIO_Init>
C:\Users\Filip\Eclipse\Template\Debug/../src/comunication.c:18
	
	GPIO_PinAFConfig(GPIOC, GPIO_PinSource6, GPIO_AF_USART6);	
 80001c0:	4630      	mov	r0, r6
 80001c2:	2106      	movs	r1, #6
 80001c4:	2208      	movs	r2, #8
 80001c6:	f000 fd29 	bl	8000c1c <GPIO_PinAFConfig>
C:\Users\Filip\Eclipse\Template\Debug/../src/comunication.c:19
	GPIO_PinAFConfig(GPIOC, GPIO_PinSource7, GPIO_AF_USART6);
 80001ca:	4630      	mov	r0, r6
 80001cc:	2107      	movs	r1, #7
 80001ce:	2208      	movs	r2, #8
 80001d0:	f000 fd24 	bl	8000c1c <GPIO_PinAFConfig>
C:\Users\Filip\Eclipse\Template\Debug/../src/comunication.c:21
	
	USART_InitStructure.USART_BaudRate = 115200;
 80001d4:	f44f 33e1 	mov.w	r3, #115200	; 0x1c200
 80001d8:	9302      	str	r3, [sp, #8]
C:\Users\Filip\Eclipse\Template\Debug/../src/comunication.c:22
	USART_InitStructure.USART_WordLength = USART_WordLength_8b;
 80001da:	f8ad 400c 	strh.w	r4, [sp, #12]
C:\Users\Filip\Eclipse\Template\Debug/../src/comunication.c:23
	USART_InitStructure.USART_StopBits = USART_StopBits_1;
 80001de:	f8ad 400e 	strh.w	r4, [sp, #14]
C:\Users\Filip\Eclipse\Template\Debug/../src/comunication.c:24
	USART_InitStructure.USART_Parity = USART_Parity_No;
 80001e2:	f8ad 4010 	strh.w	r4, [sp, #16]
C:\Users\Filip\Eclipse\Template\Debug/../src/comunication.c:25
	USART_InitStructure.USART_HardwareFlowControl = USART_HardwareFlowControl_None;
 80001e6:	f8ad 4014 	strh.w	r4, [sp, #20]
C:\Users\Filip\Eclipse\Template\Debug/../src/comunication.c:26
	USART_InitStructure.USART_Mode = USART_Mode_Tx | USART_Mode_Rx;
 80001ea:	230c      	movs	r3, #12
 80001ec:	f8ad 3012 	strh.w	r3, [sp, #18]
C:\Users\Filip\Eclipse\Template\Debug/../src/comunication.c:27
	USART_Init(USART6, &USART_InitStructure);
 80001f0:	f5a6 4674 	sub.w	r6, r6, #62464	; 0xf400
 80001f4:	4630      	mov	r0, r6
 80001f6:	a902      	add	r1, sp, #8
 80001f8:	f001 fe26 	bl	8001e48 <USART_Init>
C:\Users\Filip\Eclipse\Template\Debug/../src/comunication.c:29

	USART_Cmd(USART6, ENABLE); // enable USART6
 80001fc:	4630      	mov	r0, r6
 80001fe:	4629      	mov	r1, r5
 8000200:	f001 feaa 	bl	8001f58 <USART_Cmd>
C:\Users\Filip\Eclipse\Template\Debug/../src/comunication.c:30
	USART_ITConfig(USART6, USART_IT_RXNE, ENABLE);
 8000204:	4630      	mov	r0, r6
 8000206:	f240 5125 	movw	r1, #1317	; 0x525
 800020a:	462a      	mov	r2, r5
 800020c:	f001 ff80 	bl	8002110 <USART_ITConfig>
C:\Users\Filip\Eclipse\Template\Debug/../src/comunication.c:32
	
	NVIC_InitStructure.NVIC_IRQChannel = USART6_IRQn;		 // we want to configure the USART1 interrupts
 8000210:	2347      	movs	r3, #71	; 0x47
 8000212:	f88d 3004 	strb.w	r3, [sp, #4]
C:\Users\Filip\Eclipse\Template\Debug/../src/comunication.c:33
	NVIC_InitStructure.NVIC_IRQChannelPreemptionPriority = 0;// this sets the priority group of the USART1 interrupts
 8000216:	f88d 4005 	strb.w	r4, [sp, #5]
C:\Users\Filip\Eclipse\Template\Debug/../src/comunication.c:34
	NVIC_InitStructure.NVIC_IRQChannelSubPriority = 0;		 // this sets the subpriority inside the group
 800021a:	f88d 4006 	strb.w	r4, [sp, #6]
C:\Users\Filip\Eclipse\Template\Debug/../src/comunication.c:35
	NVIC_InitStructure.NVIC_IRQChannelCmd = ENABLE;			 // the USART1 interrupts are globally enabled
 800021e:	f88d 5007 	strb.w	r5, [sp, #7]
C:\Users\Filip\Eclipse\Template\Debug/../src/comunication.c:36
	NVIC_Init(&NVIC_InitStructure);							 // the properties are passed to the NVIC_Init function which takes care of the low level stuff	
 8000222:	a801      	add	r0, sp, #4
 8000224:	f000 fb08 	bl	8000838 <NVIC_Init>
C:\Users\Filip\Eclipse\Template\Debug/../src/comunication.c:39

	// finally this enables the complete USART1 peripheral
	USART_Cmd(USART6, ENABLE);
 8000228:	4630      	mov	r0, r6
 800022a:	4629      	mov	r1, r5
 800022c:	f001 fe94 	bl	8001f58 <USART_Cmd>
C:\Users\Filip\Eclipse\Template\Debug/../src/comunication.c:40
}
 8000230:	b008      	add	sp, #32
 8000232:	bd70      	pop	{r4, r5, r6, pc}
 8000234:	40020800 	.word	0x40020800

08000238 <USART_SendString>:
USART_SendString():
C:\Users\Filip\Eclipse\Template\Debug/../src/comunication.c:42

void USART_SendString(USART_TypeDef* USARTx, char* s){
 8000238:	b538      	push	{r3, r4, r5, lr}
 800023a:	4604      	mov	r4, r0
 800023c:	460d      	mov	r5, r1
C:\Users\Filip\Eclipse\Template\Debug/../src/comunication.c:43
	while(*s){
 800023e:	e009      	b.n	8000254 <USART_SendString+0x1c>
C:\Users\Filip\Eclipse\Template\Debug/../src/comunication.c:45 (discriminator 1)
		// wait until data register is empty
		while( !(USARTx->SR & 0x00000040) ); 
 8000240:	8823      	ldrh	r3, [r4, #0]
 8000242:	f003 0340 	and.w	r3, r3, #64	; 0x40
 8000246:	b29b      	uxth	r3, r3
 8000248:	2b00      	cmp	r3, #0
 800024a:	d0f9      	beq.n	8000240 <USART_SendString+0x8>
C:\Users\Filip\Eclipse\Template\Debug/../src/comunication.c:46
		USART_SendData(USARTx, *s);
 800024c:	4620      	mov	r0, r4
 800024e:	f001 feb7 	bl	8001fc0 <USART_SendData>
C:\Users\Filip\Eclipse\Template\Debug/../src/comunication.c:47
		s++;
 8000252:	3501      	adds	r5, #1
C:\Users\Filip\Eclipse\Template\Debug/../src/comunication.c:43 (discriminator 1)
	// finally this enables the complete USART1 peripheral
	USART_Cmd(USART6, ENABLE);
}

void USART_SendString(USART_TypeDef* USARTx, char* s){
	while(*s){
 8000254:	7829      	ldrb	r1, [r5, #0]
 8000256:	2900      	cmp	r1, #0
 8000258:	d1f2      	bne.n	8000240 <USART_SendString+0x8>
C:\Users\Filip\Eclipse\Template\Debug/../src/comunication.c:49
		// wait until data register is empty
		while( !(USARTx->SR & 0x00000040) ); 
		USART_SendData(USARTx, *s);
		s++;
	}
}
 800025a:	bd38      	pop	{r3, r4, r5, pc}

0800025c <USART_SendNumber>:
USART_SendNumber():
C:\Users\Filip\Eclipse\Template\Debug/../src/comunication.c:51

void USART_SendNumber(USART_TypeDef* USARTx, uint32_t n){
 800025c:	b530      	push	{r4, r5, lr}
 800025e:	b085      	sub	sp, #20
 8000260:	460a      	mov	r2, r1
C:\Users\Filip\Eclipse\Template\Debug/../src/comunication.c:54
	char buffer[15];
	char *p;
	buffer[14] = 0;
 8000262:	a904      	add	r1, sp, #16
 8000264:	2300      	movs	r3, #0
 8000266:	f801 3d02 	strb.w	r3, [r1, #-2]!
C:\Users\Filip\Eclipse\Template\Debug/../src/comunication.c:59
	p = buffer+14;
	
	while(n>0){
		p--;
		*p = (n%10)+'0';
 800026a:	4d0a      	ldr	r5, [pc, #40]	; (8000294 <USART_SendNumber+0x38>)
C:\Users\Filip\Eclipse\Template\Debug/../src/comunication.c:57
	char buffer[15];
	char *p;
	buffer[14] = 0;
	p = buffer+14;
	
	while(n>0){
 800026c:	e00b      	b.n	8000286 <USART_SendNumber+0x2a>
C:\Users\Filip\Eclipse\Template\Debug/../src/comunication.c:59
		p--;
		*p = (n%10)+'0';
 800026e:	fba5 4302 	umull	r4, r3, r5, r2
 8000272:	08db      	lsrs	r3, r3, #3
 8000274:	461c      	mov	r4, r3
 8000276:	eb03 0383 	add.w	r3, r3, r3, lsl #2
 800027a:	eba2 0343 	sub.w	r3, r2, r3, lsl #1
 800027e:	3330      	adds	r3, #48	; 0x30
 8000280:	f801 3d01 	strb.w	r3, [r1, #-1]!
C:\Users\Filip\Eclipse\Template\Debug/../src/comunication.c:60
	  n = n/10;
 8000284:	4622      	mov	r2, r4
C:\Users\Filip\Eclipse\Template\Debug/../src/comunication.c:57 (discriminator 1)
	char buffer[15];
	char *p;
	buffer[14] = 0;
	p = buffer+14;
	
	while(n>0){
 8000286:	2a00      	cmp	r2, #0
 8000288:	d1f1      	bne.n	800026e <USART_SendNumber+0x12>
C:\Users\Filip\Eclipse\Template\Debug/../src/comunication.c:62
		p--;
		*p = (n%10)+'0';
	  n = n/10;
	}
	USART_SendString(USARTx, p);
 800028a:	f7ff ffd5 	bl	8000238 <USART_SendString>
C:\Users\Filip\Eclipse\Template\Debug/../src/comunication.c:63
}
 800028e:	b005      	add	sp, #20
 8000290:	bd30      	pop	{r4, r5, pc}
 8000292:	bf00      	nop
 8000294:	cccccccd 	.word	0xcccccccd

08000298 <USART_SendHex>:
USART_SendHex():
C:\Users\Filip\Eclipse\Template\Debug/../src/comunication.c:65

void USART_SendHex(USART_TypeDef* USARTx, uint32_t n){
 8000298:	b570      	push	{r4, r5, r6, lr}
 800029a:	b084      	sub	sp, #16
C:\Users\Filip\Eclipse\Template\Debug/../src/comunication.c:68
  char buffer[11];
	uint8_t i; 
	buffer[0] = '0';
 800029c:	2330      	movs	r3, #48	; 0x30
 800029e:	f88d 3004 	strb.w	r3, [sp, #4]
C:\Users\Filip\Eclipse\Template\Debug/../src/comunication.c:69
	buffer[1] = 'x';
 80002a2:	2378      	movs	r3, #120	; 0x78
 80002a4:	f88d 3005 	strb.w	r3, [sp, #5]
C:\Users\Filip\Eclipse\Template\Debug/../src/comunication.c:70
	buffer[10] = 0;
 80002a8:	2300      	movs	r3, #0
 80002aa:	f88d 300e 	strb.w	r3, [sp, #14]
C:\Users\Filip\Eclipse\Template\Debug/../src/comunication.c:73
	
	for(i=0; i<8; i++){
		buffer[9-i] = "0123456789ABCDEF"[n & 0xF];
 80002ae:	4d09      	ldr	r5, [pc, #36]	; (80002d4 <USART_SendHex+0x3c>)
C:\Users\Filip\Eclipse\Template\Debug/../src/comunication.c:72
	uint8_t i; 
	buffer[0] = '0';
	buffer[1] = 'x';
	buffer[10] = 0;
	
	for(i=0; i<8; i++){
 80002b0:	e009      	b.n	80002c6 <USART_SendHex+0x2e>
C:\Users\Filip\Eclipse\Template\Debug/../src/comunication.c:73 (discriminator 2)
		buffer[9-i] = "0123456789ABCDEF"[n & 0xF];
 80002b2:	f001 020f 	and.w	r2, r1, #15
 80002b6:	5cac      	ldrb	r4, [r5, r2]
 80002b8:	ae04      	add	r6, sp, #16
 80002ba:	1af2      	subs	r2, r6, r3
 80002bc:	f802 4c03 	strb.w	r4, [r2, #-3]
C:\Users\Filip\Eclipse\Template\Debug/../src/comunication.c:74 (discriminator 2)
		n = n >> 4;
 80002c0:	0909      	lsrs	r1, r1, #4
C:\Users\Filip\Eclipse\Template\Debug/../src/comunication.c:72 (discriminator 2)
	uint8_t i; 
	buffer[0] = '0';
	buffer[1] = 'x';
	buffer[10] = 0;
	
	for(i=0; i<8; i++){
 80002c2:	3301      	adds	r3, #1
 80002c4:	b2db      	uxtb	r3, r3
C:\Users\Filip\Eclipse\Template\Debug/../src/comunication.c:72 (discriminator 1)
 80002c6:	2b07      	cmp	r3, #7
 80002c8:	d9f3      	bls.n	80002b2 <USART_SendHex+0x1a>
C:\Users\Filip\Eclipse\Template\Debug/../src/comunication.c:77
		buffer[9-i] = "0123456789ABCDEF"[n & 0xF];
		n = n >> 4;
	}
	
	USART_SendString(USARTx, buffer);
 80002ca:	a901      	add	r1, sp, #4
 80002cc:	f7ff ffb4 	bl	8000238 <USART_SendString>
C:\Users\Filip\Eclipse\Template\Debug/../src/comunication.c:78
}
 80002d0:	b004      	add	sp, #16
 80002d2:	bd70      	pop	{r4, r5, r6, pc}
 80002d4:	0800236c 	.word	0x0800236c

080002d8 <StringToInt>:
StringToInt():
C:\Users\Filip\Eclipse\Template\Debug/../src/comunication.c:80

uint32_t StringToInt(char *s, int size){
 80002d8:	b410      	push	{r4}
C:\Users\Filip\Eclipse\Template\Debug/../src/comunication.c:81
	uint32_t ret=0;
 80002da:	2300      	movs	r3, #0
C:\Users\Filip\Eclipse\Template\Debug/../src/comunication.c:83
	uint32_t n;
	while(*s && size){
 80002dc:	e009      	b.n	80002f2 <StringToInt+0x1a>
C:\Users\Filip\Eclipse\Template\Debug/../src/comunication.c:84
		ret *= 10;
 80002de:	eb03 0383 	add.w	r3, r3, r3, lsl #2
 80002e2:	005c      	lsls	r4, r3, #1
 80002e4:	4623      	mov	r3, r4
C:\Users\Filip\Eclipse\Template\Debug/../src/comunication.c:85
		n = *s - '0';
 80002e6:	3a30      	subs	r2, #48	; 0x30
C:\Users\Filip\Eclipse\Template\Debug/../src/comunication.c:86
		if(n < 10){
 80002e8:	2a09      	cmp	r2, #9
C:\Users\Filip\Eclipse\Template\Debug/../src/comunication.c:87
			ret += n;
 80002ea:	bf98      	it	ls
 80002ec:	18a3      	addls	r3, r4, r2
C:\Users\Filip\Eclipse\Template\Debug/../src/comunication.c:89
		}
		s++;
 80002ee:	3001      	adds	r0, #1
C:\Users\Filip\Eclipse\Template\Debug/../src/comunication.c:90
		size--;
 80002f0:	3901      	subs	r1, #1
C:\Users\Filip\Eclipse\Template\Debug/../src/comunication.c:83 (discriminator 1)
}

uint32_t StringToInt(char *s, int size){
	uint32_t ret=0;
	uint32_t n;
	while(*s && size){
 80002f2:	7802      	ldrb	r2, [r0, #0]
 80002f4:	b10a      	cbz	r2, 80002fa <StringToInt+0x22>
C:\Users\Filip\Eclipse\Template\Debug/../src/comunication.c:83 (discriminator 2)
 80002f6:	2900      	cmp	r1, #0
 80002f8:	d1f1      	bne.n	80002de <StringToInt+0x6>
C:\Users\Filip\Eclipse\Template\Debug/../src/comunication.c:93
		}
		s++;
		size--;
	}
	return ret;
}
 80002fa:	4618      	mov	r0, r3
 80002fc:	f85d 4b04 	ldr.w	r4, [sp], #4
 8000300:	4770      	bx	lr
 8000302:	bf00      	nop

08000304 <proccess_rx>:
proccess_rx():
C:\Users\Filip\Eclipse\MutalInductionTester\Debug/../src/main.c:61
		rx_buffer[rx_pointer++] = ch;
	}
	rx_last = ch;
}

void proccess_rx(void) {
 8000304:	b508      	push	{r3, lr}
C:\Users\Filip\Eclipse\MutalInductionTester\Debug/../src/main.c:64
	uint32_t u, i;

	switch (rx_buffer[0]) {
 8000306:	4b0e      	ldr	r3, [pc, #56]	; (8000340 <proccess_rx+0x3c>)
 8000308:	781b      	ldrb	r3, [r3, #0]
 800030a:	2b61      	cmp	r3, #97	; 0x61
 800030c:	d00a      	beq.n	8000324 <proccess_rx+0x20>
 800030e:	2b71      	cmp	r3, #113	; 0x71
 8000310:	d111      	bne.n	8000336 <proccess_rx+0x32>
C:\Users\Filip\Eclipse\MutalInductionTester\Debug/../src/main.c:66
	case 'q':
		GPIO_SetBits(GPIOC, GPIO_Pin_0);
 8000312:	480c      	ldr	r0, [pc, #48]	; (8000344 <proccess_rx+0x40>)
 8000314:	2101      	movs	r1, #1
 8000316:	f000 fc71 	bl	8000bfc <GPIO_SetBits>
C:\Users\Filip\Eclipse\MutalInductionTester\Debug/../src/main.c:67
		USART_SendString(USART6, "PC0 ON\n");
 800031a:	480b      	ldr	r0, [pc, #44]	; (8000348 <proccess_rx+0x44>)
 800031c:	490b      	ldr	r1, [pc, #44]	; (800034c <proccess_rx+0x48>)
 800031e:	f7ff ff8b 	bl	8000238 <USART_SendString>
C:\Users\Filip\Eclipse\MutalInductionTester\Debug/../src/main.c:68
		break;
 8000322:	bd08      	pop	{r3, pc}
C:\Users\Filip\Eclipse\MutalInductionTester\Debug/../src/main.c:70
	case 'a':
		GPIO_ResetBits(GPIOC, GPIO_Pin_0);
 8000324:	4807      	ldr	r0, [pc, #28]	; (8000344 <proccess_rx+0x40>)
 8000326:	2101      	movs	r1, #1
 8000328:	f000 fc6a 	bl	8000c00 <GPIO_ResetBits>
C:\Users\Filip\Eclipse\MutalInductionTester\Debug/../src/main.c:71
		USART_SendString(USART6, "PC0 OFF\n");
 800032c:	4806      	ldr	r0, [pc, #24]	; (8000348 <proccess_rx+0x44>)
 800032e:	4908      	ldr	r1, [pc, #32]	; (8000350 <proccess_rx+0x4c>)
 8000330:	f7ff ff82 	bl	8000238 <USART_SendString>
C:\Users\Filip\Eclipse\MutalInductionTester\Debug/../src/main.c:72
		break;
 8000334:	bd08      	pop	{r3, pc}
C:\Users\Filip\Eclipse\MutalInductionTester\Debug/../src/main.c:74
	default:
		USART_SendString(USART6, "Unknown command\n");
 8000336:	4804      	ldr	r0, [pc, #16]	; (8000348 <proccess_rx+0x44>)
 8000338:	4906      	ldr	r1, [pc, #24]	; (8000354 <proccess_rx+0x50>)
 800033a:	f7ff ff7d 	bl	8000238 <USART_SendString>
 800033e:	bd08      	pop	{r3, pc}
 8000340:	20000048 	.word	0x20000048
 8000344:	40020800 	.word	0x40020800
 8000348:	40011400 	.word	0x40011400
 800034c:	08002380 	.word	0x08002380
 8000350:	08002388 	.word	0x08002388
 8000354:	08002394 	.word	0x08002394

08000358 <USART6_IRQHandler>:
USART6_IRQHandler():
C:\Users\Filip\Eclipse\MutalInductionTester\Debug/../src/main.c:43

char rx_buffer[50];
char rx_last = 0;
uint8_t rx_pointer = 0;

void USART6_IRQHandler(void) {
 8000358:	b570      	push	{r4, r5, r6, lr}
C:\Users\Filip\Eclipse\MutalInductionTester\Debug/../src/main.c:45
	char ch;
	ch = USART_ReceiveData(USART6);
 800035a:	4813      	ldr	r0, [pc, #76]	; (80003a8 <USART6_IRQHandler+0x50>)
 800035c:	f001 fe34 	bl	8001fc8 <USART_ReceiveData>
 8000360:	b2c4      	uxtb	r4, r0
C:\Users\Filip\Eclipse\MutalInductionTester\Debug/../src/main.c:47

	if (ch == '\r' || ch == '\n') {
 8000362:	2c0d      	cmp	r4, #13
 8000364:	d001      	beq.n	800036a <USART6_IRQHandler+0x12>
C:\Users\Filip\Eclipse\MutalInductionTester\Debug/../src/main.c:47 (discriminator 1)
 8000366:	2c0a      	cmp	r4, #10
 8000368:	d10c      	bne.n	8000384 <USART6_IRQHandler+0x2c>
C:\Users\Filip\Eclipse\MutalInductionTester\Debug/../src/main.c:48
		if (rx_last != '\r') {
 800036a:	4b10      	ldr	r3, [pc, #64]	; (80003ac <USART6_IRQHandler+0x54>)
 800036c:	781b      	ldrb	r3, [r3, #0]
 800036e:	2b0d      	cmp	r3, #13
 8000370:	d017      	beq.n	80003a2 <USART6_IRQHandler+0x4a>
C:\Users\Filip\Eclipse\MutalInductionTester\Debug/../src/main.c:49
			rx_buffer[rx_pointer] = 0;
 8000372:	4d0e      	ldr	r5, [pc, #56]	; (80003ac <USART6_IRQHandler+0x54>)
 8000374:	786b      	ldrb	r3, [r5, #1]
 8000376:	2600      	movs	r6, #0
 8000378:	4a0d      	ldr	r2, [pc, #52]	; (80003b0 <USART6_IRQHandler+0x58>)
 800037a:	54d6      	strb	r6, [r2, r3]
C:\Users\Filip\Eclipse\MutalInductionTester\Debug/../src/main.c:50
			proccess_rx();
 800037c:	f7ff ffc2 	bl	8000304 <proccess_rx>
C:\Users\Filip\Eclipse\MutalInductionTester\Debug/../src/main.c:51
			rx_pointer = 0;
 8000380:	706e      	strb	r6, [r5, #1]
 8000382:	e00e      	b.n	80003a2 <USART6_IRQHandler+0x4a>
C:\Users\Filip\Eclipse\MutalInductionTester\Debug/../src/main.c:53
		}
	} else if (ch == 8 && rx_pointer > 0) {
 8000384:	2c08      	cmp	r4, #8
 8000386:	d106      	bne.n	8000396 <USART6_IRQHandler+0x3e>
C:\Users\Filip\Eclipse\MutalInductionTester\Debug/../src/main.c:53 (discriminator 1)
 8000388:	4b08      	ldr	r3, [pc, #32]	; (80003ac <USART6_IRQHandler+0x54>)
 800038a:	785b      	ldrb	r3, [r3, #1]
 800038c:	b11b      	cbz	r3, 8000396 <USART6_IRQHandler+0x3e>
C:\Users\Filip\Eclipse\MutalInductionTester\Debug/../src/main.c:54
		rx_pointer--;
 800038e:	3b01      	subs	r3, #1
 8000390:	4a06      	ldr	r2, [pc, #24]	; (80003ac <USART6_IRQHandler+0x54>)
 8000392:	7053      	strb	r3, [r2, #1]
 8000394:	e005      	b.n	80003a2 <USART6_IRQHandler+0x4a>
C:\Users\Filip\Eclipse\MutalInductionTester\Debug/../src/main.c:56
	} else {
		rx_buffer[rx_pointer++] = ch;
 8000396:	4a05      	ldr	r2, [pc, #20]	; (80003ac <USART6_IRQHandler+0x54>)
 8000398:	7853      	ldrb	r3, [r2, #1]
 800039a:	1c59      	adds	r1, r3, #1
 800039c:	7051      	strb	r1, [r2, #1]
 800039e:	4a04      	ldr	r2, [pc, #16]	; (80003b0 <USART6_IRQHandler+0x58>)
 80003a0:	54d4      	strb	r4, [r2, r3]
C:\Users\Filip\Eclipse\MutalInductionTester\Debug/../src/main.c:58
	}
	rx_last = ch;
 80003a2:	4b02      	ldr	r3, [pc, #8]	; (80003ac <USART6_IRQHandler+0x54>)
 80003a4:	701c      	strb	r4, [r3, #0]
 80003a6:	bd70      	pop	{r4, r5, r6, pc}
 80003a8:	40011400 	.word	0x40011400
 80003ac:	20000038 	.word	0x20000038
 80003b0:	20000048 	.word	0x20000048

080003b4 <init_output>:
init_output():
C:\Users\Filip\Eclipse\MutalInductionTester\Debug/../src/main.c:79
		USART_SendString(USART6, "Unknown command\n");
		break;
	}
}

void init_output(void) {
 80003b4:	b500      	push	{lr}
 80003b6:	b083      	sub	sp, #12
C:\Users\Filip\Eclipse\MutalInductionTester\Debug/../src/main.c:81
	GPIO_InitTypeDef GPIO_InitStructure;
	GPIO_InitStructure.GPIO_Pin = GPIO_Pin_0 | GPIO_Pin_3 | GPIO_Pin_5;
 80003b8:	2329      	movs	r3, #41	; 0x29
 80003ba:	9300      	str	r3, [sp, #0]
C:\Users\Filip\Eclipse\MutalInductionTester\Debug/../src/main.c:82
	GPIO_InitStructure.GPIO_Mode = GPIO_Mode_OUT;
 80003bc:	2301      	movs	r3, #1
 80003be:	f88d 3004 	strb.w	r3, [sp, #4]
C:\Users\Filip\Eclipse\MutalInductionTester\Debug/../src/main.c:83
	GPIO_InitStructure.GPIO_OType = GPIO_OType_PP;
 80003c2:	2300      	movs	r3, #0
 80003c4:	f88d 3006 	strb.w	r3, [sp, #6]
C:\Users\Filip\Eclipse\MutalInductionTester\Debug/../src/main.c:84
	GPIO_InitStructure.GPIO_Speed = GPIO_Speed_100MHz;
 80003c8:	2203      	movs	r2, #3
 80003ca:	f88d 2005 	strb.w	r2, [sp, #5]
C:\Users\Filip\Eclipse\MutalInductionTester\Debug/../src/main.c:85
	GPIO_InitStructure.GPIO_PuPd = GPIO_PuPd_NOPULL;
 80003ce:	f88d 3007 	strb.w	r3, [sp, #7]
C:\Users\Filip\Eclipse\MutalInductionTester\Debug/../src/main.c:86
	GPIO_Init(GPIOC, &GPIO_InitStructure);
 80003d2:	4803      	ldr	r0, [pc, #12]	; (80003e0 <init_output+0x2c>)
 80003d4:	4669      	mov	r1, sp
 80003d6:	f000 fb99 	bl	8000b0c <GPIO_Init>
C:\Users\Filip\Eclipse\MutalInductionTester\Debug/../src/main.c:87
}
 80003da:	b003      	add	sp, #12
 80003dc:	f85d fb04 	ldr.w	pc, [sp], #4
 80003e0:	40020800 	.word	0x40020800

080003e4 <timer_init>:
timer_init():
C:\Users\Filip\Eclipse\MutalInductionTester\Debug/../src/main.c:89

void timer_init(void) {
 80003e4:	b5f0      	push	{r4, r5, r6, r7, lr}
 80003e6:	b08b      	sub	sp, #44	; 0x2c
C:\Users\Filip\Eclipse\MutalInductionTester\Debug/../src/main.c:92
	TIM_TimeBaseInitTypeDef TIM_TimeBaseStructure;

	RCC_AHB1PeriphClockCmd(RCC_AHB1Periph_GPIOB, ENABLE);
 80003e8:	2002      	movs	r0, #2
 80003ea:	2101      	movs	r1, #1
 80003ec:	f000 fd68 	bl	8000ec0 <RCC_AHB1PeriphClockCmd>
C:\Users\Filip\Eclipse\MutalInductionTester\Debug/../src/main.c:93
	RCC_APB1PeriphClockCmd(RCC_APB1Periph_TIM4, ENABLE);
 80003f0:	2004      	movs	r0, #4
 80003f2:	2101      	movs	r1, #1
 80003f4:	f000 fd8e 	bl	8000f14 <RCC_APB1PeriphClockCmd>
NVIC_EnableIRQ():
C:\Users\Filip\Eclipse\MutalInductionTester\CMSIS\Include/core_cm4.h:1074
    \param [in]      IRQn  Number of the external interrupt to enable
 */
static __INLINE void NVIC_EnableIRQ(IRQn_Type IRQn)
{
/*  NVIC->ISER[((uint32_t)(IRQn) >> 5)] = (1 << ((uint32_t)(IRQn) & 0x1F));  enable interrupt */
  NVIC->ISER[(uint32_t)((int32_t)IRQn) >> 5] = (uint32_t)(1 << ((uint32_t)((int32_t)IRQn) & (uint32_t)0x1F)); /* enable interrupt */
 80003f8:	f04f 4280 	mov.w	r2, #1073741824	; 0x40000000
 80003fc:	4b34      	ldr	r3, [pc, #208]	; (80004d0 <timer_init+0xec>)
 80003fe:	601a      	str	r2, [r3, #0]
timer_init():
C:\Users\Filip\Eclipse\MutalInductionTester\Debug/../src/main.c:97
	NVIC_EnableIRQ(TIM4_IRQn);

	//25Hz merení 200-1 50Hz 100-1 100Hz 50-1
	TIM_TimeBaseStructure.TIM_Period = 2048 - 1; //336
 8000400:	f240 73ff 	movw	r3, #2047	; 0x7ff
 8000404:	9308      	str	r3, [sp, #32]
C:\Users\Filip\Eclipse\MutalInductionTester\Debug/../src/main.c:98
	TIM_TimeBaseStructure.TIM_Prescaler = 1 - 1;
 8000406:	2500      	movs	r5, #0
 8000408:	f8ad 501c 	strh.w	r5, [sp, #28]
C:\Users\Filip\Eclipse\MutalInductionTester\Debug/../src/main.c:99
	TIM_TimeBaseStructure.TIM_ClockDivision = 0;
 800040c:	f8ad 5024 	strh.w	r5, [sp, #36]	; 0x24
C:\Users\Filip\Eclipse\MutalInductionTester\Debug/../src/main.c:100
	TIM_TimeBaseStructure.TIM_CounterMode = TIM_CounterMode_Up;
 8000410:	f8ad 501e 	strh.w	r5, [sp, #30]
C:\Users\Filip\Eclipse\MutalInductionTester\Debug/../src/main.c:102

	TIM_TimeBaseInit(TIM4, &TIM_TimeBaseStructure);
 8000414:	4c2f      	ldr	r4, [pc, #188]	; (80004d4 <timer_init+0xf0>)
 8000416:	4620      	mov	r0, r4
 8000418:	a907      	add	r1, sp, #28
 800041a:	f000 ffff 	bl	800141c <TIM_TimeBaseInit>
C:\Users\Filip\Eclipse\MutalInductionTester\Debug/../src/main.c:105

	TIM_OCInitTypeDef TIM_OCInitStructure;
	TIM_OCInitStructure.TIM_OCMode = TIM_OCMode_PWM1;
 800041e:	2360      	movs	r3, #96	; 0x60
 8000420:	f8ad 3008 	strh.w	r3, [sp, #8]
C:\Users\Filip\Eclipse\MutalInductionTester\Debug/../src/main.c:106
	TIM_OCInitStructure.TIM_OutputState = TIM_OutputState_Enable;
 8000424:	2601      	movs	r6, #1
 8000426:	f8ad 600a 	strh.w	r6, [sp, #10]
C:\Users\Filip\Eclipse\MutalInductionTester\Debug/../src/main.c:107
	TIM_OCInitStructure.TIM_Pulse = 512;
 800042a:	f44f 7300 	mov.w	r3, #512	; 0x200
 800042e:	9304      	str	r3, [sp, #16]
C:\Users\Filip\Eclipse\MutalInductionTester\Debug/../src/main.c:108
	TIM_OCInitStructure.TIM_OCPolarity = TIM_OCPolarity_High;
 8000430:	f8ad 5014 	strh.w	r5, [sp, #20]
C:\Users\Filip\Eclipse\MutalInductionTester\Debug/../src/main.c:109
	TIM_OC1Init(TIM4, &TIM_OCInitStructure);
 8000434:	4620      	mov	r0, r4
 8000436:	a902      	add	r1, sp, #8
 8000438:	f001 f89e 	bl	8001578 <TIM_OC1Init>
C:\Users\Filip\Eclipse\MutalInductionTester\Debug/../src/main.c:110
	TIM_OC1PreloadConfig(TIM4, TIM_OCPreload_Enable);
 800043c:	4620      	mov	r0, r4
 800043e:	2108      	movs	r1, #8
 8000440:	f001 f9f0 	bl	8001824 <TIM_OC1PreloadConfig>
C:\Users\Filip\Eclipse\MutalInductionTester\Debug/../src/main.c:112

	TIM_OCInitStructure.TIM_Pulse = 1024;
 8000444:	f44f 6380 	mov.w	r3, #1024	; 0x400
 8000448:	9304      	str	r3, [sp, #16]
C:\Users\Filip\Eclipse\MutalInductionTester\Debug/../src/main.c:113
	TIM_OC2Init(TIM4, &TIM_OCInitStructure);
 800044a:	4620      	mov	r0, r4
 800044c:	a902      	add	r1, sp, #8
 800044e:	f001 f8cb 	bl	80015e8 <TIM_OC2Init>
C:\Users\Filip\Eclipse\MutalInductionTester\Debug/../src/main.c:114
	TIM_OC2PreloadConfig(TIM4, TIM_OCPreload_Enable);
 8000452:	4620      	mov	r0, r4
 8000454:	2108      	movs	r1, #8
 8000456:	f001 f9ed 	bl	8001834 <TIM_OC2PreloadConfig>
C:\Users\Filip\Eclipse\MutalInductionTester\Debug/../src/main.c:116

	TIM_OCInitStructure.TIM_Pulse = 1536;
 800045a:	f44f 63c0 	mov.w	r3, #1536	; 0x600
 800045e:	9304      	str	r3, [sp, #16]
C:\Users\Filip\Eclipse\MutalInductionTester\Debug/../src/main.c:117
	TIM_OC3Init(TIM4, &TIM_OCInitStructure);
 8000460:	4620      	mov	r0, r4
 8000462:	a902      	add	r1, sp, #8
 8000464:	f001 f906 	bl	8001674 <TIM_OC3Init>
C:\Users\Filip\Eclipse\MutalInductionTester\Debug/../src/main.c:118
	TIM_OC3PreloadConfig(TIM4, TIM_OCPreload_Enable);
 8000468:	4620      	mov	r0, r4
 800046a:	2108      	movs	r1, #8
 800046c:	f001 f9ec 	bl	8001848 <TIM_OC3PreloadConfig>
C:\Users\Filip\Eclipse\MutalInductionTester\Debug/../src/main.c:120

	TIM_ARRPreloadConfig(TIM4, ENABLE);
 8000470:	4620      	mov	r0, r4
 8000472:	4631      	mov	r1, r6
 8000474:	f001 f84c 	bl	8001510 <TIM_ARRPreloadConfig>
C:\Users\Filip\Eclipse\MutalInductionTester\Debug/../src/main.c:125



	GPIO_InitTypeDef GPIO_InitStructure;
	GPIO_InitStructure.GPIO_Pin = GPIO_Pin_6 | GPIO_Pin_7 | GPIO_Pin_8;
 8000478:	f44f 73e0 	mov.w	r3, #448	; 0x1c0
 800047c:	9300      	str	r3, [sp, #0]
C:\Users\Filip\Eclipse\MutalInductionTester\Debug/../src/main.c:126
	GPIO_InitStructure.GPIO_Mode = GPIO_Mode_AF;
 800047e:	2702      	movs	r7, #2
 8000480:	f88d 7004 	strb.w	r7, [sp, #4]
C:\Users\Filip\Eclipse\MutalInductionTester\Debug/../src/main.c:127
	GPIO_InitStructure.GPIO_OType = GPIO_OType_PP;
 8000484:	f88d 5006 	strb.w	r5, [sp, #6]
C:\Users\Filip\Eclipse\MutalInductionTester\Debug/../src/main.c:128
	GPIO_InitStructure.GPIO_Speed = GPIO_Speed_100MHz;
 8000488:	2303      	movs	r3, #3
 800048a:	f88d 3005 	strb.w	r3, [sp, #5]
C:\Users\Filip\Eclipse\MutalInductionTester\Debug/../src/main.c:129
	GPIO_InitStructure.GPIO_PuPd = GPIO_PuPd_NOPULL;
 800048e:	f88d 5007 	strb.w	r5, [sp, #7]
C:\Users\Filip\Eclipse\MutalInductionTester\Debug/../src/main.c:130
	GPIO_Init(GPIOB, &GPIO_InitStructure);
 8000492:	f105 4580 	add.w	r5, r5, #1073741824	; 0x40000000
 8000496:	f505 3501 	add.w	r5, r5, #132096	; 0x20400
 800049a:	4628      	mov	r0, r5
 800049c:	4669      	mov	r1, sp
 800049e:	f000 fb35 	bl	8000b0c <GPIO_Init>
C:\Users\Filip\Eclipse\MutalInductionTester\Debug/../src/main.c:132

	GPIO_PinAFConfig(GPIOB, GPIO_PinSource6, GPIO_AF_TIM4);
 80004a2:	4628      	mov	r0, r5
 80004a4:	2106      	movs	r1, #6
 80004a6:	463a      	mov	r2, r7
 80004a8:	f000 fbb8 	bl	8000c1c <GPIO_PinAFConfig>
C:\Users\Filip\Eclipse\MutalInductionTester\Debug/../src/main.c:133
	GPIO_PinAFConfig(GPIOB, GPIO_PinSource7, GPIO_AF_TIM4);
 80004ac:	4628      	mov	r0, r5
 80004ae:	2107      	movs	r1, #7
 80004b0:	463a      	mov	r2, r7
 80004b2:	f000 fbb3 	bl	8000c1c <GPIO_PinAFConfig>
C:\Users\Filip\Eclipse\MutalInductionTester\Debug/../src/main.c:134
	GPIO_PinAFConfig(GPIOB, GPIO_PinSource8, GPIO_AF_TIM4);
 80004b6:	4628      	mov	r0, r5
 80004b8:	2108      	movs	r1, #8
 80004ba:	463a      	mov	r2, r7
 80004bc:	f000 fbae 	bl	8000c1c <GPIO_PinAFConfig>
C:\Users\Filip\Eclipse\MutalInductionTester\Debug/../src/main.c:136

	TIM4->DIER = TIM_DIER_UIE;  // povolení preruení
 80004c0:	81a6      	strh	r6, [r4, #12]
C:\Users\Filip\Eclipse\MutalInductionTester\Debug/../src/main.c:138

	TIM_Cmd(TIM4, ENABLE);
 80004c2:	4620      	mov	r0, r4
 80004c4:	4631      	mov	r1, r6
 80004c6:	f001 f849 	bl	800155c <TIM_Cmd>
C:\Users\Filip\Eclipse\MutalInductionTester\Debug/../src/main.c:139
}
 80004ca:	b00b      	add	sp, #44	; 0x2c
 80004cc:	bdf0      	pop	{r4, r5, r6, r7, pc}
 80004ce:	bf00      	nop
 80004d0:	e000e100 	.word	0xe000e100
 80004d4:	40000800 	.word	0x40000800

080004d8 <main>:
main():
C:\Users\Filip\Eclipse\MutalInductionTester\Debug/../src/main.c:19

void proccess_rx(void);
void init_output(void);
void timer_init(void);

int main(void) {
 80004d8:	b538      	push	{r3, r4, r5, lr}
C:\Users\Filip\Eclipse\MutalInductionTester\Debug/../src/main.c:20
	SysTick_Config(SystemCoreClock / 1000);
 80004da:	4b1b      	ldr	r3, [pc, #108]	; (8000548 <main+0x70>)
 80004dc:	681a      	ldr	r2, [r3, #0]
 80004de:	4b1b      	ldr	r3, [pc, #108]	; (800054c <main+0x74>)
 80004e0:	fba3 1202 	umull	r1, r2, r3, r2
SysTick_Config():
C:\Users\Filip\Eclipse\MutalInductionTester\CMSIS\Include/core_cm4.h:1285
 */
static __INLINE uint32_t SysTick_Config(uint32_t ticks)
{
  if (ticks > SysTick_LOAD_RELOAD_Msk)  return (1);            /* Reload value impossible */

  SysTick->LOAD  = (ticks & SysTick_LOAD_RELOAD_Msk) - 1;      /* set reload register */
 80004e4:	0992      	lsrs	r2, r2, #6
 80004e6:	3a01      	subs	r2, #1
 80004e8:	4b19      	ldr	r3, [pc, #100]	; (8000550 <main+0x78>)
 80004ea:	605a      	str	r2, [r3, #4]
NVIC_SetPriority():
C:\Users\Filip\Eclipse\MutalInductionTester\CMSIS\Include/core_cm4.h:1159
    \param [in]  priority  Priority to set
 */
static __INLINE void NVIC_SetPriority(IRQn_Type IRQn, uint32_t priority)
{
  if(IRQn < 0) {
    SCB->SHP[((uint32_t)(IRQn) & 0xF)-4] = ((priority << (8 - __NVIC_PRIO_BITS)) & 0xff); } /* set Priority for Cortex-M  System Interrupts */
 80004ec:	21f0      	movs	r1, #240	; 0xf0
 80004ee:	4a19      	ldr	r2, [pc, #100]	; (8000554 <main+0x7c>)
 80004f0:	f882 1023 	strb.w	r1, [r2, #35]	; 0x23
SysTick_Config():
C:\Users\Filip\Eclipse\MutalInductionTester\CMSIS\Include/core_cm4.h:1287
{
  if (ticks > SysTick_LOAD_RELOAD_Msk)  return (1);            /* Reload value impossible */

  SysTick->LOAD  = (ticks & SysTick_LOAD_RELOAD_Msk) - 1;      /* set reload register */
  NVIC_SetPriority (SysTick_IRQn, (1<<__NVIC_PRIO_BITS) - 1);  /* set Priority for Cortex-M0 System Interrupts */
  SysTick->VAL   = 0;                                          /* Load the SysTick Counter Value */
 80004f4:	2400      	movs	r4, #0
 80004f6:	609c      	str	r4, [r3, #8]
C:\Users\Filip\Eclipse\MutalInductionTester\CMSIS\Include/core_cm4.h:1288
  SysTick->CTRL  = SysTick_CTRL_CLKSOURCE_Msk |
 80004f8:	2207      	movs	r2, #7
 80004fa:	601a      	str	r2, [r3, #0]
main():
C:\Users\Filip\Eclipse\MutalInductionTester\Debug/../src/main.c:21
	STM_EVAL_LEDInit(LED3); // Oranzova
 80004fc:	2001      	movs	r0, #1
 80004fe:	f001 fe59 	bl	80021b4 <STM_EVAL_LEDInit>
C:\Users\Filip\Eclipse\MutalInductionTester\Debug/../src/main.c:22
	STM_EVAL_LEDInit(LED4); // Zelena
 8000502:	4620      	mov	r0, r4
 8000504:	f001 fe56 	bl	80021b4 <STM_EVAL_LEDInit>
C:\Users\Filip\Eclipse\MutalInductionTester\Debug/../src/main.c:23
	STM_EVAL_LEDInit(LED5); // Cervena
 8000508:	2002      	movs	r0, #2
 800050a:	f001 fe53 	bl	80021b4 <STM_EVAL_LEDInit>
C:\Users\Filip\Eclipse\MutalInductionTester\Debug/../src/main.c:24
	STM_EVAL_LEDInit(LED6); // Modra
 800050e:	2003      	movs	r0, #3
 8000510:	f001 fe50 	bl	80021b4 <STM_EVAL_LEDInit>
C:\Users\Filip\Eclipse\MutalInductionTester\Debug/../src/main.c:26

	GPIOD->BSRRL = LED_G;
 8000514:	4c10      	ldr	r4, [pc, #64]	; (8000558 <main+0x80>)
 8000516:	f44f 5580 	mov.w	r5, #4096	; 0x1000
 800051a:	8325      	strh	r5, [r4, #24]
C:\Users\Filip\Eclipse\MutalInductionTester\Debug/../src/main.c:27
	Delay(1000);
 800051c:	f44f 707a 	mov.w	r0, #1000	; 0x3e8
 8000520:	f000 f890 	bl	8000644 <Delay>
C:\Users\Filip\Eclipse\MutalInductionTester\Debug/../src/main.c:28
	GPIOD->BSRRH = LED_G;
 8000524:	8365      	strh	r5, [r4, #26]
C:\Users\Filip\Eclipse\MutalInductionTester\Debug/../src/main.c:29
	Init_Comunication();
 8000526:	f7ff fe2f 	bl	8000188 <Init_Comunication>
C:\Users\Filip\Eclipse\MutalInductionTester\Debug/../src/main.c:30
	timer_init();
 800052a:	f7ff ff5b 	bl	80003e4 <timer_init>
C:\Users\Filip\Eclipse\MutalInductionTester\Debug/../src/main.c:32

	USART_SendString(USART6, "\nSwitching Power Source Welcome\n");
 800052e:	480b      	ldr	r0, [pc, #44]	; (800055c <main+0x84>)
 8000530:	490b      	ldr	r1, [pc, #44]	; (8000560 <main+0x88>)
 8000532:	f7ff fe81 	bl	8000238 <USART_SendString>
C:\Users\Filip\Eclipse\MutalInductionTester\Debug/../src/main.c:35
	while (1) {
		GPIOD->ODR ^= LED_B;
		Delay(100);
 8000536:	2564      	movs	r5, #100	; 0x64
C:\Users\Filip\Eclipse\MutalInductionTester\Debug/../src/main.c:34 (discriminator 1)
	Init_Comunication();
	timer_init();

	USART_SendString(USART6, "\nSwitching Power Source Welcome\n");
	while (1) {
		GPIOD->ODR ^= LED_B;
 8000538:	6963      	ldr	r3, [r4, #20]
 800053a:	f483 4300 	eor.w	r3, r3, #32768	; 0x8000
 800053e:	6163      	str	r3, [r4, #20]
C:\Users\Filip\Eclipse\MutalInductionTester\Debug/../src/main.c:35 (discriminator 1)
		Delay(100);
 8000540:	4628      	mov	r0, r5
 8000542:	f000 f87f 	bl	8000644 <Delay>
 8000546:	e7f7      	b.n	8000538 <main+0x60>
 8000548:	20000000 	.word	0x20000000
 800054c:	10624dd3 	.word	0x10624dd3
 8000550:	e000e010 	.word	0xe000e010
 8000554:	e000ed00 	.word	0xe000ed00
 8000558:	40020c00 	.word	0x40020c00
 800055c:	40011400 	.word	0x40011400
 8000560:	080023a8 	.word	0x080023a8

08000564 <TIM4_IRQHandler>:
TIM4_IRQHandler():
C:\Users\Filip\Eclipse\MutalInductionTester\Debug/../src/main.c:142

	TIM_Cmd(TIM4, ENABLE);
}

void TIM4_IRQHandler(void) {
	if (TIM4->SR & TIM_SR_UIF) // if UIF flag is set
 8000564:	4b08      	ldr	r3, [pc, #32]	; (8000588 <TIM4_IRQHandler+0x24>)
 8000566:	8a1b      	ldrh	r3, [r3, #16]
 8000568:	f013 0f01 	tst.w	r3, #1
 800056c:	d00b      	beq.n	8000586 <TIM4_IRQHandler+0x22>
C:\Users\Filip\Eclipse\MutalInductionTester\Debug/../src/main.c:144
	{
		TIM4->SR &= ~TIM_SR_UIF; // clear UIF flag
 800056e:	4a06      	ldr	r2, [pc, #24]	; (8000588 <TIM4_IRQHandler+0x24>)
 8000570:	8a13      	ldrh	r3, [r2, #16]
 8000572:	f023 0301 	bic.w	r3, r3, #1
 8000576:	041b      	lsls	r3, r3, #16
 8000578:	0c1b      	lsrs	r3, r3, #16
 800057a:	8213      	strh	r3, [r2, #16]
C:\Users\Filip\Eclipse\MutalInductionTester\Debug/../src/main.c:145
		GPIOC->ODR ^= GPIO_Pin_5;
 800057c:	4b03      	ldr	r3, [pc, #12]	; (800058c <TIM4_IRQHandler+0x28>)
 800057e:	695a      	ldr	r2, [r3, #20]
 8000580:	f082 0220 	eor.w	r2, r2, #32
 8000584:	615a      	str	r2, [r3, #20]
 8000586:	4770      	bx	lr
 8000588:	40000800 	.word	0x40000800
 800058c:	40020800 	.word	0x40020800

08000590 <NMI_Handler>:
NMI_Handler():
C:\Users\Filip\Eclipse\MutalInductionTester\Debug/../src/stm32f4xx_it.c:18
  * @brief   This function handles NMI exception.
  * @param  None
  * @retval None
  */
void NMI_Handler(void)
{
 8000590:	b508      	push	{r3, lr}
C:\Users\Filip\Eclipse\MutalInductionTester\Debug/../src/stm32f4xx_it.c:19
	USART_SendString(USART6, "NMI_Exception");
 8000592:	4802      	ldr	r0, [pc, #8]	; (800059c <NMI_Handler+0xc>)
 8000594:	4902      	ldr	r1, [pc, #8]	; (80005a0 <NMI_Handler+0x10>)
 8000596:	f7ff fe4f 	bl	8000238 <USART_SendString>
 800059a:	bd08      	pop	{r3, pc}
 800059c:	40011400 	.word	0x40011400
 80005a0:	080023cc 	.word	0x080023cc

080005a4 <HardFault_Handler>:
HardFault_Handler():
C:\Users\Filip\Eclipse\MutalInductionTester\Debug/../src/stm32f4xx_it.c:28
  * @brief  This function handles Hard Fault exception.
  * @param  None
  * @retval None
  */
void HardFault_Handler(void)
{
 80005a4:	b508      	push	{r3, lr}
C:\Users\Filip\Eclipse\MutalInductionTester\Debug/../src/stm32f4xx_it.c:30
  /* Go to infinite loop when Hard Fault exception occurs */
  USART_SendString(USART6, "HardFault_Exception");
 80005a6:	4802      	ldr	r0, [pc, #8]	; (80005b0 <HardFault_Handler+0xc>)
 80005a8:	4902      	ldr	r1, [pc, #8]	; (80005b4 <HardFault_Handler+0x10>)
 80005aa:	f7ff fe45 	bl	8000238 <USART_SendString>
 80005ae:	e7fe      	b.n	80005ae <HardFault_Handler+0xa>
 80005b0:	40011400 	.word	0x40011400
 80005b4:	080023dc 	.word	0x080023dc

080005b8 <MemManage_Handler>:
MemManage_Handler():
C:\Users\Filip\Eclipse\MutalInductionTester\Debug/../src/stm32f4xx_it.c:42
  * @brief  This function handles Memory Manage exception.
  * @param  None
  * @retval None
  */
void MemManage_Handler(void)
{
 80005b8:	b508      	push	{r3, lr}
C:\Users\Filip\Eclipse\MutalInductionTester\Debug/../src/stm32f4xx_it.c:44
  /* Go to infinite loop when Memory Manage exception occurs */
  USART_SendString(USART6, "MemManage_Exception");
 80005ba:	4802      	ldr	r0, [pc, #8]	; (80005c4 <MemManage_Handler+0xc>)
 80005bc:	4902      	ldr	r1, [pc, #8]	; (80005c8 <MemManage_Handler+0x10>)
 80005be:	f7ff fe3b 	bl	8000238 <USART_SendString>
 80005c2:	e7fe      	b.n	80005c2 <MemManage_Handler+0xa>
 80005c4:	40011400 	.word	0x40011400
 80005c8:	080023f0 	.word	0x080023f0

080005cc <BusFault_Handler>:
BusFault_Handler():
C:\Users\Filip\Eclipse\MutalInductionTester\Debug/../src/stm32f4xx_it.c:56
  * @brief  This function handles Bus Fault exception.
  * @param  None
  * @retval None
  */
void BusFault_Handler(void)
{
 80005cc:	b508      	push	{r3, lr}
C:\Users\Filip\Eclipse\MutalInductionTester\Debug/../src/stm32f4xx_it.c:58
  /* Go to infinite loop when Bus Fault exception occurs */
  USART_SendString(USART6, "BusFault_Exception");
 80005ce:	4802      	ldr	r0, [pc, #8]	; (80005d8 <BusFault_Handler+0xc>)
 80005d0:	4902      	ldr	r1, [pc, #8]	; (80005dc <BusFault_Handler+0x10>)
 80005d2:	f7ff fe31 	bl	8000238 <USART_SendString>
 80005d6:	e7fe      	b.n	80005d6 <BusFault_Handler+0xa>
 80005d8:	40011400 	.word	0x40011400
 80005dc:	08002404 	.word	0x08002404

080005e0 <UsageFault_Handler>:
UsageFault_Handler():
C:\Users\Filip\Eclipse\MutalInductionTester\Debug/../src/stm32f4xx_it.c:70
  * @brief  This function handles Usage Fault exception.
  * @param  None
  * @retval None
  */
void UsageFault_Handler(void)
{
 80005e0:	b508      	push	{r3, lr}
C:\Users\Filip\Eclipse\MutalInductionTester\Debug/../src/stm32f4xx_it.c:72
  /* Go to infinite loop when Usage Fault exception occurs */
  USART_SendString(USART6, "UsageFault_Exception");
 80005e2:	4802      	ldr	r0, [pc, #8]	; (80005ec <UsageFault_Handler+0xc>)
 80005e4:	4902      	ldr	r1, [pc, #8]	; (80005f0 <UsageFault_Handler+0x10>)
 80005e6:	f7ff fe27 	bl	8000238 <USART_SendString>
 80005ea:	e7fe      	b.n	80005ea <UsageFault_Handler+0xa>
 80005ec:	40011400 	.word	0x40011400
 80005f0:	08002418 	.word	0x08002418

080005f4 <SVC_Handler>:
SVC_Handler():
C:\Users\Filip\Eclipse\MutalInductionTester\Debug/../src/stm32f4xx_it.c:84
  * @brief  This function handles SVCall exception.
  * @param  None
  * @retval None
  */
void SVC_Handler(void)
{
 80005f4:	b508      	push	{r3, lr}
C:\Users\Filip\Eclipse\MutalInductionTester\Debug/../src/stm32f4xx_it.c:85
	USART_SendString(USART6, "SVC_Exception");
 80005f6:	4802      	ldr	r0, [pc, #8]	; (8000600 <SVC_Handler+0xc>)
 80005f8:	4902      	ldr	r1, [pc, #8]	; (8000604 <SVC_Handler+0x10>)
 80005fa:	f7ff fe1d 	bl	8000238 <USART_SendString>
 80005fe:	bd08      	pop	{r3, pc}
 8000600:	40011400 	.word	0x40011400
 8000604:	08002448 	.word	0x08002448

08000608 <DebugMon_Handler>:
DebugMon_Handler():
C:\Users\Filip\Eclipse\MutalInductionTester\Debug/../src/stm32f4xx_it.c:94
  * @brief  This function handles Debug Monitor exception.
  * @param  None
  * @retval None
  */
void DebugMon_Handler(void)
{
 8000608:	b508      	push	{r3, lr}
C:\Users\Filip\Eclipse\MutalInductionTester\Debug/../src/stm32f4xx_it.c:95
	USART_SendString(USART6, "DebugMon_Exception");
 800060a:	4802      	ldr	r0, [pc, #8]	; (8000614 <DebugMon_Handler+0xc>)
 800060c:	4902      	ldr	r1, [pc, #8]	; (8000618 <DebugMon_Handler+0x10>)
 800060e:	f7ff fe13 	bl	8000238 <USART_SendString>
 8000612:	bd08      	pop	{r3, pc}
 8000614:	40011400 	.word	0x40011400
 8000618:	08002430 	.word	0x08002430

0800061c <PendSV_Handler>:
PendSV_Handler():
C:\Users\Filip\Eclipse\MutalInductionTester\Debug/../src/stm32f4xx_it.c:104
  * @brief  This function handles PendSVC exception.
  * @param  None
  * @retval None
  */
void PendSV_Handler(void)
{
 800061c:	b508      	push	{r3, lr}
C:\Users\Filip\Eclipse\MutalInductionTester\Debug/../src/stm32f4xx_it.c:105
	USART_SendString(USART6, "PendSVC_Exception");
 800061e:	4802      	ldr	r0, [pc, #8]	; (8000628 <PendSV_Handler+0xc>)
 8000620:	4902      	ldr	r1, [pc, #8]	; (800062c <PendSV_Handler+0x10>)
 8000622:	f7ff fe09 	bl	8000238 <USART_SendString>
 8000626:	bd08      	pop	{r3, pc}
 8000628:	40011400 	.word	0x40011400
 800062c:	08002444 	.word	0x08002444

08000630 <EXTI0_IRQHandler>:
EXTI0_IRQHandler():
C:\Users\Filip\Eclipse\MutalInductionTester\Debug/../src/stm32f4xx_it.c:130
/*  available peripheral interrupt handler's name please refer to the startup */
/*  file (startup_stm32f4xx.s).                                               */
/******************************************************************************/

void EXTI0_IRQHandler(void)
{
 8000630:	b508      	push	{r3, lr}
C:\Users\Filip\Eclipse\MutalInductionTester\Debug/../src/stm32f4xx_it.c:132
	uint32_t i;
  if(EXTI_GetITStatus(EXTI_Line0) != RESET)
 8000632:	2001      	movs	r0, #1
 8000634:	f000 f9d4 	bl	80009e0 <EXTI_GetITStatus>
 8000638:	b110      	cbz	r0, 8000640 <EXTI0_IRQHandler+0x10>
C:\Users\Filip\Eclipse\MutalInductionTester\Debug/../src/stm32f4xx_it.c:134
  {
    EXTI_ClearITPendingBit(EXTI_Line0);
 800063a:	2001      	movs	r0, #1
 800063c:	f000 f9de 	bl	80009fc <EXTI_ClearITPendingBit>
 8000640:	bd08      	pop	{r3, pc}
 8000642:	bf00      	nop

08000644 <Delay>:
Delay():
C:\Users\Filip\Eclipse\MutalInductionTester\Debug/../src/stm32f4xx_it.c:142

/******************* (C) COPYRIGHT 2011 STMicroelectronics *****END OF FILE****/
__IO uint32_t TimingDelay = 0;

void Delay(__IO uint32_t nTime)
{ 
 8000644:	b082      	sub	sp, #8
 8000646:	9001      	str	r0, [sp, #4]
C:\Users\Filip\Eclipse\MutalInductionTester\Debug/../src/stm32f4xx_it.c:143
  TimingDelay = nTime;
 8000648:	9a01      	ldr	r2, [sp, #4]
 800064a:	4b04      	ldr	r3, [pc, #16]	; (800065c <Delay+0x18>)
 800064c:	601a      	str	r2, [r3, #0]
C:\Users\Filip\Eclipse\MutalInductionTester\Debug/../src/stm32f4xx_it.c:145

  while(TimingDelay != 0);
 800064e:	461a      	mov	r2, r3
C:\Users\Filip\Eclipse\MutalInductionTester\Debug/../src/stm32f4xx_it.c:145 (discriminator 1)
 8000650:	6813      	ldr	r3, [r2, #0]
 8000652:	2b00      	cmp	r3, #0
 8000654:	d1fc      	bne.n	8000650 <Delay+0xc>
C:\Users\Filip\Eclipse\MutalInductionTester\Debug/../src/stm32f4xx_it.c:146
}
 8000656:	b002      	add	sp, #8
 8000658:	4770      	bx	lr
 800065a:	bf00      	nop
 800065c:	20000044 	.word	0x20000044

08000660 <TimingDelay_Decrement>:
TimingDelay_Decrement():
C:\Users\Filip\Eclipse\MutalInductionTester\Debug/../src/stm32f4xx_it.c:150

void TimingDelay_Decrement(void)
{
  if (TimingDelay != 0x00)
 8000660:	4b03      	ldr	r3, [pc, #12]	; (8000670 <TimingDelay_Decrement+0x10>)
 8000662:	681b      	ldr	r3, [r3, #0]
 8000664:	b11b      	cbz	r3, 800066e <TimingDelay_Decrement+0xe>
C:\Users\Filip\Eclipse\MutalInductionTester\Debug/../src/stm32f4xx_it.c:152
  { 
    TimingDelay--;
 8000666:	4b02      	ldr	r3, [pc, #8]	; (8000670 <TimingDelay_Decrement+0x10>)
 8000668:	681a      	ldr	r2, [r3, #0]
 800066a:	3a01      	subs	r2, #1
 800066c:	601a      	str	r2, [r3, #0]
 800066e:	4770      	bx	lr
 8000670:	20000044 	.word	0x20000044

08000674 <SysTick_Handler>:
SysTick_Handler():
C:\Users\Filip\Eclipse\MutalInductionTester\Debug/../src/stm32f4xx_it.c:114
  * @brief  This function handles SysTick Handler.
  * @param  None
  * @retval None
  */
void SysTick_Handler(void)
{  
 8000674:	b508      	push	{r3, lr}
C:\Users\Filip\Eclipse\MutalInductionTester\Debug/../src/stm32f4xx_it.c:115
  if (TimingDelay != 0x00)
 8000676:	4b05      	ldr	r3, [pc, #20]	; (800068c <SysTick_Handler+0x18>)
 8000678:	681b      	ldr	r3, [r3, #0]
 800067a:	b10b      	cbz	r3, 8000680 <SysTick_Handler+0xc>
C:\Users\Filip\Eclipse\MutalInductionTester\Debug/../src/stm32f4xx_it.c:117
  {
    TimingDelay_Decrement();
 800067c:	f7ff fff0 	bl	8000660 <TimingDelay_Decrement>
C:\Users\Filip\Eclipse\MutalInductionTester\Debug/../src/stm32f4xx_it.c:119
  }
	Time++;
 8000680:	4b03      	ldr	r3, [pc, #12]	; (8000690 <SysTick_Handler+0x1c>)
 8000682:	681a      	ldr	r2, [r3, #0]
 8000684:	3201      	adds	r2, #1
 8000686:	601a      	str	r2, [r3, #0]
 8000688:	bd08      	pop	{r3, pc}
 800068a:	bf00      	nop
 800068c:	20000044 	.word	0x20000044
 8000690:	2000007c 	.word	0x2000007c

08000694 <SetSysClock>:
SetSysClock():
C:\Users\Filip\Eclipse\Template\Debug/../src/system_stm32f4xx.c:334
  *         is reset to the default reset state (done in SystemInit() function).   
  * @param  None
  * @retval None
  */
static void SetSysClock(void)
{
 8000694:	b082      	sub	sp, #8
C:\Users\Filip\Eclipse\Template\Debug/../src/system_stm32f4xx.c:338
/******************************************************************************/
/*            PLL (clocked by HSE) used as System clock source                */
/******************************************************************************/
  __IO uint32_t StartUpCounter = 0, HSEStatus = 0;
 8000696:	2300      	movs	r3, #0
 8000698:	9301      	str	r3, [sp, #4]
 800069a:	9300      	str	r3, [sp, #0]
C:\Users\Filip\Eclipse\Template\Debug/../src/system_stm32f4xx.c:341
  
  /* Enable HSE */
  RCC->CR |= ((uint32_t)RCC_CR_HSEON);
 800069c:	4b29      	ldr	r3, [pc, #164]	; (8000744 <SetSysClock+0xb0>)
 800069e:	681a      	ldr	r2, [r3, #0]
 80006a0:	f442 3280 	orr.w	r2, r2, #65536	; 0x10000
 80006a4:	601a      	str	r2, [r3, #0]
C:\Users\Filip\Eclipse\Template\Debug/../src/system_stm32f4xx.c:346
 
  /* Wait till HSE is ready and if Time out is reached exit */
  do
  {
    HSEStatus = RCC->CR & RCC_CR_HSERDY;
 80006a6:	461a      	mov	r2, r3
C:\Users\Filip\Eclipse\Template\Debug/../src/system_stm32f4xx.c:346 (discriminator 1)
 80006a8:	6813      	ldr	r3, [r2, #0]
 80006aa:	f403 3300 	and.w	r3, r3, #131072	; 0x20000
 80006ae:	9300      	str	r3, [sp, #0]
C:\Users\Filip\Eclipse\Template\Debug/../src/system_stm32f4xx.c:347 (discriminator 1)
    StartUpCounter++;
 80006b0:	9b01      	ldr	r3, [sp, #4]
 80006b2:	3301      	adds	r3, #1
 80006b4:	9301      	str	r3, [sp, #4]
C:\Users\Filip\Eclipse\Template\Debug/../src/system_stm32f4xx.c:348 (discriminator 1)
  } while((HSEStatus == 0) && (StartUpCounter != HSE_STARTUP_TIMEOUT));
 80006b6:	9b00      	ldr	r3, [sp, #0]
 80006b8:	b91b      	cbnz	r3, 80006c2 <SetSysClock+0x2e>
 80006ba:	9b01      	ldr	r3, [sp, #4]
 80006bc:	f5b3 6fa0 	cmp.w	r3, #1280	; 0x500
 80006c0:	d1f2      	bne.n	80006a8 <SetSysClock+0x14>
C:\Users\Filip\Eclipse\Template\Debug/../src/system_stm32f4xx.c:350

  if ((RCC->CR & RCC_CR_HSERDY) != RESET)
 80006c2:	4b20      	ldr	r3, [pc, #128]	; (8000744 <SetSysClock+0xb0>)
 80006c4:	681b      	ldr	r3, [r3, #0]
 80006c6:	f413 3f00 	tst.w	r3, #131072	; 0x20000
C:\Users\Filip\Eclipse\Template\Debug/../src/system_stm32f4xx.c:352
  {
    HSEStatus = (uint32_t)0x01;
 80006ca:	bf14      	ite	ne
 80006cc:	2301      	movne	r3, #1
C:\Users\Filip\Eclipse\Template\Debug/../src/system_stm32f4xx.c:356
  }
  else
  {
    HSEStatus = (uint32_t)0x00;
 80006ce:	2300      	moveq	r3, #0
 80006d0:	9300      	str	r3, [sp, #0]
C:\Users\Filip\Eclipse\Template\Debug/../src/system_stm32f4xx.c:359
  }

  if (HSEStatus == (uint32_t)0x01)
 80006d2:	9b00      	ldr	r3, [sp, #0]
 80006d4:	2b01      	cmp	r3, #1
 80006d6:	d132      	bne.n	800073e <SetSysClock+0xaa>
C:\Users\Filip\Eclipse\Template\Debug/../src/system_stm32f4xx.c:362
  {
    /* Enable high performance mode, System frequency up to 168 MHz */
    RCC->APB1ENR |= RCC_APB1ENR_PWREN;
 80006d8:	4b1a      	ldr	r3, [pc, #104]	; (8000744 <SetSysClock+0xb0>)
 80006da:	6c1a      	ldr	r2, [r3, #64]	; 0x40
 80006dc:	f042 5280 	orr.w	r2, r2, #268435456	; 0x10000000
 80006e0:	641a      	str	r2, [r3, #64]	; 0x40
C:\Users\Filip\Eclipse\Template\Debug/../src/system_stm32f4xx.c:363
    PWR->CR |= PWR_CR_PMODE;  
 80006e2:	4a19      	ldr	r2, [pc, #100]	; (8000748 <SetSysClock+0xb4>)
 80006e4:	6811      	ldr	r1, [r2, #0]
 80006e6:	f441 4180 	orr.w	r1, r1, #16384	; 0x4000
 80006ea:	6011      	str	r1, [r2, #0]
C:\Users\Filip\Eclipse\Template\Debug/../src/system_stm32f4xx.c:366

    /* HCLK = SYSCLK / 1*/
    RCC->CFGR |= RCC_CFGR_HPRE_DIV1;
 80006ec:	689a      	ldr	r2, [r3, #8]
 80006ee:	609a      	str	r2, [r3, #8]
C:\Users\Filip\Eclipse\Template\Debug/../src/system_stm32f4xx.c:369
      
    /* PCLK2 = HCLK / 2*/
    RCC->CFGR |= RCC_CFGR_PPRE2_DIV2;
 80006f0:	689a      	ldr	r2, [r3, #8]
 80006f2:	f442 4200 	orr.w	r2, r2, #32768	; 0x8000
 80006f6:	609a      	str	r2, [r3, #8]
C:\Users\Filip\Eclipse\Template\Debug/../src/system_stm32f4xx.c:372
    
    /* PCLK1 = HCLK / 4*/
    RCC->CFGR |= RCC_CFGR_PPRE1_DIV4;
 80006f8:	689a      	ldr	r2, [r3, #8]
 80006fa:	f442 52a0 	orr.w	r2, r2, #5120	; 0x1400
 80006fe:	609a      	str	r2, [r3, #8]
C:\Users\Filip\Eclipse\Template\Debug/../src/system_stm32f4xx.c:375

    /* Configure the main PLL */
    RCC->PLLCFGR = PLL_M | (PLL_N << 6) | (((PLL_P >> 1) -1) << 16) |
 8000700:	4a12      	ldr	r2, [pc, #72]	; (800074c <SetSysClock+0xb8>)
 8000702:	605a      	str	r2, [r3, #4]
C:\Users\Filip\Eclipse\Template\Debug/../src/system_stm32f4xx.c:379
                   (RCC_PLLCFGR_PLLSRC_HSE) | (PLL_Q << 24);

    /* Enable the main PLL */
    RCC->CR |= RCC_CR_PLLON;
 8000704:	681a      	ldr	r2, [r3, #0]
 8000706:	f042 7280 	orr.w	r2, r2, #16777216	; 0x1000000
 800070a:	601a      	str	r2, [r3, #0]
C:\Users\Filip\Eclipse\Template\Debug/../src/system_stm32f4xx.c:382

    /* Wait till the main PLL is ready */
    while((RCC->CR & RCC_CR_PLLRDY) == 0)
 800070c:	461a      	mov	r2, r3
C:\Users\Filip\Eclipse\Template\Debug/../src/system_stm32f4xx.c:382 (discriminator 1)
 800070e:	6813      	ldr	r3, [r2, #0]
 8000710:	f013 7f00 	tst.w	r3, #33554432	; 0x2000000
 8000714:	d0fb      	beq.n	800070e <SetSysClock+0x7a>
C:\Users\Filip\Eclipse\Template\Debug/../src/system_stm32f4xx.c:387
    {
    }
   
    /* Configure Flash prefetch, Instruction cache, Data cache and wait state */
    FLASH->ACR = FLASH_ACR_ICEN |FLASH_ACR_DCEN |FLASH_ACR_LATENCY_5WS;
 8000716:	f240 6205 	movw	r2, #1541	; 0x605
 800071a:	4b0d      	ldr	r3, [pc, #52]	; (8000750 <SetSysClock+0xbc>)
 800071c:	601a      	str	r2, [r3, #0]
C:\Users\Filip\Eclipse\Template\Debug/../src/system_stm32f4xx.c:390

    /* Select the main PLL as system clock source */
    RCC->CFGR &= (uint32_t)((uint32_t)~(RCC_CFGR_SW));
 800071e:	f5a3 6380 	sub.w	r3, r3, #1024	; 0x400
 8000722:	689a      	ldr	r2, [r3, #8]
 8000724:	f022 0203 	bic.w	r2, r2, #3
 8000728:	609a      	str	r2, [r3, #8]
C:\Users\Filip\Eclipse\Template\Debug/../src/system_stm32f4xx.c:391
    RCC->CFGR |= RCC_CFGR_SW_PLL;
 800072a:	689a      	ldr	r2, [r3, #8]
 800072c:	f042 0202 	orr.w	r2, r2, #2
 8000730:	609a      	str	r2, [r3, #8]
C:\Users\Filip\Eclipse\Template\Debug/../src/system_stm32f4xx.c:394

    /* Wait till the main PLL is used as system clock source */
    while ((RCC->CFGR & (uint32_t)RCC_CFGR_SWS ) != RCC_CFGR_SWS_PLL);
 8000732:	461a      	mov	r2, r3
C:\Users\Filip\Eclipse\Template\Debug/../src/system_stm32f4xx.c:394 (discriminator 1)
 8000734:	6893      	ldr	r3, [r2, #8]
 8000736:	f003 030c 	and.w	r3, r3, #12
 800073a:	2b08      	cmp	r3, #8
 800073c:	d1fa      	bne.n	8000734 <SetSysClock+0xa0>
C:\Users\Filip\Eclipse\Template\Debug/../src/system_stm32f4xx.c:403
  else
  { /* If HSE fails to start-up, the application will have wrong clock
         configuration. User can add here some code to deal with this error */
  }

}
 800073e:	b002      	add	sp, #8
 8000740:	4770      	bx	lr
 8000742:	bf00      	nop
 8000744:	40023800 	.word	0x40023800
 8000748:	40007000 	.word	0x40007000
 800074c:	07405408 	.word	0x07405408
 8000750:	40023c00 	.word	0x40023c00

08000754 <SystemInit>:
SystemInit():
C:\Users\Filip\Eclipse\Template\Debug/../src/system_stm32f4xx.c:205
  *         SystemFrequency variable.
  * @param  None
  * @retval None
  */
void SystemInit(void)
{
 8000754:	b508      	push	{r3, lr}
C:\Users\Filip\Eclipse\Template\Debug/../src/system_stm32f4xx.c:208
  /* Reset the RCC clock configuration to the default reset state ------------*/
  /* Set HSION bit */
  RCC->CR |= (uint32_t)0x00000001;
 8000756:	4b0d      	ldr	r3, [pc, #52]	; (800078c <SystemInit+0x38>)
 8000758:	681a      	ldr	r2, [r3, #0]
 800075a:	f042 0201 	orr.w	r2, r2, #1
 800075e:	601a      	str	r2, [r3, #0]
C:\Users\Filip\Eclipse\Template\Debug/../src/system_stm32f4xx.c:211

  /* Reset CFGR register */
  RCC->CFGR = 0x00000000;
 8000760:	2100      	movs	r1, #0
 8000762:	6099      	str	r1, [r3, #8]
C:\Users\Filip\Eclipse\Template\Debug/../src/system_stm32f4xx.c:214

  /* Reset HSEON, CSSON and PLLON bits */
  RCC->CR &= (uint32_t)0xFEF6FFFF;
 8000764:	681a      	ldr	r2, [r3, #0]
 8000766:	f022 7284 	bic.w	r2, r2, #17301504	; 0x1080000
 800076a:	f422 3280 	bic.w	r2, r2, #65536	; 0x10000
 800076e:	601a      	str	r2, [r3, #0]
C:\Users\Filip\Eclipse\Template\Debug/../src/system_stm32f4xx.c:217

  /* Reset PLLCFGR register */
  RCC->PLLCFGR = 0x24003010;
 8000770:	4a07      	ldr	r2, [pc, #28]	; (8000790 <SystemInit+0x3c>)
 8000772:	605a      	str	r2, [r3, #4]
C:\Users\Filip\Eclipse\Template\Debug/../src/system_stm32f4xx.c:220

  /* Reset HSEBYP bit */
  RCC->CR &= (uint32_t)0xFFFBFFFF;
 8000774:	681a      	ldr	r2, [r3, #0]
 8000776:	f422 2280 	bic.w	r2, r2, #262144	; 0x40000
 800077a:	601a      	str	r2, [r3, #0]
C:\Users\Filip\Eclipse\Template\Debug/../src/system_stm32f4xx.c:223

  /* Disable all interrupts */
  RCC->CIR = 0x00000000;
 800077c:	60d9      	str	r1, [r3, #12]
C:\Users\Filip\Eclipse\Template\Debug/../src/system_stm32f4xx.c:231
  SystemInit_ExtMemCtl(); 
#endif /* DATA_IN_ExtSRAM */
         
  /* Configure the System clock source, PLL Multiplier and Divider factors, 
     AHB/APBx prescalers and Flash settings ----------------------------------*/
  SetSysClock();
 800077e:	f7ff ff89 	bl	8000694 <SetSysClock>
C:\Users\Filip\Eclipse\Template\Debug/../src/system_stm32f4xx.c:237

  /* Configure the Vector Table location add offset address ------------------*/
#ifdef VECT_TAB_SRAM
  SCB->VTOR = SRAM_BASE | VECT_TAB_OFFSET; /* Vector Table Relocation in Internal SRAM */
#else
  SCB->VTOR = FLASH_BASE | VECT_TAB_OFFSET; /* Vector Table Relocation in Internal FLASH */
 8000782:	f04f 6200 	mov.w	r2, #134217728	; 0x8000000
 8000786:	4b03      	ldr	r3, [pc, #12]	; (8000794 <SystemInit+0x40>)
 8000788:	609a      	str	r2, [r3, #8]
 800078a:	bd08      	pop	{r3, pc}
 800078c:	40023800 	.word	0x40023800
 8000790:	24003010 	.word	0x24003010
 8000794:	e000ed00 	.word	0xe000ed00

08000798 <SystemCoreClockUpdate>:
SystemCoreClockUpdate():
C:\Users\Filip\Eclipse\Template\Debug/../src/system_stm32f4xx.c:282
void SystemCoreClockUpdate(void)
{
  uint32_t tmp = 0, pllvco = 0, pllp = 2, pllsource = 0, pllm = 2;
  
  /* Get SYSCLK source -------------------------------------------------------*/
  tmp = RCC->CFGR & RCC_CFGR_SWS;
 8000798:	4b1e      	ldr	r3, [pc, #120]	; (8000814 <SystemCoreClockUpdate+0x7c>)
 800079a:	689b      	ldr	r3, [r3, #8]
 800079c:	f003 030c 	and.w	r3, r3, #12
C:\Users\Filip\Eclipse\Template\Debug/../src/system_stm32f4xx.c:284

  switch (tmp)
 80007a0:	2b04      	cmp	r3, #4
 80007a2:	d006      	beq.n	80007b2 <SystemCoreClockUpdate+0x1a>
 80007a4:	2b08      	cmp	r3, #8
 80007a6:	d008      	beq.n	80007ba <SystemCoreClockUpdate+0x22>
 80007a8:	bb23      	cbnz	r3, 80007f4 <SystemCoreClockUpdate+0x5c>
C:\Users\Filip\Eclipse\Template\Debug/../src/system_stm32f4xx.c:287
  {
    case 0x00:  /* HSI used as system clock source */
      SystemCoreClock = HSI_VALUE;
 80007aa:	4a1b      	ldr	r2, [pc, #108]	; (8000818 <SystemCoreClockUpdate+0x80>)
 80007ac:	4b1b      	ldr	r3, [pc, #108]	; (800081c <SystemCoreClockUpdate+0x84>)
 80007ae:	601a      	str	r2, [r3, #0]
C:\Users\Filip\Eclipse\Template\Debug/../src/system_stm32f4xx.c:288
      break;
 80007b0:	e023      	b.n	80007fa <SystemCoreClockUpdate+0x62>
C:\Users\Filip\Eclipse\Template\Debug/../src/system_stm32f4xx.c:290
    case 0x04:  /* HSE used as system clock source */
      SystemCoreClock = HSE_VALUE;
 80007b2:	4a1b      	ldr	r2, [pc, #108]	; (8000820 <SystemCoreClockUpdate+0x88>)
 80007b4:	4b19      	ldr	r3, [pc, #100]	; (800081c <SystemCoreClockUpdate+0x84>)
 80007b6:	601a      	str	r2, [r3, #0]
C:\Users\Filip\Eclipse\Template\Debug/../src/system_stm32f4xx.c:291
      break;
 80007b8:	e01f      	b.n	80007fa <SystemCoreClockUpdate+0x62>
C:\Users\Filip\Eclipse\Template\Debug/../src/system_stm32f4xx.c:297
    case 0x08:  /* PLL used as system clock source */

      /* PLL_VCO = (HSE_VALUE or HSI_VALUE / PLL_M) * PLL_N
         SYSCLK = PLL_VCO / PLL_P
         */    
      pllsource = (RCC->PLLCFGR & RCC_PLLCFGR_PLLSRC) >> 22;
 80007ba:	4b16      	ldr	r3, [pc, #88]	; (8000814 <SystemCoreClockUpdate+0x7c>)
 80007bc:	6859      	ldr	r1, [r3, #4]
C:\Users\Filip\Eclipse\Template\Debug/../src/system_stm32f4xx.c:298
      pllm = RCC->PLLCFGR & RCC_PLLCFGR_PLLM;
 80007be:	685b      	ldr	r3, [r3, #4]
 80007c0:	f003 033f 	and.w	r3, r3, #63	; 0x3f
C:\Users\Filip\Eclipse\Template\Debug/../src/system_stm32f4xx.c:300
      
      if (pllsource != 0)
 80007c4:	f411 0f80 	tst.w	r1, #4194304	; 0x400000
C:\Users\Filip\Eclipse\Template\Debug/../src/system_stm32f4xx.c:303
      {
        /* HSE used as PLL clock source */
        pllvco = (HSE_VALUE / pllm) * ((RCC->PLLCFGR & RCC_PLLCFGR_PLLN) >> 6);
 80007c8:	bf14      	ite	ne
 80007ca:	4a15      	ldrne	r2, [pc, #84]	; (8000820 <SystemCoreClockUpdate+0x88>)
C:\Users\Filip\Eclipse\Template\Debug/../src/system_stm32f4xx.c:308
      }
      else
      {
        /* HSI used as PLL clock source */
        pllvco = (HSI_VALUE / pllm) * ((RCC->PLLCFGR & RCC_PLLCFGR_PLLN) >> 6);      
 80007cc:	4a12      	ldreq	r2, [pc, #72]	; (8000818 <SystemCoreClockUpdate+0x80>)
 80007ce:	fbb2 f3f3 	udiv	r3, r2, r3
 80007d2:	4a10      	ldr	r2, [pc, #64]	; (8000814 <SystemCoreClockUpdate+0x7c>)
 80007d4:	6852      	ldr	r2, [r2, #4]
 80007d6:	f3c2 1288 	ubfx	r2, r2, #6, #9
 80007da:	fb02 f203 	mul.w	r2, r2, r3
C:\Users\Filip\Eclipse\Template\Debug/../src/system_stm32f4xx.c:311
      }

      pllp = (((RCC->PLLCFGR & RCC_PLLCFGR_PLLP) >>16) + 1 ) *2;
 80007de:	4b0d      	ldr	r3, [pc, #52]	; (8000814 <SystemCoreClockUpdate+0x7c>)
 80007e0:	685b      	ldr	r3, [r3, #4]
 80007e2:	f3c3 4301 	ubfx	r3, r3, #16, #2
 80007e6:	3301      	adds	r3, #1
 80007e8:	005b      	lsls	r3, r3, #1
C:\Users\Filip\Eclipse\Template\Debug/../src/system_stm32f4xx.c:312
      SystemCoreClock = pllvco/pllp;
 80007ea:	fbb2 f2f3 	udiv	r2, r2, r3
 80007ee:	4b0b      	ldr	r3, [pc, #44]	; (800081c <SystemCoreClockUpdate+0x84>)
 80007f0:	601a      	str	r2, [r3, #0]
C:\Users\Filip\Eclipse\Template\Debug/../src/system_stm32f4xx.c:313
      break;
 80007f2:	e002      	b.n	80007fa <SystemCoreClockUpdate+0x62>
C:\Users\Filip\Eclipse\Template\Debug/../src/system_stm32f4xx.c:315
    default:
      SystemCoreClock = HSI_VALUE;
 80007f4:	4a08      	ldr	r2, [pc, #32]	; (8000818 <SystemCoreClockUpdate+0x80>)
 80007f6:	4b09      	ldr	r3, [pc, #36]	; (800081c <SystemCoreClockUpdate+0x84>)
 80007f8:	601a      	str	r2, [r3, #0]
C:\Users\Filip\Eclipse\Template\Debug/../src/system_stm32f4xx.c:320
      break;
  }
  /* Compute HCLK frequency --------------------------------------------------*/
  /* Get HCLK prescaler */
  tmp = AHBPrescTable[((RCC->CFGR & RCC_CFGR_HPRE) >> 4)];
 80007fa:	4b06      	ldr	r3, [pc, #24]	; (8000814 <SystemCoreClockUpdate+0x7c>)
 80007fc:	689a      	ldr	r2, [r3, #8]
 80007fe:	f3c2 1203 	ubfx	r2, r2, #4, #4
 8000802:	4b06      	ldr	r3, [pc, #24]	; (800081c <SystemCoreClockUpdate+0x84>)
 8000804:	441a      	add	r2, r3
 8000806:	7911      	ldrb	r1, [r2, #4]
 8000808:	b2c9      	uxtb	r1, r1
C:\Users\Filip\Eclipse\Template\Debug/../src/system_stm32f4xx.c:322
  /* HCLK frequency */
  SystemCoreClock >>= tmp;
 800080a:	681a      	ldr	r2, [r3, #0]
 800080c:	40ca      	lsrs	r2, r1
 800080e:	601a      	str	r2, [r3, #0]
 8000810:	4770      	bx	lr
 8000812:	bf00      	nop
 8000814:	40023800 	.word	0x40023800
 8000818:	00f42400 	.word	0x00f42400
 800081c:	20000000 	.word	0x20000000
 8000820:	007a1200 	.word	0x007a1200

08000824 <NVIC_PriorityGroupConfig>:
NVIC_PriorityGroupConfig():
C:\Users\Filip\Eclipse\Template\Debug/../STM32F4xx_StdPeriph_Driver/src/misc.c:118
{
  /* Check the parameters */
  assert_param(IS_NVIC_PRIORITY_GROUP(NVIC_PriorityGroup));
  
  /* Set the PRIGROUP[10:8] bits according to NVIC_PriorityGroup value */
  SCB->AIRCR = AIRCR_VECTKEY_MASK | NVIC_PriorityGroup;
 8000824:	f040 60bf 	orr.w	r0, r0, #100139008	; 0x5f80000
 8000828:	f440 3000 	orr.w	r0, r0, #131072	; 0x20000
 800082c:	4b01      	ldr	r3, [pc, #4]	; (8000834 <NVIC_PriorityGroupConfig+0x10>)
 800082e:	60d8      	str	r0, [r3, #12]
 8000830:	4770      	bx	lr
 8000832:	bf00      	nop
 8000834:	e000ed00 	.word	0xe000ed00

08000838 <NVIC_Init>:
NVIC_Init():
C:\Users\Filip\Eclipse\Template\Debug/../STM32F4xx_StdPeriph_Driver/src/misc.c:131
  * @param  NVIC_InitStruct: pointer to a NVIC_InitTypeDef structure that contains
  *         the configuration information for the specified NVIC peripheral.
  * @retval None
  */
void NVIC_Init(NVIC_InitTypeDef* NVIC_InitStruct)
{
 8000838:	b410      	push	{r4}
C:\Users\Filip\Eclipse\Template\Debug/../STM32F4xx_StdPeriph_Driver/src/misc.c:139
  /* Check the parameters */
  assert_param(IS_FUNCTIONAL_STATE(NVIC_InitStruct->NVIC_IRQChannelCmd));
  assert_param(IS_NVIC_PREEMPTION_PRIORITY(NVIC_InitStruct->NVIC_IRQChannelPreemptionPriority));  
  assert_param(IS_NVIC_SUB_PRIORITY(NVIC_InitStruct->NVIC_IRQChannelSubPriority));
    
  if (NVIC_InitStruct->NVIC_IRQChannelCmd != DISABLE)
 800083a:	78c3      	ldrb	r3, [r0, #3]
 800083c:	b31b      	cbz	r3, 8000886 <NVIC_Init+0x4e>
C:\Users\Filip\Eclipse\Template\Debug/../STM32F4xx_StdPeriph_Driver/src/misc.c:142
  {
    /* Compute the Corresponding IRQ Priority --------------------------------*/    
    tmppriority = (0x700 - ((SCB->AIRCR) & (uint32_t)0x700))>> 0x08;
 800083e:	4b19      	ldr	r3, [pc, #100]	; (80008a4 <NVIC_Init+0x6c>)
 8000840:	68db      	ldr	r3, [r3, #12]
 8000842:	43db      	mvns	r3, r3
 8000844:	f3c3 2302 	ubfx	r3, r3, #8, #3
C:\Users\Filip\Eclipse\Template\Debug/../STM32F4xx_StdPeriph_Driver/src/misc.c:143
    tmppre = (0x4 - tmppriority);
 8000848:	f1c3 0204 	rsb	r2, r3, #4
 800084c:	b2d2      	uxtb	r2, r2
C:\Users\Filip\Eclipse\Template\Debug/../STM32F4xx_StdPeriph_Driver/src/misc.c:144
    tmpsub = tmpsub >> tmppriority;
 800084e:	210f      	movs	r1, #15
 8000850:	fa41 f303 	asr.w	r3, r1, r3
C:\Users\Filip\Eclipse\Template\Debug/../STM32F4xx_StdPeriph_Driver/src/misc.c:146

    tmppriority = NVIC_InitStruct->NVIC_IRQChannelPreemptionPriority << tmppre;
 8000854:	7841      	ldrb	r1, [r0, #1]
 8000856:	fa01 f202 	lsl.w	r2, r1, r2
 800085a:	b2d2      	uxtb	r2, r2
C:\Users\Filip\Eclipse\Template\Debug/../STM32F4xx_StdPeriph_Driver/src/misc.c:147
    tmppriority |=  (uint8_t)(NVIC_InitStruct->NVIC_IRQChannelSubPriority & tmpsub);
 800085c:	7884      	ldrb	r4, [r0, #2]
 800085e:	ea03 0104 	and.w	r1, r3, r4
 8000862:	4311      	orrs	r1, r2
C:\Users\Filip\Eclipse\Template\Debug/../STM32F4xx_StdPeriph_Driver/src/misc.c:149
        
    tmppriority = tmppriority << 0x04;
 8000864:	0109      	lsls	r1, r1, #4
 8000866:	b2c9      	uxtb	r1, r1
C:\Users\Filip\Eclipse\Template\Debug/../STM32F4xx_StdPeriph_Driver/src/misc.c:151
        
    NVIC->IP[NVIC_InitStruct->NVIC_IRQChannel] = tmppriority;
 8000868:	7802      	ldrb	r2, [r0, #0]
 800086a:	4b0f      	ldr	r3, [pc, #60]	; (80008a8 <NVIC_Init+0x70>)
 800086c:	441a      	add	r2, r3
 800086e:	f882 1300 	strb.w	r1, [r2, #768]	; 0x300
C:\Users\Filip\Eclipse\Template\Debug/../STM32F4xx_StdPeriph_Driver/src/misc.c:154
    
    /* Enable the Selected IRQ Channels --------------------------------------*/
    NVIC->ISER[NVIC_InitStruct->NVIC_IRQChannel >> 0x05] =
 8000872:	7802      	ldrb	r2, [r0, #0]
 8000874:	0951      	lsrs	r1, r2, #5
C:\Users\Filip\Eclipse\Template\Debug/../STM32F4xx_StdPeriph_Driver/src/misc.c:155
      (uint32_t)0x01 << (NVIC_InitStruct->NVIC_IRQChannel & (uint8_t)0x1F);
 8000876:	f002 021f 	and.w	r2, r2, #31
 800087a:	2001      	movs	r0, #1
 800087c:	fa00 f202 	lsl.w	r2, r0, r2
C:\Users\Filip\Eclipse\Template\Debug/../STM32F4xx_StdPeriph_Driver/src/misc.c:154
    tmppriority = tmppriority << 0x04;
        
    NVIC->IP[NVIC_InitStruct->NVIC_IRQChannel] = tmppriority;
    
    /* Enable the Selected IRQ Channels --------------------------------------*/
    NVIC->ISER[NVIC_InitStruct->NVIC_IRQChannel >> 0x05] =
 8000880:	f843 2021 	str.w	r2, [r3, r1, lsl #2]
 8000884:	e00a      	b.n	800089c <NVIC_Init+0x64>
C:\Users\Filip\Eclipse\Template\Debug/../STM32F4xx_StdPeriph_Driver/src/misc.c:160
      (uint32_t)0x01 << (NVIC_InitStruct->NVIC_IRQChannel & (uint8_t)0x1F);
  }
  else
  {
    /* Disable the Selected IRQ Channels -------------------------------------*/
    NVIC->ICER[NVIC_InitStruct->NVIC_IRQChannel >> 0x05] =
 8000886:	7803      	ldrb	r3, [r0, #0]
 8000888:	0959      	lsrs	r1, r3, #5
C:\Users\Filip\Eclipse\Template\Debug/../STM32F4xx_StdPeriph_Driver/src/misc.c:161
      (uint32_t)0x01 << (NVIC_InitStruct->NVIC_IRQChannel & (uint8_t)0x1F);
 800088a:	f003 031f 	and.w	r3, r3, #31
 800088e:	2201      	movs	r2, #1
 8000890:	fa02 f303 	lsl.w	r3, r2, r3
C:\Users\Filip\Eclipse\Template\Debug/../STM32F4xx_StdPeriph_Driver/src/misc.c:160
      (uint32_t)0x01 << (NVIC_InitStruct->NVIC_IRQChannel & (uint8_t)0x1F);
  }
  else
  {
    /* Disable the Selected IRQ Channels -------------------------------------*/
    NVIC->ICER[NVIC_InitStruct->NVIC_IRQChannel >> 0x05] =
 8000894:	3120      	adds	r1, #32
 8000896:	4a04      	ldr	r2, [pc, #16]	; (80008a8 <NVIC_Init+0x70>)
 8000898:	f842 3021 	str.w	r3, [r2, r1, lsl #2]
C:\Users\Filip\Eclipse\Template\Debug/../STM32F4xx_StdPeriph_Driver/src/misc.c:163
      (uint32_t)0x01 << (NVIC_InitStruct->NVIC_IRQChannel & (uint8_t)0x1F);
  }
}
 800089c:	f85d 4b04 	ldr.w	r4, [sp], #4
 80008a0:	4770      	bx	lr
 80008a2:	bf00      	nop
 80008a4:	e000ed00 	.word	0xe000ed00
 80008a8:	e000e100 	.word	0xe000e100

080008ac <NVIC_SetVectorTable>:
NVIC_SetVectorTable():
C:\Users\Filip\Eclipse\Template\Debug/../STM32F4xx_StdPeriph_Driver/src/misc.c:180
{ 
  /* Check the parameters */
  assert_param(IS_NVIC_VECTTAB(NVIC_VectTab));
  assert_param(IS_NVIC_OFFSET(Offset));  
   
  SCB->VTOR = NVIC_VectTab | (Offset & (uint32_t)0x1FFFFF80);
 80008ac:	f021 4160 	bic.w	r1, r1, #3758096384	; 0xe0000000
 80008b0:	f021 017f 	bic.w	r1, r1, #127	; 0x7f
 80008b4:	4308      	orrs	r0, r1
 80008b6:	4b01      	ldr	r3, [pc, #4]	; (80008bc <NVIC_SetVectorTable+0x10>)
 80008b8:	6098      	str	r0, [r3, #8]
 80008ba:	4770      	bx	lr
 80008bc:	e000ed00 	.word	0xe000ed00

080008c0 <NVIC_SystemLPConfig>:
NVIC_SystemLPConfig():
C:\Users\Filip\Eclipse\Template\Debug/../STM32F4xx_StdPeriph_Driver/src/misc.c:199
{
  /* Check the parameters */
  assert_param(IS_NVIC_LP(LowPowerMode));
  assert_param(IS_FUNCTIONAL_STATE(NewState));  
  
  if (NewState != DISABLE)
 80008c0:	b121      	cbz	r1, 80008cc <NVIC_SystemLPConfig+0xc>
C:\Users\Filip\Eclipse\Template\Debug/../STM32F4xx_StdPeriph_Driver/src/misc.c:201
  {
    SCB->SCR |= LowPowerMode;
 80008c2:	4b05      	ldr	r3, [pc, #20]	; (80008d8 <NVIC_SystemLPConfig+0x18>)
 80008c4:	691a      	ldr	r2, [r3, #16]
 80008c6:	4310      	orrs	r0, r2
 80008c8:	6118      	str	r0, [r3, #16]
 80008ca:	4770      	bx	lr
C:\Users\Filip\Eclipse\Template\Debug/../STM32F4xx_StdPeriph_Driver/src/misc.c:205
  }
  else
  {
    SCB->SCR &= (uint32_t)(~(uint32_t)LowPowerMode);
 80008cc:	4b02      	ldr	r3, [pc, #8]	; (80008d8 <NVIC_SystemLPConfig+0x18>)
 80008ce:	691a      	ldr	r2, [r3, #16]
 80008d0:	ea22 0000 	bic.w	r0, r2, r0
 80008d4:	6118      	str	r0, [r3, #16]
 80008d6:	4770      	bx	lr
 80008d8:	e000ed00 	.word	0xe000ed00

080008dc <SysTick_CLKSourceConfig>:
SysTick_CLKSourceConfig():
C:\Users\Filip\Eclipse\Template\Debug/../STM32F4xx_StdPeriph_Driver/src/misc.c:221
  */
void SysTick_CLKSourceConfig(uint32_t SysTick_CLKSource)
{
  /* Check the parameters */
  assert_param(IS_SYSTICK_CLK_SOURCE(SysTick_CLKSource));
  if (SysTick_CLKSource == SysTick_CLKSource_HCLK)
 80008dc:	2804      	cmp	r0, #4
C:\Users\Filip\Eclipse\Template\Debug/../STM32F4xx_StdPeriph_Driver/src/misc.c:223
  {
    SysTick->CTRL |= SysTick_CLKSource_HCLK;
 80008de:	4b04      	ldr	r3, [pc, #16]	; (80008f0 <SysTick_CLKSourceConfig+0x14>)
 80008e0:	681a      	ldr	r2, [r3, #0]
 80008e2:	bf0c      	ite	eq
 80008e4:	f042 0204 	orreq.w	r2, r2, #4
C:\Users\Filip\Eclipse\Template\Debug/../STM32F4xx_StdPeriph_Driver/src/misc.c:227
  }
  else
  {
    SysTick->CTRL &= SysTick_CLKSource_HCLK_Div8;
 80008e8:	f022 0204 	bicne.w	r2, r2, #4
 80008ec:	601a      	str	r2, [r3, #0]
 80008ee:	4770      	bx	lr
 80008f0:	e000e010 	.word	0xe000e010

080008f4 <EXTI_DeInit>:
EXTI_DeInit():
C:\Users\Filip\Eclipse\Template\Debug/../STM32F4xx_StdPeriph_Driver/src/stm32f4xx_exti.c:105
  * @param  None
  * @retval None
  */
void EXTI_DeInit(void)
{
  EXTI->IMR = 0x00000000;
 80008f4:	4b04      	ldr	r3, [pc, #16]	; (8000908 <EXTI_DeInit+0x14>)
 80008f6:	2200      	movs	r2, #0
 80008f8:	601a      	str	r2, [r3, #0]
C:\Users\Filip\Eclipse\Template\Debug/../STM32F4xx_StdPeriph_Driver/src/stm32f4xx_exti.c:106
  EXTI->EMR = 0x00000000;
 80008fa:	605a      	str	r2, [r3, #4]
C:\Users\Filip\Eclipse\Template\Debug/../STM32F4xx_StdPeriph_Driver/src/stm32f4xx_exti.c:107
  EXTI->RTSR = 0x00000000;
 80008fc:	609a      	str	r2, [r3, #8]
C:\Users\Filip\Eclipse\Template\Debug/../STM32F4xx_StdPeriph_Driver/src/stm32f4xx_exti.c:108
  EXTI->FTSR = 0x00000000;
 80008fe:	60da      	str	r2, [r3, #12]
C:\Users\Filip\Eclipse\Template\Debug/../STM32F4xx_StdPeriph_Driver/src/stm32f4xx_exti.c:109
  EXTI->PR = 0x007FFFFF;
 8000900:	4a02      	ldr	r2, [pc, #8]	; (800090c <EXTI_DeInit+0x18>)
 8000902:	615a      	str	r2, [r3, #20]
 8000904:	4770      	bx	lr
 8000906:	bf00      	nop
 8000908:	40013c00 	.word	0x40013c00
 800090c:	007fffff 	.word	0x007fffff

08000910 <EXTI_Init>:
EXTI_Init():
C:\Users\Filip\Eclipse\Template\Debug/../STM32F4xx_StdPeriph_Driver/src/stm32f4xx_exti.c:120
  * @param  EXTI_InitStruct: pointer to a EXTI_InitTypeDef structure
  *         that contains the configuration information for the EXTI peripheral.
  * @retval None
  */
void EXTI_Init(EXTI_InitTypeDef* EXTI_InitStruct)
{
 8000910:	b410      	push	{r4}
C:\Users\Filip\Eclipse\Template\Debug/../STM32F4xx_StdPeriph_Driver/src/stm32f4xx_exti.c:131
  assert_param(IS_EXTI_LINE(EXTI_InitStruct->EXTI_Line));  
  assert_param(IS_FUNCTIONAL_STATE(EXTI_InitStruct->EXTI_LineCmd));

  tmp = (uint32_t)EXTI_BASE;
     
  if (EXTI_InitStruct->EXTI_LineCmd != DISABLE)
 8000912:	7983      	ldrb	r3, [r0, #6]
 8000914:	2b00      	cmp	r3, #0
 8000916:	d033      	beq.n	8000980 <EXTI_Init+0x70>
C:\Users\Filip\Eclipse\Template\Debug/../STM32F4xx_StdPeriph_Driver/src/stm32f4xx_exti.c:134
  {
    /* Clear EXTI line configuration */
    EXTI->IMR &= ~EXTI_InitStruct->EXTI_Line;
 8000918:	4b20      	ldr	r3, [pc, #128]	; (800099c <EXTI_Init+0x8c>)
 800091a:	6819      	ldr	r1, [r3, #0]
 800091c:	6802      	ldr	r2, [r0, #0]
 800091e:	ea21 0202 	bic.w	r2, r1, r2
 8000922:	601a      	str	r2, [r3, #0]
C:\Users\Filip\Eclipse\Template\Debug/../STM32F4xx_StdPeriph_Driver/src/stm32f4xx_exti.c:135
    EXTI->EMR &= ~EXTI_InitStruct->EXTI_Line;
 8000924:	6859      	ldr	r1, [r3, #4]
 8000926:	6802      	ldr	r2, [r0, #0]
 8000928:	ea21 0202 	bic.w	r2, r1, r2
 800092c:	605a      	str	r2, [r3, #4]
C:\Users\Filip\Eclipse\Template\Debug/../STM32F4xx_StdPeriph_Driver/src/stm32f4xx_exti.c:137
    
    tmp += EXTI_InitStruct->EXTI_Mode;
 800092e:	7902      	ldrb	r2, [r0, #4]
 8000930:	f102 4280 	add.w	r2, r2, #1073741824	; 0x40000000
 8000934:	f502 329e 	add.w	r2, r2, #80896	; 0x13c00
C:\Users\Filip\Eclipse\Template\Debug/../STM32F4xx_StdPeriph_Driver/src/stm32f4xx_exti.c:139

    *(__IO uint32_t *) tmp |= EXTI_InitStruct->EXTI_Line;
 8000938:	6814      	ldr	r4, [r2, #0]
 800093a:	6801      	ldr	r1, [r0, #0]
 800093c:	4321      	orrs	r1, r4
 800093e:	6011      	str	r1, [r2, #0]
C:\Users\Filip\Eclipse\Template\Debug/../STM32F4xx_StdPeriph_Driver/src/stm32f4xx_exti.c:142

    /* Clear Rising Falling edge configuration */
    EXTI->RTSR &= ~EXTI_InitStruct->EXTI_Line;
 8000940:	6899      	ldr	r1, [r3, #8]
 8000942:	6802      	ldr	r2, [r0, #0]
 8000944:	ea21 0202 	bic.w	r2, r1, r2
 8000948:	609a      	str	r2, [r3, #8]
C:\Users\Filip\Eclipse\Template\Debug/../STM32F4xx_StdPeriph_Driver/src/stm32f4xx_exti.c:143
    EXTI->FTSR &= ~EXTI_InitStruct->EXTI_Line;
 800094a:	68d9      	ldr	r1, [r3, #12]
 800094c:	6802      	ldr	r2, [r0, #0]
 800094e:	ea21 0202 	bic.w	r2, r1, r2
 8000952:	60da      	str	r2, [r3, #12]
C:\Users\Filip\Eclipse\Template\Debug/../STM32F4xx_StdPeriph_Driver/src/stm32f4xx_exti.c:146
    
    /* Select the trigger for the selected external interrupts */
    if (EXTI_InitStruct->EXTI_Trigger == EXTI_Trigger_Rising_Falling)
 8000954:	7943      	ldrb	r3, [r0, #5]
 8000956:	2b10      	cmp	r3, #16
 8000958:	d109      	bne.n	800096e <EXTI_Init+0x5e>
C:\Users\Filip\Eclipse\Template\Debug/../STM32F4xx_StdPeriph_Driver/src/stm32f4xx_exti.c:149
    {
      /* Rising Falling edge */
      EXTI->RTSR |= EXTI_InitStruct->EXTI_Line;
 800095a:	4b10      	ldr	r3, [pc, #64]	; (800099c <EXTI_Init+0x8c>)
 800095c:	6899      	ldr	r1, [r3, #8]
 800095e:	6802      	ldr	r2, [r0, #0]
 8000960:	430a      	orrs	r2, r1
 8000962:	609a      	str	r2, [r3, #8]
C:\Users\Filip\Eclipse\Template\Debug/../STM32F4xx_StdPeriph_Driver/src/stm32f4xx_exti.c:150
      EXTI->FTSR |= EXTI_InitStruct->EXTI_Line;
 8000964:	68d9      	ldr	r1, [r3, #12]
 8000966:	6802      	ldr	r2, [r0, #0]
 8000968:	430a      	orrs	r2, r1
 800096a:	60da      	str	r2, [r3, #12]
 800096c:	e012      	b.n	8000994 <EXTI_Init+0x84>
C:\Users\Filip\Eclipse\Template\Debug/../STM32F4xx_StdPeriph_Driver/src/stm32f4xx_exti.c:155
    }
    else
    {
      tmp = (uint32_t)EXTI_BASE;
      tmp += EXTI_InitStruct->EXTI_Trigger;
 800096e:	f103 4380 	add.w	r3, r3, #1073741824	; 0x40000000
 8000972:	f503 339e 	add.w	r3, r3, #80896	; 0x13c00
C:\Users\Filip\Eclipse\Template\Debug/../STM32F4xx_StdPeriph_Driver/src/stm32f4xx_exti.c:157

      *(__IO uint32_t *) tmp |= EXTI_InitStruct->EXTI_Line;
 8000976:	6819      	ldr	r1, [r3, #0]
 8000978:	6802      	ldr	r2, [r0, #0]
 800097a:	430a      	orrs	r2, r1
 800097c:	601a      	str	r2, [r3, #0]
 800097e:	e009      	b.n	8000994 <EXTI_Init+0x84>
C:\Users\Filip\Eclipse\Template\Debug/../STM32F4xx_StdPeriph_Driver/src/stm32f4xx_exti.c:162
    }
  }
  else
  {
    tmp += EXTI_InitStruct->EXTI_Mode;
 8000980:	7903      	ldrb	r3, [r0, #4]
 8000982:	f103 4380 	add.w	r3, r3, #1073741824	; 0x40000000
 8000986:	f503 339e 	add.w	r3, r3, #80896	; 0x13c00
C:\Users\Filip\Eclipse\Template\Debug/../STM32F4xx_StdPeriph_Driver/src/stm32f4xx_exti.c:165

    /* Disable the selected external lines */
    *(__IO uint32_t *) tmp &= ~EXTI_InitStruct->EXTI_Line;
 800098a:	681a      	ldr	r2, [r3, #0]
 800098c:	6801      	ldr	r1, [r0, #0]
 800098e:	ea22 0201 	bic.w	r2, r2, r1
 8000992:	601a      	str	r2, [r3, #0]
C:\Users\Filip\Eclipse\Template\Debug/../STM32F4xx_StdPeriph_Driver/src/stm32f4xx_exti.c:167
  }
}
 8000994:	f85d 4b04 	ldr.w	r4, [sp], #4
 8000998:	4770      	bx	lr
 800099a:	bf00      	nop
 800099c:	40013c00 	.word	0x40013c00

080009a0 <EXTI_StructInit>:
EXTI_StructInit():
C:\Users\Filip\Eclipse\Template\Debug/../STM32F4xx_StdPeriph_Driver/src/stm32f4xx_exti.c:177
  *         be initialized.
  * @retval None
  */
void EXTI_StructInit(EXTI_InitTypeDef* EXTI_InitStruct)
{
  EXTI_InitStruct->EXTI_Line = EXTI_LINENONE;
 80009a0:	2300      	movs	r3, #0
 80009a2:	6003      	str	r3, [r0, #0]
C:\Users\Filip\Eclipse\Template\Debug/../STM32F4xx_StdPeriph_Driver/src/stm32f4xx_exti.c:178
  EXTI_InitStruct->EXTI_Mode = EXTI_Mode_Interrupt;
 80009a4:	7103      	strb	r3, [r0, #4]
C:\Users\Filip\Eclipse\Template\Debug/../STM32F4xx_StdPeriph_Driver/src/stm32f4xx_exti.c:179
  EXTI_InitStruct->EXTI_Trigger = EXTI_Trigger_Falling;
 80009a6:	220c      	movs	r2, #12
 80009a8:	7142      	strb	r2, [r0, #5]
C:\Users\Filip\Eclipse\Template\Debug/../STM32F4xx_StdPeriph_Driver/src/stm32f4xx_exti.c:180
  EXTI_InitStruct->EXTI_LineCmd = DISABLE;
 80009aa:	7183      	strb	r3, [r0, #6]
 80009ac:	4770      	bx	lr
 80009ae:	bf00      	nop

080009b0 <EXTI_GenerateSWInterrupt>:
EXTI_GenerateSWInterrupt():
C:\Users\Filip\Eclipse\Template\Debug/../STM32F4xx_StdPeriph_Driver/src/stm32f4xx_exti.c:195
void EXTI_GenerateSWInterrupt(uint32_t EXTI_Line)
{
  /* Check the parameters */
  assert_param(IS_EXTI_LINE(EXTI_Line));
  
  EXTI->SWIER |= EXTI_Line;
 80009b0:	4b02      	ldr	r3, [pc, #8]	; (80009bc <EXTI_GenerateSWInterrupt+0xc>)
 80009b2:	691a      	ldr	r2, [r3, #16]
 80009b4:	4310      	orrs	r0, r2
 80009b6:	6118      	str	r0, [r3, #16]
 80009b8:	4770      	bx	lr
 80009ba:	bf00      	nop
 80009bc:	40013c00 	.word	0x40013c00

080009c0 <EXTI_GetFlagStatus>:
EXTI_GetFlagStatus():
C:\Users\Filip\Eclipse\Template\Debug/../STM32F4xx_StdPeriph_Driver/src/stm32f4xx_exti.c:226
{
  FlagStatus bitstatus = RESET;
  /* Check the parameters */
  assert_param(IS_GET_EXTI_LINE(EXTI_Line));
  
  if ((EXTI->PR & EXTI_Line) != (uint32_t)RESET)
 80009c0:	4b03      	ldr	r3, [pc, #12]	; (80009d0 <EXTI_GetFlagStatus+0x10>)
 80009c2:	695b      	ldr	r3, [r3, #20]
 80009c4:	4018      	ands	r0, r3
C:\Users\Filip\Eclipse\Template\Debug/../STM32F4xx_StdPeriph_Driver/src/stm32f4xx_exti.c:235
  else
  {
    bitstatus = RESET;
  }
  return bitstatus;
}
 80009c6:	3000      	adds	r0, #0
 80009c8:	bf18      	it	ne
 80009ca:	2001      	movne	r0, #1
 80009cc:	4770      	bx	lr
 80009ce:	bf00      	nop
 80009d0:	40013c00 	.word	0x40013c00

080009d4 <EXTI_ClearFlag>:
EXTI_ClearFlag():
C:\Users\Filip\Eclipse\Template\Debug/../STM32F4xx_StdPeriph_Driver/src/stm32f4xx_exti.c:248
void EXTI_ClearFlag(uint32_t EXTI_Line)
{
  /* Check the parameters */
  assert_param(IS_EXTI_LINE(EXTI_Line));
  
  EXTI->PR = EXTI_Line;
 80009d4:	4b01      	ldr	r3, [pc, #4]	; (80009dc <EXTI_ClearFlag+0x8>)
 80009d6:	6158      	str	r0, [r3, #20]
 80009d8:	4770      	bx	lr
 80009da:	bf00      	nop
 80009dc:	40013c00 	.word	0x40013c00

080009e0 <EXTI_GetITStatus>:
EXTI_GetITStatus():
C:\Users\Filip\Eclipse\Template\Debug/../STM32F4xx_StdPeriph_Driver/src/stm32f4xx_exti.c:264
  ITStatus bitstatus = RESET;
  uint32_t enablestatus = 0;
  /* Check the parameters */
  assert_param(IS_GET_EXTI_LINE(EXTI_Line));
  
  enablestatus =  EXTI->IMR & EXTI_Line;
 80009e0:	4b05      	ldr	r3, [pc, #20]	; (80009f8 <EXTI_GetITStatus+0x18>)
 80009e2:	681a      	ldr	r2, [r3, #0]
 80009e4:	4002      	ands	r2, r0
C:\Users\Filip\Eclipse\Template\Debug/../STM32F4xx_StdPeriph_Driver/src/stm32f4xx_exti.c:265
  if (((EXTI->PR & EXTI_Line) != (uint32_t)RESET) && (enablestatus != (uint32_t)RESET))
 80009e6:	695b      	ldr	r3, [r3, #20]
 80009e8:	4203      	tst	r3, r0
 80009ea:	d003      	beq.n	80009f4 <EXTI_GetITStatus+0x14>
C:\Users\Filip\Eclipse\Template\Debug/../STM32F4xx_StdPeriph_Driver/src/stm32f4xx_exti.c:271 (discriminator 1)
  {
    bitstatus = SET;
  }
  else
  {
    bitstatus = RESET;
 80009ec:	1c10      	adds	r0, r2, #0
 80009ee:	bf18      	it	ne
 80009f0:	2001      	movne	r0, #1
 80009f2:	4770      	bx	lr
C:\Users\Filip\Eclipse\Template\Debug/../STM32F4xx_StdPeriph_Driver/src/stm32f4xx_exti.c:271
 80009f4:	2000      	movs	r0, #0
C:\Users\Filip\Eclipse\Template\Debug/../STM32F4xx_StdPeriph_Driver/src/stm32f4xx_exti.c:274
  }
  return bitstatus;
}
 80009f6:	4770      	bx	lr
 80009f8:	40013c00 	.word	0x40013c00

080009fc <EXTI_ClearITPendingBit>:
EXTI_ClearITPendingBit():
C:\Users\Filip\Eclipse\Template\Debug/../STM32F4xx_StdPeriph_Driver/src/stm32f4xx_exti.c:287
void EXTI_ClearITPendingBit(uint32_t EXTI_Line)
{
  /* Check the parameters */
  assert_param(IS_EXTI_LINE(EXTI_Line));
  
  EXTI->PR = EXTI_Line;
 80009fc:	4b01      	ldr	r3, [pc, #4]	; (8000a04 <EXTI_ClearITPendingBit+0x8>)
 80009fe:	6158      	str	r0, [r3, #20]
 8000a00:	4770      	bx	lr
 8000a02:	bf00      	nop
 8000a04:	40013c00 	.word	0x40013c00

08000a08 <GPIO_DeInit>:
GPIO_DeInit():
C:\Users\Filip\Eclipse\Template\Debug/../STM32F4xx_StdPeriph_Driver/src/stm32f4xx_gpio.c:121
  * @note   By default, The GPIO pins are configured in input floating mode (except JTAG pins).
  * @param  GPIOx: where x can be (A..I) to select the GPIO peripheral.
  * @retval None
  */
void GPIO_DeInit(GPIO_TypeDef* GPIOx)
{
 8000a08:	b508      	push	{r3, lr}
C:\Users\Filip\Eclipse\Template\Debug/../STM32F4xx_StdPeriph_Driver/src/stm32f4xx_gpio.c:125
  /* Check the parameters */
  assert_param(IS_GPIO_ALL_PERIPH(GPIOx));

  if (GPIOx == GPIOA)
 8000a0a:	4b37      	ldr	r3, [pc, #220]	; (8000ae8 <GPIO_DeInit+0xe0>)
 8000a0c:	4298      	cmp	r0, r3
 8000a0e:	d108      	bne.n	8000a22 <GPIO_DeInit+0x1a>
C:\Users\Filip\Eclipse\Template\Debug/../STM32F4xx_StdPeriph_Driver/src/stm32f4xx_gpio.c:127
  {
    RCC_AHB1PeriphResetCmd(RCC_AHB1Periph_GPIOA, ENABLE);
 8000a10:	2001      	movs	r0, #1
 8000a12:	4601      	mov	r1, r0
 8000a14:	f000 fa9a 	bl	8000f4c <RCC_AHB1PeriphResetCmd>
C:\Users\Filip\Eclipse\Template\Debug/../STM32F4xx_StdPeriph_Driver/src/stm32f4xx_gpio.c:128
    RCC_AHB1PeriphResetCmd(RCC_AHB1Periph_GPIOA, DISABLE);
 8000a18:	2001      	movs	r0, #1
 8000a1a:	2100      	movs	r1, #0
 8000a1c:	f000 fa96 	bl	8000f4c <RCC_AHB1PeriphResetCmd>
 8000a20:	bd08      	pop	{r3, pc}
C:\Users\Filip\Eclipse\Template\Debug/../STM32F4xx_StdPeriph_Driver/src/stm32f4xx_gpio.c:130
  }
  else if (GPIOx == GPIOB)
 8000a22:	4b32      	ldr	r3, [pc, #200]	; (8000aec <GPIO_DeInit+0xe4>)
 8000a24:	4298      	cmp	r0, r3
 8000a26:	d108      	bne.n	8000a3a <GPIO_DeInit+0x32>
C:\Users\Filip\Eclipse\Template\Debug/../STM32F4xx_StdPeriph_Driver/src/stm32f4xx_gpio.c:132
  {
    RCC_AHB1PeriphResetCmd(RCC_AHB1Periph_GPIOB, ENABLE);
 8000a28:	2002      	movs	r0, #2
 8000a2a:	2101      	movs	r1, #1
 8000a2c:	f000 fa8e 	bl	8000f4c <RCC_AHB1PeriphResetCmd>
C:\Users\Filip\Eclipse\Template\Debug/../STM32F4xx_StdPeriph_Driver/src/stm32f4xx_gpio.c:133
    RCC_AHB1PeriphResetCmd(RCC_AHB1Periph_GPIOB, DISABLE);
 8000a30:	2002      	movs	r0, #2
 8000a32:	2100      	movs	r1, #0
 8000a34:	f000 fa8a 	bl	8000f4c <RCC_AHB1PeriphResetCmd>
 8000a38:	bd08      	pop	{r3, pc}
C:\Users\Filip\Eclipse\Template\Debug/../STM32F4xx_StdPeriph_Driver/src/stm32f4xx_gpio.c:135
  }
  else if (GPIOx == GPIOC)
 8000a3a:	4b2d      	ldr	r3, [pc, #180]	; (8000af0 <GPIO_DeInit+0xe8>)
 8000a3c:	4298      	cmp	r0, r3
 8000a3e:	d108      	bne.n	8000a52 <GPIO_DeInit+0x4a>
C:\Users\Filip\Eclipse\Template\Debug/../STM32F4xx_StdPeriph_Driver/src/stm32f4xx_gpio.c:137
  {
    RCC_AHB1PeriphResetCmd(RCC_AHB1Periph_GPIOC, ENABLE);
 8000a40:	2004      	movs	r0, #4
 8000a42:	2101      	movs	r1, #1
 8000a44:	f000 fa82 	bl	8000f4c <RCC_AHB1PeriphResetCmd>
C:\Users\Filip\Eclipse\Template\Debug/../STM32F4xx_StdPeriph_Driver/src/stm32f4xx_gpio.c:138
    RCC_AHB1PeriphResetCmd(RCC_AHB1Periph_GPIOC, DISABLE);
 8000a48:	2004      	movs	r0, #4
 8000a4a:	2100      	movs	r1, #0
 8000a4c:	f000 fa7e 	bl	8000f4c <RCC_AHB1PeriphResetCmd>
 8000a50:	bd08      	pop	{r3, pc}
C:\Users\Filip\Eclipse\Template\Debug/../STM32F4xx_StdPeriph_Driver/src/stm32f4xx_gpio.c:140
  }
  else if (GPIOx == GPIOD)
 8000a52:	4b28      	ldr	r3, [pc, #160]	; (8000af4 <GPIO_DeInit+0xec>)
 8000a54:	4298      	cmp	r0, r3
 8000a56:	d108      	bne.n	8000a6a <GPIO_DeInit+0x62>
C:\Users\Filip\Eclipse\Template\Debug/../STM32F4xx_StdPeriph_Driver/src/stm32f4xx_gpio.c:142
  {
    RCC_AHB1PeriphResetCmd(RCC_AHB1Periph_GPIOD, ENABLE);
 8000a58:	2008      	movs	r0, #8
 8000a5a:	2101      	movs	r1, #1
 8000a5c:	f000 fa76 	bl	8000f4c <RCC_AHB1PeriphResetCmd>
C:\Users\Filip\Eclipse\Template\Debug/../STM32F4xx_StdPeriph_Driver/src/stm32f4xx_gpio.c:143
    RCC_AHB1PeriphResetCmd(RCC_AHB1Periph_GPIOD, DISABLE);
 8000a60:	2008      	movs	r0, #8
 8000a62:	2100      	movs	r1, #0
 8000a64:	f000 fa72 	bl	8000f4c <RCC_AHB1PeriphResetCmd>
 8000a68:	bd08      	pop	{r3, pc}
C:\Users\Filip\Eclipse\Template\Debug/../STM32F4xx_StdPeriph_Driver/src/stm32f4xx_gpio.c:145
  }
  else if (GPIOx == GPIOE)
 8000a6a:	4b23      	ldr	r3, [pc, #140]	; (8000af8 <GPIO_DeInit+0xf0>)
 8000a6c:	4298      	cmp	r0, r3
 8000a6e:	d108      	bne.n	8000a82 <GPIO_DeInit+0x7a>
C:\Users\Filip\Eclipse\Template\Debug/../STM32F4xx_StdPeriph_Driver/src/stm32f4xx_gpio.c:147
  {
    RCC_AHB1PeriphResetCmd(RCC_AHB1Periph_GPIOE, ENABLE);
 8000a70:	2010      	movs	r0, #16
 8000a72:	2101      	movs	r1, #1
 8000a74:	f000 fa6a 	bl	8000f4c <RCC_AHB1PeriphResetCmd>
C:\Users\Filip\Eclipse\Template\Debug/../STM32F4xx_StdPeriph_Driver/src/stm32f4xx_gpio.c:148
    RCC_AHB1PeriphResetCmd(RCC_AHB1Periph_GPIOE, DISABLE);
 8000a78:	2010      	movs	r0, #16
 8000a7a:	2100      	movs	r1, #0
 8000a7c:	f000 fa66 	bl	8000f4c <RCC_AHB1PeriphResetCmd>
 8000a80:	bd08      	pop	{r3, pc}
C:\Users\Filip\Eclipse\Template\Debug/../STM32F4xx_StdPeriph_Driver/src/stm32f4xx_gpio.c:150
  }
  else if (GPIOx == GPIOF)
 8000a82:	4b1e      	ldr	r3, [pc, #120]	; (8000afc <GPIO_DeInit+0xf4>)
 8000a84:	4298      	cmp	r0, r3
 8000a86:	d108      	bne.n	8000a9a <GPIO_DeInit+0x92>
C:\Users\Filip\Eclipse\Template\Debug/../STM32F4xx_StdPeriph_Driver/src/stm32f4xx_gpio.c:152
  {
    RCC_AHB1PeriphResetCmd(RCC_AHB1Periph_GPIOF, ENABLE);
 8000a88:	2020      	movs	r0, #32
 8000a8a:	2101      	movs	r1, #1
 8000a8c:	f000 fa5e 	bl	8000f4c <RCC_AHB1PeriphResetCmd>
C:\Users\Filip\Eclipse\Template\Debug/../STM32F4xx_StdPeriph_Driver/src/stm32f4xx_gpio.c:153
    RCC_AHB1PeriphResetCmd(RCC_AHB1Periph_GPIOF, DISABLE);
 8000a90:	2020      	movs	r0, #32
 8000a92:	2100      	movs	r1, #0
 8000a94:	f000 fa5a 	bl	8000f4c <RCC_AHB1PeriphResetCmd>
 8000a98:	bd08      	pop	{r3, pc}
C:\Users\Filip\Eclipse\Template\Debug/../STM32F4xx_StdPeriph_Driver/src/stm32f4xx_gpio.c:155
  }
  else if (GPIOx == GPIOG)
 8000a9a:	4b19      	ldr	r3, [pc, #100]	; (8000b00 <GPIO_DeInit+0xf8>)
 8000a9c:	4298      	cmp	r0, r3
 8000a9e:	d108      	bne.n	8000ab2 <GPIO_DeInit+0xaa>
C:\Users\Filip\Eclipse\Template\Debug/../STM32F4xx_StdPeriph_Driver/src/stm32f4xx_gpio.c:157
  {
    RCC_AHB1PeriphResetCmd(RCC_AHB1Periph_GPIOG, ENABLE);
 8000aa0:	2040      	movs	r0, #64	; 0x40
 8000aa2:	2101      	movs	r1, #1
 8000aa4:	f000 fa52 	bl	8000f4c <RCC_AHB1PeriphResetCmd>
C:\Users\Filip\Eclipse\Template\Debug/../STM32F4xx_StdPeriph_Driver/src/stm32f4xx_gpio.c:158
    RCC_AHB1PeriphResetCmd(RCC_AHB1Periph_GPIOG, DISABLE);
 8000aa8:	2040      	movs	r0, #64	; 0x40
 8000aaa:	2100      	movs	r1, #0
 8000aac:	f000 fa4e 	bl	8000f4c <RCC_AHB1PeriphResetCmd>
 8000ab0:	bd08      	pop	{r3, pc}
C:\Users\Filip\Eclipse\Template\Debug/../STM32F4xx_StdPeriph_Driver/src/stm32f4xx_gpio.c:160
  }
  else if (GPIOx == GPIOH)
 8000ab2:	4b14      	ldr	r3, [pc, #80]	; (8000b04 <GPIO_DeInit+0xfc>)
 8000ab4:	4298      	cmp	r0, r3
 8000ab6:	d108      	bne.n	8000aca <GPIO_DeInit+0xc2>
C:\Users\Filip\Eclipse\Template\Debug/../STM32F4xx_StdPeriph_Driver/src/stm32f4xx_gpio.c:162
  {
    RCC_AHB1PeriphResetCmd(RCC_AHB1Periph_GPIOH, ENABLE);
 8000ab8:	2080      	movs	r0, #128	; 0x80
 8000aba:	2101      	movs	r1, #1
 8000abc:	f000 fa46 	bl	8000f4c <RCC_AHB1PeriphResetCmd>
C:\Users\Filip\Eclipse\Template\Debug/../STM32F4xx_StdPeriph_Driver/src/stm32f4xx_gpio.c:163
    RCC_AHB1PeriphResetCmd(RCC_AHB1Periph_GPIOH, DISABLE);
 8000ac0:	2080      	movs	r0, #128	; 0x80
 8000ac2:	2100      	movs	r1, #0
 8000ac4:	f000 fa42 	bl	8000f4c <RCC_AHB1PeriphResetCmd>
 8000ac8:	bd08      	pop	{r3, pc}
C:\Users\Filip\Eclipse\Template\Debug/../STM32F4xx_StdPeriph_Driver/src/stm32f4xx_gpio.c:167
  }
  else
  {
    if (GPIOx == GPIOI)
 8000aca:	4b0f      	ldr	r3, [pc, #60]	; (8000b08 <GPIO_DeInit+0x100>)
 8000acc:	4298      	cmp	r0, r3
 8000ace:	d109      	bne.n	8000ae4 <GPIO_DeInit+0xdc>
C:\Users\Filip\Eclipse\Template\Debug/../STM32F4xx_StdPeriph_Driver/src/stm32f4xx_gpio.c:169
    {
      RCC_AHB1PeriphResetCmd(RCC_AHB1Periph_GPIOI, ENABLE);
 8000ad0:	f44f 7080 	mov.w	r0, #256	; 0x100
 8000ad4:	2101      	movs	r1, #1
 8000ad6:	f000 fa39 	bl	8000f4c <RCC_AHB1PeriphResetCmd>
C:\Users\Filip\Eclipse\Template\Debug/../STM32F4xx_StdPeriph_Driver/src/stm32f4xx_gpio.c:170
      RCC_AHB1PeriphResetCmd(RCC_AHB1Periph_GPIOI, DISABLE);
 8000ada:	f44f 7080 	mov.w	r0, #256	; 0x100
 8000ade:	2100      	movs	r1, #0
 8000ae0:	f000 fa34 	bl	8000f4c <RCC_AHB1PeriphResetCmd>
 8000ae4:	bd08      	pop	{r3, pc}
 8000ae6:	bf00      	nop
 8000ae8:	40020000 	.word	0x40020000
 8000aec:	40020400 	.word	0x40020400
 8000af0:	40020800 	.word	0x40020800
 8000af4:	40020c00 	.word	0x40020c00
 8000af8:	40021000 	.word	0x40021000
 8000afc:	40021400 	.word	0x40021400
 8000b00:	40021800 	.word	0x40021800
 8000b04:	40021c00 	.word	0x40021c00
 8000b08:	40022000 	.word	0x40022000

08000b0c <GPIO_Init>:
GPIO_Init():
C:\Users\Filip\Eclipse\Template\Debug/../STM32F4xx_StdPeriph_Driver/src/stm32f4xx_gpio.c:183
  * @param  GPIO_InitStruct: pointer to a GPIO_InitTypeDef structure that contains
  *         the configuration information for the specified GPIO peripheral.
  * @retval None
  */
void GPIO_Init(GPIO_TypeDef* GPIOx, GPIO_InitTypeDef* GPIO_InitStruct)
{
 8000b0c:	b4f0      	push	{r4, r5, r6, r7}
C:\Users\Filip\Eclipse\Template\Debug/../STM32F4xx_StdPeriph_Driver/src/stm32f4xx_gpio.c:194
  assert_param(IS_GPIO_MODE(GPIO_InitStruct->GPIO_Mode));
  assert_param(IS_GPIO_PUPD(GPIO_InitStruct->GPIO_PuPd));

  /* -------------------------Configure the port pins---------------- */
  /*-- GPIO Mode Configuration --*/
  for (pinpos = 0x00; pinpos < 0x10; pinpos++)
 8000b0e:	2300      	movs	r3, #0
C:\Users\Filip\Eclipse\Template\Debug/../STM32F4xx_StdPeriph_Driver/src/stm32f4xx_gpio.c:196
  {
    pos = ((uint32_t)0x01) << pinpos;
 8000b10:	2501      	movs	r5, #1
C:\Users\Filip\Eclipse\Template\Debug/../STM32F4xx_StdPeriph_Driver/src/stm32f4xx_gpio.c:202
    /* Get the port pins position */
    currentpin = (GPIO_InitStruct->GPIO_Pin) & pos;

    if (currentpin == pos)
    {
      GPIOx->MODER  &= ~(GPIO_MODER_MODER0 << (pinpos * 2));
 8000b12:	2603      	movs	r6, #3
C:\Users\Filip\Eclipse\Template\Debug/../STM32F4xx_StdPeriph_Driver/src/stm32f4xx_gpio.c:194
  assert_param(IS_GPIO_MODE(GPIO_InitStruct->GPIO_Mode));
  assert_param(IS_GPIO_PUPD(GPIO_InitStruct->GPIO_PuPd));

  /* -------------------------Configure the port pins---------------- */
  /*-- GPIO Mode Configuration --*/
  for (pinpos = 0x00; pinpos < 0x10; pinpos++)
 8000b14:	e03e      	b.n	8000b94 <GPIO_Init+0x88>
C:\Users\Filip\Eclipse\Template\Debug/../STM32F4xx_StdPeriph_Driver/src/stm32f4xx_gpio.c:196
  {
    pos = ((uint32_t)0x01) << pinpos;
 8000b16:	fa05 f203 	lsl.w	r2, r5, r3
C:\Users\Filip\Eclipse\Template\Debug/../STM32F4xx_StdPeriph_Driver/src/stm32f4xx_gpio.c:198
    /* Get the port pins position */
    currentpin = (GPIO_InitStruct->GPIO_Pin) & pos;
 8000b1a:	680c      	ldr	r4, [r1, #0]
 8000b1c:	4014      	ands	r4, r2
C:\Users\Filip\Eclipse\Template\Debug/../STM32F4xx_StdPeriph_Driver/src/stm32f4xx_gpio.c:200

    if (currentpin == pos)
 8000b1e:	4294      	cmp	r4, r2
 8000b20:	d137      	bne.n	8000b92 <GPIO_Init+0x86>
C:\Users\Filip\Eclipse\Template\Debug/../STM32F4xx_StdPeriph_Driver/src/stm32f4xx_gpio.c:202
    {
      GPIOx->MODER  &= ~(GPIO_MODER_MODER0 << (pinpos * 2));
 8000b22:	6807      	ldr	r7, [r0, #0]
 8000b24:	005a      	lsls	r2, r3, #1
 8000b26:	fa06 f402 	lsl.w	r4, r6, r2
 8000b2a:	43e4      	mvns	r4, r4
 8000b2c:	4027      	ands	r7, r4
 8000b2e:	6007      	str	r7, [r0, #0]
C:\Users\Filip\Eclipse\Template\Debug/../STM32F4xx_StdPeriph_Driver/src/stm32f4xx_gpio.c:203
      GPIOx->MODER |= (((uint32_t)GPIO_InitStruct->GPIO_Mode) << (pinpos * 2));
 8000b30:	f8d0 c000 	ldr.w	ip, [r0]
 8000b34:	790f      	ldrb	r7, [r1, #4]
 8000b36:	4097      	lsls	r7, r2
 8000b38:	ea4c 0707 	orr.w	r7, ip, r7
 8000b3c:	6007      	str	r7, [r0, #0]
C:\Users\Filip\Eclipse\Template\Debug/../STM32F4xx_StdPeriph_Driver/src/stm32f4xx_gpio.c:205

      if ((GPIO_InitStruct->GPIO_Mode == GPIO_Mode_OUT) || (GPIO_InitStruct->GPIO_Mode == GPIO_Mode_AF))
 8000b3e:	790f      	ldrb	r7, [r1, #4]
 8000b40:	3f01      	subs	r7, #1
 8000b42:	b2ff      	uxtb	r7, r7
 8000b44:	2f01      	cmp	r7, #1
 8000b46:	d816      	bhi.n	8000b76 <GPIO_Init+0x6a>
C:\Users\Filip\Eclipse\Template\Debug/../STM32F4xx_StdPeriph_Driver/src/stm32f4xx_gpio.c:211
      {
        /* Check Speed mode parameters */
        assert_param(IS_GPIO_SPEED(GPIO_InitStruct->GPIO_Speed));

        /* Speed mode configuration */
        GPIOx->OSPEEDR &= ~(GPIO_OSPEEDER_OSPEEDR0 << (pinpos * 2));
 8000b48:	6887      	ldr	r7, [r0, #8]
 8000b4a:	403c      	ands	r4, r7
 8000b4c:	6084      	str	r4, [r0, #8]
C:\Users\Filip\Eclipse\Template\Debug/../STM32F4xx_StdPeriph_Driver/src/stm32f4xx_gpio.c:212
        GPIOx->OSPEEDR |= ((uint32_t)(GPIO_InitStruct->GPIO_Speed) << (pinpos * 2));
 8000b4e:	6887      	ldr	r7, [r0, #8]
 8000b50:	794c      	ldrb	r4, [r1, #5]
 8000b52:	4094      	lsls	r4, r2
 8000b54:	433c      	orrs	r4, r7
 8000b56:	6084      	str	r4, [r0, #8]
C:\Users\Filip\Eclipse\Template\Debug/../STM32F4xx_StdPeriph_Driver/src/stm32f4xx_gpio.c:218

        /* Check Output mode parameters */
        assert_param(IS_GPIO_OTYPE(GPIO_InitStruct->GPIO_OType));

        /* Output mode configuration*/
        GPIOx->OTYPER  &= ~((GPIO_OTYPER_OT_0) << ((uint16_t)pinpos)) ;
 8000b58:	6847      	ldr	r7, [r0, #4]
 8000b5a:	b29c      	uxth	r4, r3
 8000b5c:	fa05 fc04 	lsl.w	ip, r5, r4
 8000b60:	ea27 070c 	bic.w	r7, r7, ip
 8000b64:	6047      	str	r7, [r0, #4]
C:\Users\Filip\Eclipse\Template\Debug/../STM32F4xx_StdPeriph_Driver/src/stm32f4xx_gpio.c:219
        GPIOx->OTYPER |= (uint16_t)(((uint16_t)GPIO_InitStruct->GPIO_OType) << ((uint16_t)pinpos));
 8000b66:	6847      	ldr	r7, [r0, #4]
 8000b68:	f891 c006 	ldrb.w	ip, [r1, #6]
 8000b6c:	fa0c f404 	lsl.w	r4, ip, r4
 8000b70:	b2a4      	uxth	r4, r4
 8000b72:	433c      	orrs	r4, r7
 8000b74:	6044      	str	r4, [r0, #4]
C:\Users\Filip\Eclipse\Template\Debug/../STM32F4xx_StdPeriph_Driver/src/stm32f4xx_gpio.c:223
      }

      /* Pull-up Pull down resistor configuration*/
      GPIOx->PUPDR &= ~(GPIO_PUPDR_PUPDR0 << ((uint16_t)pinpos * 2));
 8000b76:	68c7      	ldr	r7, [r0, #12]
 8000b78:	b29c      	uxth	r4, r3
 8000b7a:	0064      	lsls	r4, r4, #1
 8000b7c:	fa06 f404 	lsl.w	r4, r6, r4
 8000b80:	ea27 0404 	bic.w	r4, r7, r4
 8000b84:	60c4      	str	r4, [r0, #12]
C:\Users\Filip\Eclipse\Template\Debug/../STM32F4xx_StdPeriph_Driver/src/stm32f4xx_gpio.c:224
      GPIOx->PUPDR |= (((uint32_t)GPIO_InitStruct->GPIO_PuPd) << (pinpos * 2));
 8000b86:	68c4      	ldr	r4, [r0, #12]
 8000b88:	79cf      	ldrb	r7, [r1, #7]
 8000b8a:	fa07 f202 	lsl.w	r2, r7, r2
 8000b8e:	4322      	orrs	r2, r4
 8000b90:	60c2      	str	r2, [r0, #12]
C:\Users\Filip\Eclipse\Template\Debug/../STM32F4xx_StdPeriph_Driver/src/stm32f4xx_gpio.c:194
  assert_param(IS_GPIO_MODE(GPIO_InitStruct->GPIO_Mode));
  assert_param(IS_GPIO_PUPD(GPIO_InitStruct->GPIO_PuPd));

  /* -------------------------Configure the port pins---------------- */
  /*-- GPIO Mode Configuration --*/
  for (pinpos = 0x00; pinpos < 0x10; pinpos++)
 8000b92:	3301      	adds	r3, #1
C:\Users\Filip\Eclipse\Template\Debug/../STM32F4xx_StdPeriph_Driver/src/stm32f4xx_gpio.c:194 (discriminator 1)
 8000b94:	2b0f      	cmp	r3, #15
 8000b96:	d9be      	bls.n	8000b16 <GPIO_Init+0xa>
C:\Users\Filip\Eclipse\Template\Debug/../STM32F4xx_StdPeriph_Driver/src/stm32f4xx_gpio.c:227
      /* Pull-up Pull down resistor configuration*/
      GPIOx->PUPDR &= ~(GPIO_PUPDR_PUPDR0 << ((uint16_t)pinpos * 2));
      GPIOx->PUPDR |= (((uint32_t)GPIO_InitStruct->GPIO_PuPd) << (pinpos * 2));
    }
  }
}
 8000b98:	bcf0      	pop	{r4, r5, r6, r7}
 8000b9a:	4770      	bx	lr

08000b9c <GPIO_StructInit>:
GPIO_StructInit():
C:\Users\Filip\Eclipse\Template\Debug/../STM32F4xx_StdPeriph_Driver/src/stm32f4xx_gpio.c:237
  * @retval None
  */
void GPIO_StructInit(GPIO_InitTypeDef* GPIO_InitStruct)
{
  /* Reset GPIO init structure parameters values */
  GPIO_InitStruct->GPIO_Pin  = GPIO_Pin_All;
 8000b9c:	f64f 73ff 	movw	r3, #65535	; 0xffff
 8000ba0:	6003      	str	r3, [r0, #0]
C:\Users\Filip\Eclipse\Template\Debug/../STM32F4xx_StdPeriph_Driver/src/stm32f4xx_gpio.c:238
  GPIO_InitStruct->GPIO_Mode = GPIO_Mode_IN;
 8000ba2:	2300      	movs	r3, #0
 8000ba4:	7103      	strb	r3, [r0, #4]
C:\Users\Filip\Eclipse\Template\Debug/../STM32F4xx_StdPeriph_Driver/src/stm32f4xx_gpio.c:239
  GPIO_InitStruct->GPIO_Speed = GPIO_Speed_2MHz;
 8000ba6:	7143      	strb	r3, [r0, #5]
C:\Users\Filip\Eclipse\Template\Debug/../STM32F4xx_StdPeriph_Driver/src/stm32f4xx_gpio.c:240
  GPIO_InitStruct->GPIO_OType = GPIO_OType_PP;
 8000ba8:	7183      	strb	r3, [r0, #6]
C:\Users\Filip\Eclipse\Template\Debug/../STM32F4xx_StdPeriph_Driver/src/stm32f4xx_gpio.c:241
  GPIO_InitStruct->GPIO_PuPd = GPIO_PuPd_NOPULL;
 8000baa:	71c3      	strb	r3, [r0, #7]
 8000bac:	4770      	bx	lr
 8000bae:	bf00      	nop

08000bb0 <GPIO_PinLockConfig>:
GPIO_PinLockConfig():
C:\Users\Filip\Eclipse\Template\Debug/../STM32F4xx_StdPeriph_Driver/src/stm32f4xx_gpio.c:256
  * @param  GPIO_Pin: specifies the port bit to be locked.
  *          This parameter can be any combination of GPIO_Pin_x where x can be (0..15).
  * @retval None
  */
void GPIO_PinLockConfig(GPIO_TypeDef* GPIOx, uint16_t GPIO_Pin)
{
 8000bb0:	b082      	sub	sp, #8
C:\Users\Filip\Eclipse\Template\Debug/../STM32F4xx_StdPeriph_Driver/src/stm32f4xx_gpio.c:257
  __IO uint32_t tmp = 0x00010000;
 8000bb2:	f44f 3380 	mov.w	r3, #65536	; 0x10000
 8000bb6:	9301      	str	r3, [sp, #4]
C:\Users\Filip\Eclipse\Template\Debug/../STM32F4xx_StdPeriph_Driver/src/stm32f4xx_gpio.c:263

  /* Check the parameters */
  assert_param(IS_GPIO_ALL_PERIPH(GPIOx));
  assert_param(IS_GPIO_PIN(GPIO_Pin));

  tmp |= GPIO_Pin;
 8000bb8:	9b01      	ldr	r3, [sp, #4]
 8000bba:	430b      	orrs	r3, r1
 8000bbc:	9301      	str	r3, [sp, #4]
C:\Users\Filip\Eclipse\Template\Debug/../STM32F4xx_StdPeriph_Driver/src/stm32f4xx_gpio.c:265
  /* Set LCKK bit */
  GPIOx->LCKR = tmp;
 8000bbe:	9b01      	ldr	r3, [sp, #4]
 8000bc0:	61c3      	str	r3, [r0, #28]
C:\Users\Filip\Eclipse\Template\Debug/../STM32F4xx_StdPeriph_Driver/src/stm32f4xx_gpio.c:267
  /* Reset LCKK bit */
  GPIOx->LCKR =  GPIO_Pin;
 8000bc2:	61c1      	str	r1, [r0, #28]
C:\Users\Filip\Eclipse\Template\Debug/../STM32F4xx_StdPeriph_Driver/src/stm32f4xx_gpio.c:269
  /* Set LCKK bit */
  GPIOx->LCKR = tmp;
 8000bc4:	9b01      	ldr	r3, [sp, #4]
 8000bc6:	61c3      	str	r3, [r0, #28]
C:\Users\Filip\Eclipse\Template\Debug/../STM32F4xx_StdPeriph_Driver/src/stm32f4xx_gpio.c:271
  /* Read LCKK bit*/
  tmp = GPIOx->LCKR;
 8000bc8:	69c3      	ldr	r3, [r0, #28]
 8000bca:	9301      	str	r3, [sp, #4]
C:\Users\Filip\Eclipse\Template\Debug/../STM32F4xx_StdPeriph_Driver/src/stm32f4xx_gpio.c:273
  /* Read LCKK bit*/
  tmp = GPIOx->LCKR;
 8000bcc:	69c3      	ldr	r3, [r0, #28]
 8000bce:	9301      	str	r3, [sp, #4]
C:\Users\Filip\Eclipse\Template\Debug/../STM32F4xx_StdPeriph_Driver/src/stm32f4xx_gpio.c:274
}
 8000bd0:	b002      	add	sp, #8
 8000bd2:	4770      	bx	lr

08000bd4 <GPIO_ReadInputDataBit>:
GPIO_ReadInputDataBit():
C:\Users\Filip\Eclipse\Template\Debug/../STM32F4xx_StdPeriph_Driver/src/stm32f4xx_gpio.c:307

  /* Check the parameters */
  assert_param(IS_GPIO_ALL_PERIPH(GPIOx));
  assert_param(IS_GET_GPIO_PIN(GPIO_Pin));

  if ((GPIOx->IDR & GPIO_Pin) != (uint32_t)Bit_RESET)
 8000bd4:	6900      	ldr	r0, [r0, #16]
 8000bd6:	4008      	ands	r0, r1
C:\Users\Filip\Eclipse\Template\Debug/../STM32F4xx_StdPeriph_Driver/src/stm32f4xx_gpio.c:316
  else
  {
    bitstatus = (uint8_t)Bit_RESET;
  }
  return bitstatus;
}
 8000bd8:	3000      	adds	r0, #0
 8000bda:	bf18      	it	ne
 8000bdc:	2001      	movne	r0, #1
 8000bde:	4770      	bx	lr

08000be0 <GPIO_ReadInputData>:
GPIO_ReadInputData():
C:\Users\Filip\Eclipse\Template\Debug/../STM32F4xx_StdPeriph_Driver/src/stm32f4xx_gpio.c:328
uint16_t GPIO_ReadInputData(GPIO_TypeDef* GPIOx)
{
  /* Check the parameters */
  assert_param(IS_GPIO_ALL_PERIPH(GPIOx));

  return ((uint16_t)GPIOx->IDR);
 8000be0:	6900      	ldr	r0, [r0, #16]
C:\Users\Filip\Eclipse\Template\Debug/../STM32F4xx_StdPeriph_Driver/src/stm32f4xx_gpio.c:329
}
 8000be2:	b280      	uxth	r0, r0
 8000be4:	4770      	bx	lr
 8000be6:	bf00      	nop

08000be8 <GPIO_ReadOutputDataBit>:
GPIO_ReadOutputDataBit():
C:\Users\Filip\Eclipse\Template\Debug/../STM32F4xx_StdPeriph_Driver/src/stm32f4xx_gpio.c:346

  /* Check the parameters */
  assert_param(IS_GPIO_ALL_PERIPH(GPIOx));
  assert_param(IS_GET_GPIO_PIN(GPIO_Pin));

  if ((GPIOx->ODR & GPIO_Pin) != (uint32_t)Bit_RESET)
 8000be8:	6940      	ldr	r0, [r0, #20]
 8000bea:	4008      	ands	r0, r1
C:\Users\Filip\Eclipse\Template\Debug/../STM32F4xx_StdPeriph_Driver/src/stm32f4xx_gpio.c:355
  else
  {
    bitstatus = (uint8_t)Bit_RESET;
  }
  return bitstatus;
}
 8000bec:	3000      	adds	r0, #0
 8000bee:	bf18      	it	ne
 8000bf0:	2001      	movne	r0, #1
 8000bf2:	4770      	bx	lr

08000bf4 <GPIO_ReadOutputData>:
GPIO_ReadOutputData():
C:\Users\Filip\Eclipse\Template\Debug/../STM32F4xx_StdPeriph_Driver/src/stm32f4xx_gpio.c:367
uint16_t GPIO_ReadOutputData(GPIO_TypeDef* GPIOx)
{
  /* Check the parameters */
  assert_param(IS_GPIO_ALL_PERIPH(GPIOx));

  return ((uint16_t)GPIOx->ODR);
 8000bf4:	6940      	ldr	r0, [r0, #20]
C:\Users\Filip\Eclipse\Template\Debug/../STM32F4xx_StdPeriph_Driver/src/stm32f4xx_gpio.c:368
}
 8000bf6:	b280      	uxth	r0, r0
 8000bf8:	4770      	bx	lr
 8000bfa:	bf00      	nop

08000bfc <GPIO_SetBits>:
GPIO_SetBits():
C:\Users\Filip\Eclipse\Template\Debug/../STM32F4xx_StdPeriph_Driver/src/stm32f4xx_gpio.c:386
{
  /* Check the parameters */
  assert_param(IS_GPIO_ALL_PERIPH(GPIOx));
  assert_param(IS_GPIO_PIN(GPIO_Pin));

  GPIOx->BSRRL = GPIO_Pin;
 8000bfc:	8301      	strh	r1, [r0, #24]
 8000bfe:	4770      	bx	lr

08000c00 <GPIO_ResetBits>:
GPIO_ResetBits():
C:\Users\Filip\Eclipse\Template\Debug/../STM32F4xx_StdPeriph_Driver/src/stm32f4xx_gpio.c:405
{
  /* Check the parameters */
  assert_param(IS_GPIO_ALL_PERIPH(GPIOx));
  assert_param(IS_GPIO_PIN(GPIO_Pin));

  GPIOx->BSRRH = GPIO_Pin;
 8000c00:	8341      	strh	r1, [r0, #26]
 8000c02:	4770      	bx	lr

08000c04 <GPIO_WriteBit>:
GPIO_WriteBit():
C:\Users\Filip\Eclipse\Template\Debug/../STM32F4xx_StdPeriph_Driver/src/stm32f4xx_gpio.c:426
  /* Check the parameters */
  assert_param(IS_GPIO_ALL_PERIPH(GPIOx));
  assert_param(IS_GET_GPIO_PIN(GPIO_Pin));
  assert_param(IS_GPIO_BIT_ACTION(BitVal));

  if (BitVal != Bit_RESET)
 8000c04:	b10a      	cbz	r2, 8000c0a <GPIO_WriteBit+0x6>
C:\Users\Filip\Eclipse\Template\Debug/../STM32F4xx_StdPeriph_Driver/src/stm32f4xx_gpio.c:428
  {
    GPIOx->BSRRL = GPIO_Pin;
 8000c06:	8301      	strh	r1, [r0, #24]
 8000c08:	4770      	bx	lr
C:\Users\Filip\Eclipse\Template\Debug/../STM32F4xx_StdPeriph_Driver/src/stm32f4xx_gpio.c:432
  }
  else
  {
    GPIOx->BSRRH = GPIO_Pin ;
 8000c0a:	8341      	strh	r1, [r0, #26]
 8000c0c:	4770      	bx	lr
 8000c0e:	bf00      	nop

08000c10 <GPIO_Write>:
GPIO_Write():
C:\Users\Filip\Eclipse\Template\Debug/../STM32F4xx_StdPeriph_Driver/src/stm32f4xx_gpio.c:447
void GPIO_Write(GPIO_TypeDef* GPIOx, uint16_t PortVal)
{
  /* Check the parameters */
  assert_param(IS_GPIO_ALL_PERIPH(GPIOx));

  GPIOx->ODR = PortVal;
 8000c10:	6141      	str	r1, [r0, #20]
 8000c12:	4770      	bx	lr

08000c14 <GPIO_ToggleBits>:
GPIO_ToggleBits():
C:\Users\Filip\Eclipse\Template\Debug/../STM32F4xx_StdPeriph_Driver/src/stm32f4xx_gpio.c:461
void GPIO_ToggleBits(GPIO_TypeDef* GPIOx, uint16_t GPIO_Pin)
{
  /* Check the parameters */
  assert_param(IS_GPIO_ALL_PERIPH(GPIOx));

  GPIOx->ODR ^= GPIO_Pin;
 8000c14:	6943      	ldr	r3, [r0, #20]
 8000c16:	4059      	eors	r1, r3
 8000c18:	6141      	str	r1, [r0, #20]
 8000c1a:	4770      	bx	lr

08000c1c <GPIO_PinAFConfig>:
GPIO_PinAFConfig():
C:\Users\Filip\Eclipse\Template\Debug/../STM32F4xx_StdPeriph_Driver/src/stm32f4xx_gpio.c:530
  *            @arg GPIO_AF_DCMI: Connect DCMI pins to AF13
  *            @arg GPIO_AF_EVENTOUT: Connect EVENTOUT pins to AF15
  * @retval None
  */
void GPIO_PinAFConfig(GPIO_TypeDef* GPIOx, uint16_t GPIO_PinSource, uint8_t GPIO_AF)
{
 8000c1c:	b430      	push	{r4, r5}
C:\Users\Filip\Eclipse\Template\Debug/../STM32F4xx_StdPeriph_Driver/src/stm32f4xx_gpio.c:539
  /* Check the parameters */
  assert_param(IS_GPIO_ALL_PERIPH(GPIOx));
  assert_param(IS_GPIO_PIN_SOURCE(GPIO_PinSource));
  assert_param(IS_GPIO_AF(GPIO_AF));
  
  temp = ((uint32_t)(GPIO_AF) << ((uint32_t)((uint32_t)GPIO_PinSource & (uint32_t)0x07) * 4)) ;
 8000c1e:	f001 0307 	and.w	r3, r1, #7
 8000c22:	009b      	lsls	r3, r3, #2
 8000c24:	409a      	lsls	r2, r3
C:\Users\Filip\Eclipse\Template\Debug/../STM32F4xx_StdPeriph_Driver/src/stm32f4xx_gpio.c:540
  GPIOx->AFR[GPIO_PinSource >> 0x03] &= ~((uint32_t)0xF << ((uint32_t)((uint32_t)GPIO_PinSource & (uint32_t)0x07) * 4)) ;
 8000c26:	08c9      	lsrs	r1, r1, #3
 8000c28:	3108      	adds	r1, #8
 8000c2a:	f850 4021 	ldr.w	r4, [r0, r1, lsl #2]
 8000c2e:	250f      	movs	r5, #15
 8000c30:	fa05 f303 	lsl.w	r3, r5, r3
 8000c34:	ea24 0303 	bic.w	r3, r4, r3
 8000c38:	f840 3021 	str.w	r3, [r0, r1, lsl #2]
C:\Users\Filip\Eclipse\Template\Debug/../STM32F4xx_StdPeriph_Driver/src/stm32f4xx_gpio.c:541
  temp_2 = GPIOx->AFR[GPIO_PinSource >> 0x03] | temp;
 8000c3c:	f850 3021 	ldr.w	r3, [r0, r1, lsl #2]
 8000c40:	431a      	orrs	r2, r3
C:\Users\Filip\Eclipse\Template\Debug/../STM32F4xx_StdPeriph_Driver/src/stm32f4xx_gpio.c:542
  GPIOx->AFR[GPIO_PinSource >> 0x03] = temp_2;
 8000c42:	f840 2021 	str.w	r2, [r0, r1, lsl #2]
C:\Users\Filip\Eclipse\Template\Debug/../STM32F4xx_StdPeriph_Driver/src/stm32f4xx_gpio.c:543
}
 8000c46:	bc30      	pop	{r4, r5}
 8000c48:	4770      	bx	lr
 8000c4a:	bf00      	nop

08000c4c <RCC_DeInit>:
RCC_DeInit():
C:\Users\Filip\Eclipse\Template\Debug/../STM32F4xx_StdPeriph_Driver/src/stm32f4xx_rcc.c:199
  * @retval None
  */
void RCC_DeInit(void)
{
  /* Set HSION bit */
  RCC->CR |= (uint32_t)0x00000001;
 8000c4c:	4b0a      	ldr	r3, [pc, #40]	; (8000c78 <RCC_DeInit+0x2c>)
 8000c4e:	681a      	ldr	r2, [r3, #0]
 8000c50:	f042 0201 	orr.w	r2, r2, #1
 8000c54:	601a      	str	r2, [r3, #0]
C:\Users\Filip\Eclipse\Template\Debug/../STM32F4xx_StdPeriph_Driver/src/stm32f4xx_rcc.c:202

  /* Reset CFGR register */
  RCC->CFGR = 0x00000000;
 8000c56:	2100      	movs	r1, #0
 8000c58:	6099      	str	r1, [r3, #8]
C:\Users\Filip\Eclipse\Template\Debug/../STM32F4xx_StdPeriph_Driver/src/stm32f4xx_rcc.c:205

  /* Reset HSEON, CSSON and PLLON bits */
  RCC->CR &= (uint32_t)0xFEF6FFFF;
 8000c5a:	681a      	ldr	r2, [r3, #0]
 8000c5c:	f022 7284 	bic.w	r2, r2, #17301504	; 0x1080000
 8000c60:	f422 3280 	bic.w	r2, r2, #65536	; 0x10000
 8000c64:	601a      	str	r2, [r3, #0]
C:\Users\Filip\Eclipse\Template\Debug/../STM32F4xx_StdPeriph_Driver/src/stm32f4xx_rcc.c:208

  /* Reset PLLCFGR register */
  RCC->PLLCFGR = 0x24003010;
 8000c66:	4a05      	ldr	r2, [pc, #20]	; (8000c7c <RCC_DeInit+0x30>)
 8000c68:	605a      	str	r2, [r3, #4]
C:\Users\Filip\Eclipse\Template\Debug/../STM32F4xx_StdPeriph_Driver/src/stm32f4xx_rcc.c:211

  /* Reset HSEBYP bit */
  RCC->CR &= (uint32_t)0xFFFBFFFF;
 8000c6a:	681a      	ldr	r2, [r3, #0]
 8000c6c:	f422 2280 	bic.w	r2, r2, #262144	; 0x40000
 8000c70:	601a      	str	r2, [r3, #0]
C:\Users\Filip\Eclipse\Template\Debug/../STM32F4xx_StdPeriph_Driver/src/stm32f4xx_rcc.c:214

  /* Disable all interrupts */
  RCC->CIR = 0x00000000;
 8000c72:	60d9      	str	r1, [r3, #12]
 8000c74:	4770      	bx	lr
 8000c76:	bf00      	nop
 8000c78:	40023800 	.word	0x40023800
 8000c7c:	24003010 	.word	0x24003010

08000c80 <RCC_HSEConfig>:
RCC_HSEConfig():
C:\Users\Filip\Eclipse\Template\Debug/../STM32F4xx_StdPeriph_Driver/src/stm32f4xx_rcc.c:243
{
  /* Check the parameters */
  assert_param(IS_RCC_HSE(RCC_HSE));

  /* Reset HSEON and HSEBYP bits before configuring the HSE ------------------*/
  *(__IO uint8_t *) CR_BYTE3_ADDRESS = RCC_HSE_OFF;
 8000c80:	4b02      	ldr	r3, [pc, #8]	; (8000c8c <RCC_HSEConfig+0xc>)
 8000c82:	2200      	movs	r2, #0
 8000c84:	701a      	strb	r2, [r3, #0]
C:\Users\Filip\Eclipse\Template\Debug/../STM32F4xx_StdPeriph_Driver/src/stm32f4xx_rcc.c:246

  /* Set the new HSE configuration -------------------------------------------*/
  *(__IO uint8_t *) CR_BYTE3_ADDRESS = RCC_HSE;
 8000c86:	7018      	strb	r0, [r3, #0]
 8000c88:	4770      	bx	lr
 8000c8a:	bf00      	nop
 8000c8c:	40023802 	.word	0x40023802

08000c90 <RCC_AdjustHSICalibrationValue>:
RCC_AdjustHSICalibrationValue():
C:\Users\Filip\Eclipse\Template\Debug/../STM32F4xx_StdPeriph_Driver/src/stm32f4xx_rcc.c:298
{
  uint32_t tmpreg = 0;
  /* Check the parameters */
  assert_param(IS_RCC_CALIBRATION_VALUE(HSICalibrationValue));

  tmpreg = RCC->CR;
 8000c90:	4b03      	ldr	r3, [pc, #12]	; (8000ca0 <RCC_AdjustHSICalibrationValue+0x10>)
 8000c92:	681a      	ldr	r2, [r3, #0]
C:\Users\Filip\Eclipse\Template\Debug/../STM32F4xx_StdPeriph_Driver/src/stm32f4xx_rcc.c:301

  /* Clear HSITRIM[4:0] bits */
  tmpreg &= ~RCC_CR_HSITRIM;
 8000c94:	f022 02f8 	bic.w	r2, r2, #248	; 0xf8
C:\Users\Filip\Eclipse\Template\Debug/../STM32F4xx_StdPeriph_Driver/src/stm32f4xx_rcc.c:304

  /* Set the HSITRIM[4:0] bits according to HSICalibrationValue value */
  tmpreg |= (uint32_t)HSICalibrationValue << 3;
 8000c98:	ea42 00c0 	orr.w	r0, r2, r0, lsl #3
C:\Users\Filip\Eclipse\Template\Debug/../STM32F4xx_StdPeriph_Driver/src/stm32f4xx_rcc.c:307

  /* Store the new value */
  RCC->CR = tmpreg;
 8000c9c:	6018      	str	r0, [r3, #0]
 8000c9e:	4770      	bx	lr
 8000ca0:	40023800 	.word	0x40023800

08000ca4 <RCC_HSICmd>:
RCC_HSICmd():
C:\Users\Filip\Eclipse\Template\Debug/../STM32F4xx_StdPeriph_Driver/src/stm32f4xx_rcc.c:333
void RCC_HSICmd(FunctionalState NewState)
{
  /* Check the parameters */
  assert_param(IS_FUNCTIONAL_STATE(NewState));

  *(__IO uint32_t *) CR_HSION_BB = (uint32_t)NewState;
 8000ca4:	4b01      	ldr	r3, [pc, #4]	; (8000cac <RCC_HSICmd+0x8>)
 8000ca6:	6018      	str	r0, [r3, #0]
 8000ca8:	4770      	bx	lr
 8000caa:	bf00      	nop
 8000cac:	42470000 	.word	0x42470000

08000cb0 <RCC_LSEConfig>:
RCC_LSEConfig():
C:\Users\Filip\Eclipse\Template\Debug/../STM32F4xx_StdPeriph_Driver/src/stm32f4xx_rcc.c:360
  /* Check the parameters */
  assert_param(IS_RCC_LSE(RCC_LSE));

  /* Reset LSEON and LSEBYP bits before configuring the LSE ------------------*/
  /* Reset LSEON bit */
  *(__IO uint8_t *) BDCR_ADDRESS = RCC_LSE_OFF;
 8000cb0:	4b08      	ldr	r3, [pc, #32]	; (8000cd4 <RCC_LSEConfig+0x24>)
 8000cb2:	2200      	movs	r2, #0
 8000cb4:	701a      	strb	r2, [r3, #0]
C:\Users\Filip\Eclipse\Template\Debug/../STM32F4xx_StdPeriph_Driver/src/stm32f4xx_rcc.c:363

  /* Reset LSEBYP bit */
  *(__IO uint8_t *) BDCR_ADDRESS = RCC_LSE_OFF;
 8000cb6:	701a      	strb	r2, [r3, #0]
C:\Users\Filip\Eclipse\Template\Debug/../STM32F4xx_StdPeriph_Driver/src/stm32f4xx_rcc.c:366

  /* Configure LSE (RCC_LSE_OFF is already covered by the code section above) */
  switch (RCC_LSE)
 8000cb8:	2801      	cmp	r0, #1
 8000cba:	d002      	beq.n	8000cc2 <RCC_LSEConfig+0x12>
 8000cbc:	2804      	cmp	r0, #4
 8000cbe:	d004      	beq.n	8000cca <RCC_LSEConfig+0x1a>
 8000cc0:	4770      	bx	lr
C:\Users\Filip\Eclipse\Template\Debug/../STM32F4xx_StdPeriph_Driver/src/stm32f4xx_rcc.c:370
  {
    case RCC_LSE_ON:
      /* Set LSEON bit */
      *(__IO uint8_t *) BDCR_ADDRESS = RCC_LSE_ON;
 8000cc2:	2201      	movs	r2, #1
 8000cc4:	4b03      	ldr	r3, [pc, #12]	; (8000cd4 <RCC_LSEConfig+0x24>)
 8000cc6:	701a      	strb	r2, [r3, #0]
C:\Users\Filip\Eclipse\Template\Debug/../STM32F4xx_StdPeriph_Driver/src/stm32f4xx_rcc.c:371
      break;
 8000cc8:	4770      	bx	lr
C:\Users\Filip\Eclipse\Template\Debug/../STM32F4xx_StdPeriph_Driver/src/stm32f4xx_rcc.c:374
    case RCC_LSE_Bypass:
      /* Set LSEBYP and LSEON bits */
      *(__IO uint8_t *) BDCR_ADDRESS = RCC_LSE_Bypass | RCC_LSE_ON;
 8000cca:	2205      	movs	r2, #5
 8000ccc:	4b01      	ldr	r3, [pc, #4]	; (8000cd4 <RCC_LSEConfig+0x24>)
 8000cce:	701a      	strb	r2, [r3, #0]
 8000cd0:	4770      	bx	lr
 8000cd2:	bf00      	nop
 8000cd4:	40023870 	.word	0x40023870

08000cd8 <RCC_LSICmd>:
RCC_LSICmd():
C:\Users\Filip\Eclipse\Template\Debug/../STM32F4xx_StdPeriph_Driver/src/stm32f4xx_rcc.c:398
void RCC_LSICmd(FunctionalState NewState)
{
  /* Check the parameters */
  assert_param(IS_FUNCTIONAL_STATE(NewState));

  *(__IO uint32_t *) CSR_LSION_BB = (uint32_t)NewState;
 8000cd8:	4b01      	ldr	r3, [pc, #4]	; (8000ce0 <RCC_LSICmd+0x8>)
 8000cda:	6018      	str	r0, [r3, #0]
 8000cdc:	4770      	bx	lr
 8000cde:	bf00      	nop
 8000ce0:	42470e80 	.word	0x42470e80

08000ce4 <RCC_PLLConfig>:
RCC_PLLConfig():
C:\Users\Filip\Eclipse\Template\Debug/../STM32F4xx_StdPeriph_Driver/src/stm32f4xx_rcc.c:445
  assert_param(IS_RCC_PLLM_VALUE(PLLM));
  assert_param(IS_RCC_PLLN_VALUE(PLLN));
  assert_param(IS_RCC_PLLP_VALUE(PLLP));
  assert_param(IS_RCC_PLLQ_VALUE(PLLQ));

  RCC->PLLCFGR = PLLM | (PLLN << 6) | (((PLLP >> 1) -1) << 16) | (RCC_PLLSource) |
 8000ce4:	ea41 1282 	orr.w	r2, r1, r2, lsl #6
 8000ce8:	085b      	lsrs	r3, r3, #1
 8000cea:	3b01      	subs	r3, #1
 8000cec:	ea42 4203 	orr.w	r2, r2, r3, lsl #16
 8000cf0:	4310      	orrs	r0, r2
 8000cf2:	9b00      	ldr	r3, [sp, #0]
 8000cf4:	ea40 6303 	orr.w	r3, r0, r3, lsl #24
 8000cf8:	4901      	ldr	r1, [pc, #4]	; (8000d00 <RCC_PLLConfig+0x1c>)
 8000cfa:	604b      	str	r3, [r1, #4]
 8000cfc:	4770      	bx	lr
 8000cfe:	bf00      	nop
 8000d00:	40023800 	.word	0x40023800

08000d04 <RCC_PLLCmd>:
RCC_PLLCmd():
C:\Users\Filip\Eclipse\Template\Debug/../STM32F4xx_StdPeriph_Driver/src/stm32f4xx_rcc.c:463
  */
void RCC_PLLCmd(FunctionalState NewState)
{
  /* Check the parameters */
  assert_param(IS_FUNCTIONAL_STATE(NewState));
  *(__IO uint32_t *) CR_PLLON_BB = (uint32_t)NewState;
 8000d04:	4b01      	ldr	r3, [pc, #4]	; (8000d0c <RCC_PLLCmd+0x8>)
 8000d06:	6018      	str	r0, [r3, #0]
 8000d08:	4770      	bx	lr
 8000d0a:	bf00      	nop
 8000d0c:	42470060 	.word	0x42470060

08000d10 <RCC_PLLI2SConfig>:
RCC_PLLI2SConfig():
C:\Users\Filip\Eclipse\Template\Debug/../STM32F4xx_StdPeriph_Driver/src/stm32f4xx_rcc.c:491
{
  /* Check the parameters */
  assert_param(IS_RCC_PLLI2SN_VALUE(PLLI2SN));
  assert_param(IS_RCC_PLLI2SR_VALUE(PLLI2SR));

  RCC->PLLI2SCFGR = (PLLI2SN << 6) | (PLLI2SR << 28);
 8000d10:	0709      	lsls	r1, r1, #28
 8000d12:	ea41 1080 	orr.w	r0, r1, r0, lsl #6
 8000d16:	4b02      	ldr	r3, [pc, #8]	; (8000d20 <RCC_PLLI2SConfig+0x10>)
 8000d18:	f8c3 0084 	str.w	r0, [r3, #132]	; 0x84
 8000d1c:	4770      	bx	lr
 8000d1e:	bf00      	nop
 8000d20:	40023800 	.word	0x40023800

08000d24 <RCC_PLLI2SCmd>:
RCC_PLLI2SCmd():
C:\Users\Filip\Eclipse\Template\Debug/../STM32F4xx_StdPeriph_Driver/src/stm32f4xx_rcc.c:504
  */
void RCC_PLLI2SCmd(FunctionalState NewState)
{
  /* Check the parameters */
  assert_param(IS_FUNCTIONAL_STATE(NewState));
  *(__IO uint32_t *) CR_PLLI2SON_BB = (uint32_t)NewState;
 8000d24:	4b01      	ldr	r3, [pc, #4]	; (8000d2c <RCC_PLLI2SCmd+0x8>)
 8000d26:	6018      	str	r0, [r3, #0]
 8000d28:	4770      	bx	lr
 8000d2a:	bf00      	nop
 8000d2c:	42470068 	.word	0x42470068

08000d30 <RCC_ClockSecuritySystemCmd>:
RCC_ClockSecuritySystemCmd():
C:\Users\Filip\Eclipse\Template\Debug/../STM32F4xx_StdPeriph_Driver/src/stm32f4xx_rcc.c:522
  */
void RCC_ClockSecuritySystemCmd(FunctionalState NewState)
{
  /* Check the parameters */
  assert_param(IS_FUNCTIONAL_STATE(NewState));
  *(__IO uint32_t *) CR_CSSON_BB = (uint32_t)NewState;
 8000d30:	4b01      	ldr	r3, [pc, #4]	; (8000d38 <RCC_ClockSecuritySystemCmd+0x8>)
 8000d32:	6018      	str	r0, [r3, #0]
 8000d34:	4770      	bx	lr
 8000d36:	bf00      	nop
 8000d38:	4247004c 	.word	0x4247004c

08000d3c <RCC_MCO1Config>:
RCC_MCO1Config():
C:\Users\Filip\Eclipse\Template\Debug/../STM32F4xx_StdPeriph_Driver/src/stm32f4xx_rcc.c:551
  
  /* Check the parameters */
  assert_param(IS_RCC_MCO1SOURCE(RCC_MCO1Source));
  assert_param(IS_RCC_MCO1DIV(RCC_MCO1Div));  

  tmpreg = RCC->CFGR;
 8000d3c:	4b03      	ldr	r3, [pc, #12]	; (8000d4c <RCC_MCO1Config+0x10>)
 8000d3e:	689a      	ldr	r2, [r3, #8]
C:\Users\Filip\Eclipse\Template\Debug/../STM32F4xx_StdPeriph_Driver/src/stm32f4xx_rcc.c:554

  /* Clear MCO1[1:0] and MCO1PRE[2:0] bits */
  tmpreg &= CFGR_MCO1_RESET_MASK;
 8000d40:	f022 62ec 	bic.w	r2, r2, #123731968	; 0x7600000
C:\Users\Filip\Eclipse\Template\Debug/../STM32F4xx_StdPeriph_Driver/src/stm32f4xx_rcc.c:557

  /* Select MCO1 clock source and prescaler */
  tmpreg |= RCC_MCO1Source | RCC_MCO1Div;
 8000d44:	4301      	orrs	r1, r0
 8000d46:	430a      	orrs	r2, r1
C:\Users\Filip\Eclipse\Template\Debug/../STM32F4xx_StdPeriph_Driver/src/stm32f4xx_rcc.c:560

  /* Store the new value */
  RCC->CFGR = tmpreg;  
 8000d48:	609a      	str	r2, [r3, #8]
 8000d4a:	4770      	bx	lr
 8000d4c:	40023800 	.word	0x40023800

08000d50 <RCC_MCO2Config>:
RCC_MCO2Config():
C:\Users\Filip\Eclipse\Template\Debug/../STM32F4xx_StdPeriph_Driver/src/stm32f4xx_rcc.c:589
  
  /* Check the parameters */
  assert_param(IS_RCC_MCO2SOURCE(RCC_MCO2Source));
  assert_param(IS_RCC_MCO2DIV(RCC_MCO2Div));
  
  tmpreg = RCC->CFGR;
 8000d50:	4b03      	ldr	r3, [pc, #12]	; (8000d60 <RCC_MCO2Config+0x10>)
 8000d52:	689a      	ldr	r2, [r3, #8]
C:\Users\Filip\Eclipse\Template\Debug/../STM32F4xx_StdPeriph_Driver/src/stm32f4xx_rcc.c:592
  
  /* Clear MCO2 and MCO2PRE[2:0] bits */
  tmpreg &= CFGR_MCO2_RESET_MASK;
 8000d54:	f022 4278 	bic.w	r2, r2, #4160749568	; 0xf8000000
C:\Users\Filip\Eclipse\Template\Debug/../STM32F4xx_StdPeriph_Driver/src/stm32f4xx_rcc.c:595

  /* Select MCO2 clock source and prescaler */
  tmpreg |= RCC_MCO2Source | RCC_MCO2Div;
 8000d58:	4301      	orrs	r1, r0
 8000d5a:	430a      	orrs	r2, r1
C:\Users\Filip\Eclipse\Template\Debug/../STM32F4xx_StdPeriph_Driver/src/stm32f4xx_rcc.c:598

  /* Store the new value */
  RCC->CFGR = tmpreg;  
 8000d5c:	609a      	str	r2, [r3, #8]
 8000d5e:	4770      	bx	lr
 8000d60:	40023800 	.word	0x40023800

08000d64 <RCC_SYSCLKConfig>:
RCC_SYSCLKConfig():
C:\Users\Filip\Eclipse\Template\Debug/../STM32F4xx_StdPeriph_Driver/src/stm32f4xx_rcc.c:694
  uint32_t tmpreg = 0;

  /* Check the parameters */
  assert_param(IS_RCC_SYSCLK_SOURCE(RCC_SYSCLKSource));

  tmpreg = RCC->CFGR;
 8000d64:	4b03      	ldr	r3, [pc, #12]	; (8000d74 <RCC_SYSCLKConfig+0x10>)
 8000d66:	689a      	ldr	r2, [r3, #8]
C:\Users\Filip\Eclipse\Template\Debug/../STM32F4xx_StdPeriph_Driver/src/stm32f4xx_rcc.c:697

  /* Clear SW[1:0] bits */
  tmpreg &= ~RCC_CFGR_SW;
 8000d68:	f022 0203 	bic.w	r2, r2, #3
C:\Users\Filip\Eclipse\Template\Debug/../STM32F4xx_StdPeriph_Driver/src/stm32f4xx_rcc.c:700

  /* Set SW[1:0] bits according to RCC_SYSCLKSource value */
  tmpreg |= RCC_SYSCLKSource;
 8000d6c:	4310      	orrs	r0, r2
C:\Users\Filip\Eclipse\Template\Debug/../STM32F4xx_StdPeriph_Driver/src/stm32f4xx_rcc.c:703

  /* Store the new value */
  RCC->CFGR = tmpreg;
 8000d6e:	6098      	str	r0, [r3, #8]
 8000d70:	4770      	bx	lr
 8000d72:	bf00      	nop
 8000d74:	40023800 	.word	0x40023800

08000d78 <RCC_GetSYSCLKSource>:
RCC_GetSYSCLKSource():
C:\Users\Filip\Eclipse\Template\Debug/../STM32F4xx_StdPeriph_Driver/src/stm32f4xx_rcc.c:717
  *              - 0x04: HSE used as system clock
  *              - 0x08: PLL used as system clock
  */
uint8_t RCC_GetSYSCLKSource(void)
{
  return ((uint8_t)(RCC->CFGR & RCC_CFGR_SWS));
 8000d78:	4b02      	ldr	r3, [pc, #8]	; (8000d84 <RCC_GetSYSCLKSource+0xc>)
 8000d7a:	6898      	ldr	r0, [r3, #8]
C:\Users\Filip\Eclipse\Template\Debug/../STM32F4xx_StdPeriph_Driver/src/stm32f4xx_rcc.c:718
}
 8000d7c:	f000 000c 	and.w	r0, r0, #12
 8000d80:	4770      	bx	lr
 8000d82:	bf00      	nop
 8000d84:	40023800 	.word	0x40023800

08000d88 <RCC_HCLKConfig>:
RCC_HCLKConfig():
C:\Users\Filip\Eclipse\Template\Debug/../STM32F4xx_StdPeriph_Driver/src/stm32f4xx_rcc.c:747
  uint32_t tmpreg = 0;
  
  /* Check the parameters */
  assert_param(IS_RCC_HCLK(RCC_SYSCLK));

  tmpreg = RCC->CFGR;
 8000d88:	4b03      	ldr	r3, [pc, #12]	; (8000d98 <RCC_HCLKConfig+0x10>)
 8000d8a:	689a      	ldr	r2, [r3, #8]
C:\Users\Filip\Eclipse\Template\Debug/../STM32F4xx_StdPeriph_Driver/src/stm32f4xx_rcc.c:750

  /* Clear HPRE[3:0] bits */
  tmpreg &= ~RCC_CFGR_HPRE;
 8000d8c:	f022 02f0 	bic.w	r2, r2, #240	; 0xf0
C:\Users\Filip\Eclipse\Template\Debug/../STM32F4xx_StdPeriph_Driver/src/stm32f4xx_rcc.c:753

  /* Set HPRE[3:0] bits according to RCC_SYSCLK value */
  tmpreg |= RCC_SYSCLK;
 8000d90:	4310      	orrs	r0, r2
C:\Users\Filip\Eclipse\Template\Debug/../STM32F4xx_StdPeriph_Driver/src/stm32f4xx_rcc.c:756

  /* Store the new value */
  RCC->CFGR = tmpreg;
 8000d92:	6098      	str	r0, [r3, #8]
 8000d94:	4770      	bx	lr
 8000d96:	bf00      	nop
 8000d98:	40023800 	.word	0x40023800

08000d9c <RCC_PCLK1Config>:
RCC_PCLK1Config():
C:\Users\Filip\Eclipse\Template\Debug/../STM32F4xx_StdPeriph_Driver/src/stm32f4xx_rcc.c:779
  uint32_t tmpreg = 0;

  /* Check the parameters */
  assert_param(IS_RCC_PCLK(RCC_HCLK));

  tmpreg = RCC->CFGR;
 8000d9c:	4b03      	ldr	r3, [pc, #12]	; (8000dac <RCC_PCLK1Config+0x10>)
 8000d9e:	689a      	ldr	r2, [r3, #8]
C:\Users\Filip\Eclipse\Template\Debug/../STM32F4xx_StdPeriph_Driver/src/stm32f4xx_rcc.c:782

  /* Clear PPRE1[2:0] bits */
  tmpreg &= ~RCC_CFGR_PPRE1;
 8000da0:	f422 52e0 	bic.w	r2, r2, #7168	; 0x1c00
C:\Users\Filip\Eclipse\Template\Debug/../STM32F4xx_StdPeriph_Driver/src/stm32f4xx_rcc.c:785

  /* Set PPRE1[2:0] bits according to RCC_HCLK value */
  tmpreg |= RCC_HCLK;
 8000da4:	4310      	orrs	r0, r2
C:\Users\Filip\Eclipse\Template\Debug/../STM32F4xx_StdPeriph_Driver/src/stm32f4xx_rcc.c:788

  /* Store the new value */
  RCC->CFGR = tmpreg;
 8000da6:	6098      	str	r0, [r3, #8]
 8000da8:	4770      	bx	lr
 8000daa:	bf00      	nop
 8000dac:	40023800 	.word	0x40023800

08000db0 <RCC_PCLK2Config>:
RCC_PCLK2Config():
C:\Users\Filip\Eclipse\Template\Debug/../STM32F4xx_StdPeriph_Driver/src/stm32f4xx_rcc.c:810
  uint32_t tmpreg = 0;

  /* Check the parameters */
  assert_param(IS_RCC_PCLK(RCC_HCLK));

  tmpreg = RCC->CFGR;
 8000db0:	4b03      	ldr	r3, [pc, #12]	; (8000dc0 <RCC_PCLK2Config+0x10>)
 8000db2:	689a      	ldr	r2, [r3, #8]
C:\Users\Filip\Eclipse\Template\Debug/../STM32F4xx_StdPeriph_Driver/src/stm32f4xx_rcc.c:813

  /* Clear PPRE2[2:0] bits */
  tmpreg &= ~RCC_CFGR_PPRE2;
 8000db4:	f422 4260 	bic.w	r2, r2, #57344	; 0xe000
C:\Users\Filip\Eclipse\Template\Debug/../STM32F4xx_StdPeriph_Driver/src/stm32f4xx_rcc.c:816

  /* Set PPRE2[2:0] bits according to RCC_HCLK value */
  tmpreg |= RCC_HCLK << 3;
 8000db8:	ea42 00c0 	orr.w	r0, r2, r0, lsl #3
C:\Users\Filip\Eclipse\Template\Debug/../STM32F4xx_StdPeriph_Driver/src/stm32f4xx_rcc.c:819

  /* Store the new value */
  RCC->CFGR = tmpreg;
 8000dbc:	6098      	str	r0, [r3, #8]
 8000dbe:	4770      	bx	lr
 8000dc0:	40023800 	.word	0x40023800

08000dc4 <RCC_GetClocksFreq>:
RCC_GetClocksFreq():
C:\Users\Filip\Eclipse\Template\Debug/../STM32F4xx_StdPeriph_Driver/src/stm32f4xx_rcc.c:856
  *         configuration based on this function will be incorrect.
  *    
  * @retval None
  */
void RCC_GetClocksFreq(RCC_ClocksTypeDef* RCC_Clocks)
{
 8000dc4:	b410      	push	{r4}
C:\Users\Filip\Eclipse\Template\Debug/../STM32F4xx_StdPeriph_Driver/src/stm32f4xx_rcc.c:860
  uint32_t tmp = 0, presc = 0, pllvco = 0, pllp = 2, pllsource = 0, pllm = 2;

  /* Get SYSCLK source -------------------------------------------------------*/
  tmp = RCC->CFGR & RCC_CFGR_SWS;
 8000dc6:	4b25      	ldr	r3, [pc, #148]	; (8000e5c <RCC_GetClocksFreq+0x98>)
 8000dc8:	689b      	ldr	r3, [r3, #8]
 8000dca:	f003 030c 	and.w	r3, r3, #12
C:\Users\Filip\Eclipse\Template\Debug/../STM32F4xx_StdPeriph_Driver/src/stm32f4xx_rcc.c:862

  switch (tmp)
 8000dce:	2b04      	cmp	r3, #4
 8000dd0:	d005      	beq.n	8000dde <RCC_GetClocksFreq+0x1a>
 8000dd2:	2b08      	cmp	r3, #8
 8000dd4:	d006      	beq.n	8000de4 <RCC_GetClocksFreq+0x20>
 8000dd6:	bb0b      	cbnz	r3, 8000e1c <RCC_GetClocksFreq+0x58>
C:\Users\Filip\Eclipse\Template\Debug/../STM32F4xx_StdPeriph_Driver/src/stm32f4xx_rcc.c:865
  {
    case 0x00:  /* HSI used as system clock source */
      RCC_Clocks->SYSCLK_Frequency = HSI_VALUE;
 8000dd8:	4b21      	ldr	r3, [pc, #132]	; (8000e60 <RCC_GetClocksFreq+0x9c>)
 8000dda:	6003      	str	r3, [r0, #0]
C:\Users\Filip\Eclipse\Template\Debug/../STM32F4xx_StdPeriph_Driver/src/stm32f4xx_rcc.c:866
      break;
 8000ddc:	e020      	b.n	8000e20 <RCC_GetClocksFreq+0x5c>
C:\Users\Filip\Eclipse\Template\Debug/../STM32F4xx_StdPeriph_Driver/src/stm32f4xx_rcc.c:868
    case 0x04:  /* HSE used as system clock  source */
      RCC_Clocks->SYSCLK_Frequency = HSE_VALUE;
 8000dde:	4b21      	ldr	r3, [pc, #132]	; (8000e64 <RCC_GetClocksFreq+0xa0>)
 8000de0:	6003      	str	r3, [r0, #0]
C:\Users\Filip\Eclipse\Template\Debug/../STM32F4xx_StdPeriph_Driver/src/stm32f4xx_rcc.c:869
      break;
 8000de2:	e01d      	b.n	8000e20 <RCC_GetClocksFreq+0x5c>
C:\Users\Filip\Eclipse\Template\Debug/../STM32F4xx_StdPeriph_Driver/src/stm32f4xx_rcc.c:875
    case 0x08:  /* PLL used as system clock  source */

      /* PLL_VCO = (HSE_VALUE or HSI_VALUE / PLLM) * PLLN
         SYSCLK = PLL_VCO / PLLP
         */    
      pllsource = (RCC->PLLCFGR & RCC_PLLCFGR_PLLSRC) >> 22;
 8000de4:	4b1d      	ldr	r3, [pc, #116]	; (8000e5c <RCC_GetClocksFreq+0x98>)
 8000de6:	685a      	ldr	r2, [r3, #4]
C:\Users\Filip\Eclipse\Template\Debug/../STM32F4xx_StdPeriph_Driver/src/stm32f4xx_rcc.c:876
      pllm = RCC->PLLCFGR & RCC_PLLCFGR_PLLM;
 8000de8:	685b      	ldr	r3, [r3, #4]
 8000dea:	f003 033f 	and.w	r3, r3, #63	; 0x3f
C:\Users\Filip\Eclipse\Template\Debug/../STM32F4xx_StdPeriph_Driver/src/stm32f4xx_rcc.c:878
      
      if (pllsource != 0)
 8000dee:	f412 0f80 	tst.w	r2, #4194304	; 0x400000
C:\Users\Filip\Eclipse\Template\Debug/../STM32F4xx_StdPeriph_Driver/src/stm32f4xx_rcc.c:881
      {
        /* HSE used as PLL clock source */
        pllvco = (HSE_VALUE / pllm) * ((RCC->PLLCFGR & RCC_PLLCFGR_PLLN) >> 6);
 8000df2:	bf14      	ite	ne
 8000df4:	4a1b      	ldrne	r2, [pc, #108]	; (8000e64 <RCC_GetClocksFreq+0xa0>)
C:\Users\Filip\Eclipse\Template\Debug/../STM32F4xx_StdPeriph_Driver/src/stm32f4xx_rcc.c:886
      }
      else
      {
        /* HSI used as PLL clock source */
        pllvco = (HSI_VALUE / pllm) * ((RCC->PLLCFGR & RCC_PLLCFGR_PLLN) >> 6);      
 8000df6:	4a1a      	ldreq	r2, [pc, #104]	; (8000e60 <RCC_GetClocksFreq+0x9c>)
 8000df8:	fbb2 f3f3 	udiv	r3, r2, r3
 8000dfc:	4a17      	ldr	r2, [pc, #92]	; (8000e5c <RCC_GetClocksFreq+0x98>)
 8000dfe:	6852      	ldr	r2, [r2, #4]
 8000e00:	f3c2 1288 	ubfx	r2, r2, #6, #9
 8000e04:	fb02 f303 	mul.w	r3, r2, r3
C:\Users\Filip\Eclipse\Template\Debug/../STM32F4xx_StdPeriph_Driver/src/stm32f4xx_rcc.c:889
      }

      pllp = (((RCC->PLLCFGR & RCC_PLLCFGR_PLLP) >>16) + 1 ) *2;
 8000e08:	4a14      	ldr	r2, [pc, #80]	; (8000e5c <RCC_GetClocksFreq+0x98>)
 8000e0a:	6852      	ldr	r2, [r2, #4]
 8000e0c:	f3c2 4201 	ubfx	r2, r2, #16, #2
 8000e10:	3201      	adds	r2, #1
 8000e12:	0052      	lsls	r2, r2, #1
C:\Users\Filip\Eclipse\Template\Debug/../STM32F4xx_StdPeriph_Driver/src/stm32f4xx_rcc.c:890
      RCC_Clocks->SYSCLK_Frequency = pllvco/pllp;
 8000e14:	fbb3 f3f2 	udiv	r3, r3, r2
 8000e18:	6003      	str	r3, [r0, #0]
C:\Users\Filip\Eclipse\Template\Debug/../STM32F4xx_StdPeriph_Driver/src/stm32f4xx_rcc.c:891
      break;
 8000e1a:	e001      	b.n	8000e20 <RCC_GetClocksFreq+0x5c>
C:\Users\Filip\Eclipse\Template\Debug/../STM32F4xx_StdPeriph_Driver/src/stm32f4xx_rcc.c:893
    default:
      RCC_Clocks->SYSCLK_Frequency = HSI_VALUE;
 8000e1c:	4b10      	ldr	r3, [pc, #64]	; (8000e60 <RCC_GetClocksFreq+0x9c>)
 8000e1e:	6003      	str	r3, [r0, #0]
C:\Users\Filip\Eclipse\Template\Debug/../STM32F4xx_StdPeriph_Driver/src/stm32f4xx_rcc.c:899
      break;
  }
  /* Compute HCLK, PCLK1 and PCLK2 clocks frequencies ------------------------*/

  /* Get HCLK prescaler */
  tmp = RCC->CFGR & RCC_CFGR_HPRE;
 8000e20:	490e      	ldr	r1, [pc, #56]	; (8000e5c <RCC_GetClocksFreq+0x98>)
 8000e22:	688b      	ldr	r3, [r1, #8]
C:\Users\Filip\Eclipse\Template\Debug/../STM32F4xx_StdPeriph_Driver/src/stm32f4xx_rcc.c:900
  tmp = tmp >> 4;
 8000e24:	f3c3 1303 	ubfx	r3, r3, #4, #4
C:\Users\Filip\Eclipse\Template\Debug/../STM32F4xx_StdPeriph_Driver/src/stm32f4xx_rcc.c:901
  presc = APBAHBPrescTable[tmp];
 8000e28:	4a0f      	ldr	r2, [pc, #60]	; (8000e68 <RCC_GetClocksFreq+0xa4>)
 8000e2a:	5cd3      	ldrb	r3, [r2, r3]
 8000e2c:	b2db      	uxtb	r3, r3
C:\Users\Filip\Eclipse\Template\Debug/../STM32F4xx_StdPeriph_Driver/src/stm32f4xx_rcc.c:903
  /* HCLK clock frequency */
  RCC_Clocks->HCLK_Frequency = RCC_Clocks->SYSCLK_Frequency >> presc;
 8000e2e:	6804      	ldr	r4, [r0, #0]
 8000e30:	fa24 f303 	lsr.w	r3, r4, r3
 8000e34:	6043      	str	r3, [r0, #4]
C:\Users\Filip\Eclipse\Template\Debug/../STM32F4xx_StdPeriph_Driver/src/stm32f4xx_rcc.c:906

  /* Get PCLK1 prescaler */
  tmp = RCC->CFGR & RCC_CFGR_PPRE1;
 8000e36:	688c      	ldr	r4, [r1, #8]
C:\Users\Filip\Eclipse\Template\Debug/../STM32F4xx_StdPeriph_Driver/src/stm32f4xx_rcc.c:907
  tmp = tmp >> 10;
 8000e38:	f3c4 2482 	ubfx	r4, r4, #10, #3
C:\Users\Filip\Eclipse\Template\Debug/../STM32F4xx_StdPeriph_Driver/src/stm32f4xx_rcc.c:908
  presc = APBAHBPrescTable[tmp];
 8000e3c:	5d14      	ldrb	r4, [r2, r4]
 8000e3e:	b2e4      	uxtb	r4, r4
C:\Users\Filip\Eclipse\Template\Debug/../STM32F4xx_StdPeriph_Driver/src/stm32f4xx_rcc.c:910
  /* PCLK1 clock frequency */
  RCC_Clocks->PCLK1_Frequency = RCC_Clocks->HCLK_Frequency >> presc;
 8000e40:	fa23 f404 	lsr.w	r4, r3, r4
 8000e44:	6084      	str	r4, [r0, #8]
C:\Users\Filip\Eclipse\Template\Debug/../STM32F4xx_StdPeriph_Driver/src/stm32f4xx_rcc.c:913

  /* Get PCLK2 prescaler */
  tmp = RCC->CFGR & RCC_CFGR_PPRE2;
 8000e46:	6889      	ldr	r1, [r1, #8]
C:\Users\Filip\Eclipse\Template\Debug/../STM32F4xx_StdPeriph_Driver/src/stm32f4xx_rcc.c:914
  tmp = tmp >> 13;
 8000e48:	f3c1 3142 	ubfx	r1, r1, #13, #3
C:\Users\Filip\Eclipse\Template\Debug/../STM32F4xx_StdPeriph_Driver/src/stm32f4xx_rcc.c:915
  presc = APBAHBPrescTable[tmp];
 8000e4c:	5c52      	ldrb	r2, [r2, r1]
 8000e4e:	b2d2      	uxtb	r2, r2
C:\Users\Filip\Eclipse\Template\Debug/../STM32F4xx_StdPeriph_Driver/src/stm32f4xx_rcc.c:917
  /* PCLK2 clock frequency */
  RCC_Clocks->PCLK2_Frequency = RCC_Clocks->HCLK_Frequency >> presc;
 8000e50:	40d3      	lsrs	r3, r2
 8000e52:	60c3      	str	r3, [r0, #12]
C:\Users\Filip\Eclipse\Template\Debug/../STM32F4xx_StdPeriph_Driver/src/stm32f4xx_rcc.c:918
}
 8000e54:	f85d 4b04 	ldr.w	r4, [sp], #4
 8000e58:	4770      	bx	lr
 8000e5a:	bf00      	nop
 8000e5c:	40023800 	.word	0x40023800
 8000e60:	00f42400 	.word	0x00f42400
 8000e64:	007a1200 	.word	0x007a1200
 8000e68:	20000014 	.word	0x20000014

08000e6c <RCC_RTCCLKConfig>:
RCC_RTCCLKConfig():
C:\Users\Filip\Eclipse\Template\Debug/../STM32F4xx_StdPeriph_Driver/src/stm32f4xx_rcc.c:987
  uint32_t tmpreg = 0;

  /* Check the parameters */
  assert_param(IS_RCC_RTCCLK_SOURCE(RCC_RTCCLKSource));

  if ((RCC_RTCCLKSource & 0x00000300) == 0x00000300)
 8000e6c:	f400 7340 	and.w	r3, r0, #768	; 0x300
 8000e70:	f5b3 7f40 	cmp.w	r3, #768	; 0x300
 8000e74:	d109      	bne.n	8000e8a <RCC_RTCCLKConfig+0x1e>
C:\Users\Filip\Eclipse\Template\Debug/../STM32F4xx_StdPeriph_Driver/src/stm32f4xx_rcc.c:989
  { /* If HSE is selected as RTC clock source, configure HSE division factor for RTC clock */
    tmpreg = RCC->CFGR;
 8000e76:	4a08      	ldr	r2, [pc, #32]	; (8000e98 <RCC_RTCCLKConfig+0x2c>)
 8000e78:	6891      	ldr	r1, [r2, #8]
C:\Users\Filip\Eclipse\Template\Debug/../STM32F4xx_StdPeriph_Driver/src/stm32f4xx_rcc.c:992

    /* Clear RTCPRE[4:0] bits */
    tmpreg &= ~RCC_CFGR_RTCPRE;
 8000e7a:	f421 11f8 	bic.w	r1, r1, #2031616	; 0x1f0000
C:\Users\Filip\Eclipse\Template\Debug/../STM32F4xx_StdPeriph_Driver/src/stm32f4xx_rcc.c:995

    /* Configure HSE division factor for RTC clock */
    tmpreg |= (RCC_RTCCLKSource & 0xFFFFCFF);
 8000e7e:	f020 4370 	bic.w	r3, r0, #4026531840	; 0xf0000000
 8000e82:	f423 7340 	bic.w	r3, r3, #768	; 0x300
 8000e86:	430b      	orrs	r3, r1
C:\Users\Filip\Eclipse\Template\Debug/../STM32F4xx_StdPeriph_Driver/src/stm32f4xx_rcc.c:998

    /* Store the new value */
    RCC->CFGR = tmpreg;
 8000e88:	6093      	str	r3, [r2, #8]
C:\Users\Filip\Eclipse\Template\Debug/../STM32F4xx_StdPeriph_Driver/src/stm32f4xx_rcc.c:1002
  }
    
  /* Select the RTC clock source */
  RCC->BDCR |= (RCC_RTCCLKSource & 0x00000FFF);
 8000e8a:	4b03      	ldr	r3, [pc, #12]	; (8000e98 <RCC_RTCCLKConfig+0x2c>)
 8000e8c:	6f1a      	ldr	r2, [r3, #112]	; 0x70
 8000e8e:	f3c0 000b 	ubfx	r0, r0, #0, #12
 8000e92:	4310      	orrs	r0, r2
 8000e94:	6718      	str	r0, [r3, #112]	; 0x70
 8000e96:	4770      	bx	lr
 8000e98:	40023800 	.word	0x40023800

08000e9c <RCC_RTCCLKCmd>:
RCC_RTCCLKCmd():
C:\Users\Filip\Eclipse\Template\Debug/../STM32F4xx_StdPeriph_Driver/src/stm32f4xx_rcc.c:1017
void RCC_RTCCLKCmd(FunctionalState NewState)
{
  /* Check the parameters */
  assert_param(IS_FUNCTIONAL_STATE(NewState));

  *(__IO uint32_t *) BDCR_RTCEN_BB = (uint32_t)NewState;
 8000e9c:	4b01      	ldr	r3, [pc, #4]	; (8000ea4 <RCC_RTCCLKCmd+0x8>)
 8000e9e:	6018      	str	r0, [r3, #0]
 8000ea0:	4770      	bx	lr
 8000ea2:	bf00      	nop
 8000ea4:	42470e3c 	.word	0x42470e3c

08000ea8 <RCC_BackupResetCmd>:
RCC_BackupResetCmd():
C:\Users\Filip\Eclipse\Template\Debug/../STM32F4xx_StdPeriph_Driver/src/stm32f4xx_rcc.c:1033
  */
void RCC_BackupResetCmd(FunctionalState NewState)
{
  /* Check the parameters */
  assert_param(IS_FUNCTIONAL_STATE(NewState));
  *(__IO uint32_t *) BDCR_BDRST_BB = (uint32_t)NewState;
 8000ea8:	4b01      	ldr	r3, [pc, #4]	; (8000eb0 <RCC_BackupResetCmd+0x8>)
 8000eaa:	6018      	str	r0, [r3, #0]
 8000eac:	4770      	bx	lr
 8000eae:	bf00      	nop
 8000eb0:	42470e40 	.word	0x42470e40

08000eb4 <RCC_I2SCLKConfig>:
RCC_I2SCLKConfig():
C:\Users\Filip\Eclipse\Template\Debug/../STM32F4xx_StdPeriph_Driver/src/stm32f4xx_rcc.c:1051
void RCC_I2SCLKConfig(uint32_t RCC_I2SCLKSource)
{
  /* Check the parameters */
  assert_param(IS_RCC_I2SCLK_SOURCE(RCC_I2SCLKSource));

  *(__IO uint32_t *) CFGR_I2SSRC_BB = RCC_I2SCLKSource;
 8000eb4:	4b01      	ldr	r3, [pc, #4]	; (8000ebc <RCC_I2SCLKConfig+0x8>)
 8000eb6:	6018      	str	r0, [r3, #0]
 8000eb8:	4770      	bx	lr
 8000eba:	bf00      	nop
 8000ebc:	4247015c 	.word	0x4247015c

08000ec0 <RCC_AHB1PeriphClockCmd>:
RCC_AHB1PeriphClockCmd():
C:\Users\Filip\Eclipse\Template\Debug/../STM32F4xx_StdPeriph_Driver/src/stm32f4xx_rcc.c:1091
{
  /* Check the parameters */
  assert_param(IS_RCC_AHB1_CLOCK_PERIPH(RCC_AHB1Periph));

  assert_param(IS_FUNCTIONAL_STATE(NewState));
  if (NewState != DISABLE)
 8000ec0:	b121      	cbz	r1, 8000ecc <RCC_AHB1PeriphClockCmd+0xc>
C:\Users\Filip\Eclipse\Template\Debug/../STM32F4xx_StdPeriph_Driver/src/stm32f4xx_rcc.c:1093
  {
    RCC->AHB1ENR |= RCC_AHB1Periph;
 8000ec2:	4b05      	ldr	r3, [pc, #20]	; (8000ed8 <RCC_AHB1PeriphClockCmd+0x18>)
 8000ec4:	6b1a      	ldr	r2, [r3, #48]	; 0x30
 8000ec6:	4310      	orrs	r0, r2
 8000ec8:	6318      	str	r0, [r3, #48]	; 0x30
 8000eca:	4770      	bx	lr
C:\Users\Filip\Eclipse\Template\Debug/../STM32F4xx_StdPeriph_Driver/src/stm32f4xx_rcc.c:1097
  }
  else
  {
    RCC->AHB1ENR &= ~RCC_AHB1Periph;
 8000ecc:	4b02      	ldr	r3, [pc, #8]	; (8000ed8 <RCC_AHB1PeriphClockCmd+0x18>)
 8000ece:	6b1a      	ldr	r2, [r3, #48]	; 0x30
 8000ed0:	ea22 0000 	bic.w	r0, r2, r0
 8000ed4:	6318      	str	r0, [r3, #48]	; 0x30
 8000ed6:	4770      	bx	lr
 8000ed8:	40023800 	.word	0x40023800

08000edc <RCC_AHB2PeriphClockCmd>:
RCC_AHB2PeriphClockCmd():
C:\Users\Filip\Eclipse\Template\Debug/../STM32F4xx_StdPeriph_Driver/src/stm32f4xx_rcc.c:1123
{
  /* Check the parameters */
  assert_param(IS_RCC_AHB2_PERIPH(RCC_AHB2Periph));
  assert_param(IS_FUNCTIONAL_STATE(NewState));

  if (NewState != DISABLE)
 8000edc:	b121      	cbz	r1, 8000ee8 <RCC_AHB2PeriphClockCmd+0xc>
C:\Users\Filip\Eclipse\Template\Debug/../STM32F4xx_StdPeriph_Driver/src/stm32f4xx_rcc.c:1125
  {
    RCC->AHB2ENR |= RCC_AHB2Periph;
 8000ede:	4b05      	ldr	r3, [pc, #20]	; (8000ef4 <RCC_AHB2PeriphClockCmd+0x18>)
 8000ee0:	6b5a      	ldr	r2, [r3, #52]	; 0x34
 8000ee2:	4310      	orrs	r0, r2
 8000ee4:	6358      	str	r0, [r3, #52]	; 0x34
 8000ee6:	4770      	bx	lr
C:\Users\Filip\Eclipse\Template\Debug/../STM32F4xx_StdPeriph_Driver/src/stm32f4xx_rcc.c:1129
  }
  else
  {
    RCC->AHB2ENR &= ~RCC_AHB2Periph;
 8000ee8:	4b02      	ldr	r3, [pc, #8]	; (8000ef4 <RCC_AHB2PeriphClockCmd+0x18>)
 8000eea:	6b5a      	ldr	r2, [r3, #52]	; 0x34
 8000eec:	ea22 0000 	bic.w	r0, r2, r0
 8000ef0:	6358      	str	r0, [r3, #52]	; 0x34
 8000ef2:	4770      	bx	lr
 8000ef4:	40023800 	.word	0x40023800

08000ef8 <RCC_AHB3PeriphClockCmd>:
RCC_AHB3PeriphClockCmd():
C:\Users\Filip\Eclipse\Template\Debug/../STM32F4xx_StdPeriph_Driver/src/stm32f4xx_rcc.c:1150
{
  /* Check the parameters */
  assert_param(IS_RCC_AHB3_PERIPH(RCC_AHB3Periph));  
  assert_param(IS_FUNCTIONAL_STATE(NewState));

  if (NewState != DISABLE)
 8000ef8:	b121      	cbz	r1, 8000f04 <RCC_AHB3PeriphClockCmd+0xc>
C:\Users\Filip\Eclipse\Template\Debug/../STM32F4xx_StdPeriph_Driver/src/stm32f4xx_rcc.c:1152
  {
    RCC->AHB3ENR |= RCC_AHB3Periph;
 8000efa:	4b05      	ldr	r3, [pc, #20]	; (8000f10 <RCC_AHB3PeriphClockCmd+0x18>)
 8000efc:	6b9a      	ldr	r2, [r3, #56]	; 0x38
 8000efe:	4310      	orrs	r0, r2
 8000f00:	6398      	str	r0, [r3, #56]	; 0x38
 8000f02:	4770      	bx	lr
C:\Users\Filip\Eclipse\Template\Debug/../STM32F4xx_StdPeriph_Driver/src/stm32f4xx_rcc.c:1156
  }
  else
  {
    RCC->AHB3ENR &= ~RCC_AHB3Periph;
 8000f04:	4b02      	ldr	r3, [pc, #8]	; (8000f10 <RCC_AHB3PeriphClockCmd+0x18>)
 8000f06:	6b9a      	ldr	r2, [r3, #56]	; 0x38
 8000f08:	ea22 0000 	bic.w	r0, r2, r0
 8000f0c:	6398      	str	r0, [r3, #56]	; 0x38
 8000f0e:	4770      	bx	lr
 8000f10:	40023800 	.word	0x40023800

08000f14 <RCC_APB1PeriphClockCmd>:
RCC_APB1PeriphClockCmd():
C:\Users\Filip\Eclipse\Template\Debug/../STM32F4xx_StdPeriph_Driver/src/stm32f4xx_rcc.c:1200
{
  /* Check the parameters */
  assert_param(IS_RCC_APB1_PERIPH(RCC_APB1Periph));  
  assert_param(IS_FUNCTIONAL_STATE(NewState));

  if (NewState != DISABLE)
 8000f14:	b121      	cbz	r1, 8000f20 <RCC_APB1PeriphClockCmd+0xc>
C:\Users\Filip\Eclipse\Template\Debug/../STM32F4xx_StdPeriph_Driver/src/stm32f4xx_rcc.c:1202
  {
    RCC->APB1ENR |= RCC_APB1Periph;
 8000f16:	4b05      	ldr	r3, [pc, #20]	; (8000f2c <RCC_APB1PeriphClockCmd+0x18>)
 8000f18:	6c1a      	ldr	r2, [r3, #64]	; 0x40
 8000f1a:	4310      	orrs	r0, r2
 8000f1c:	6418      	str	r0, [r3, #64]	; 0x40
 8000f1e:	4770      	bx	lr
C:\Users\Filip\Eclipse\Template\Debug/../STM32F4xx_StdPeriph_Driver/src/stm32f4xx_rcc.c:1206
  }
  else
  {
    RCC->APB1ENR &= ~RCC_APB1Periph;
 8000f20:	4b02      	ldr	r3, [pc, #8]	; (8000f2c <RCC_APB1PeriphClockCmd+0x18>)
 8000f22:	6c1a      	ldr	r2, [r3, #64]	; 0x40
 8000f24:	ea22 0000 	bic.w	r0, r2, r0
 8000f28:	6418      	str	r0, [r3, #64]	; 0x40
 8000f2a:	4770      	bx	lr
 8000f2c:	40023800 	.word	0x40023800

08000f30 <RCC_APB2PeriphClockCmd>:
RCC_APB2PeriphClockCmd():
C:\Users\Filip\Eclipse\Template\Debug/../STM32F4xx_StdPeriph_Driver/src/stm32f4xx_rcc.c:1240
{
  /* Check the parameters */
  assert_param(IS_RCC_APB2_PERIPH(RCC_APB2Periph));
  assert_param(IS_FUNCTIONAL_STATE(NewState));

  if (NewState != DISABLE)
 8000f30:	b121      	cbz	r1, 8000f3c <RCC_APB2PeriphClockCmd+0xc>
C:\Users\Filip\Eclipse\Template\Debug/../STM32F4xx_StdPeriph_Driver/src/stm32f4xx_rcc.c:1242
  {
    RCC->APB2ENR |= RCC_APB2Periph;
 8000f32:	4b05      	ldr	r3, [pc, #20]	; (8000f48 <RCC_APB2PeriphClockCmd+0x18>)
 8000f34:	6c5a      	ldr	r2, [r3, #68]	; 0x44
 8000f36:	4310      	orrs	r0, r2
 8000f38:	6458      	str	r0, [r3, #68]	; 0x44
 8000f3a:	4770      	bx	lr
C:\Users\Filip\Eclipse\Template\Debug/../STM32F4xx_StdPeriph_Driver/src/stm32f4xx_rcc.c:1246
  }
  else
  {
    RCC->APB2ENR &= ~RCC_APB2Periph;
 8000f3c:	4b02      	ldr	r3, [pc, #8]	; (8000f48 <RCC_APB2PeriphClockCmd+0x18>)
 8000f3e:	6c5a      	ldr	r2, [r3, #68]	; 0x44
 8000f40:	ea22 0000 	bic.w	r0, r2, r0
 8000f44:	6458      	str	r0, [r3, #68]	; 0x44
 8000f46:	4770      	bx	lr
 8000f48:	40023800 	.word	0x40023800

08000f4c <RCC_AHB1PeriphResetCmd>:
RCC_AHB1PeriphResetCmd():
C:\Users\Filip\Eclipse\Template\Debug/../STM32F4xx_StdPeriph_Driver/src/stm32f4xx_rcc.c:1279
{
  /* Check the parameters */
  assert_param(IS_RCC_AHB1_RESET_PERIPH(RCC_AHB1Periph));
  assert_param(IS_FUNCTIONAL_STATE(NewState));

  if (NewState != DISABLE)
 8000f4c:	b121      	cbz	r1, 8000f58 <RCC_AHB1PeriphResetCmd+0xc>
C:\Users\Filip\Eclipse\Template\Debug/../STM32F4xx_StdPeriph_Driver/src/stm32f4xx_rcc.c:1281
  {
    RCC->AHB1RSTR |= RCC_AHB1Periph;
 8000f4e:	4b05      	ldr	r3, [pc, #20]	; (8000f64 <RCC_AHB1PeriphResetCmd+0x18>)
 8000f50:	691a      	ldr	r2, [r3, #16]
 8000f52:	4310      	orrs	r0, r2
 8000f54:	6118      	str	r0, [r3, #16]
 8000f56:	4770      	bx	lr
C:\Users\Filip\Eclipse\Template\Debug/../STM32F4xx_StdPeriph_Driver/src/stm32f4xx_rcc.c:1285
  }
  else
  {
    RCC->AHB1RSTR &= ~RCC_AHB1Periph;
 8000f58:	4b02      	ldr	r3, [pc, #8]	; (8000f64 <RCC_AHB1PeriphResetCmd+0x18>)
 8000f5a:	691a      	ldr	r2, [r3, #16]
 8000f5c:	ea22 0000 	bic.w	r0, r2, r0
 8000f60:	6118      	str	r0, [r3, #16]
 8000f62:	4770      	bx	lr
 8000f64:	40023800 	.word	0x40023800

08000f68 <RCC_AHB2PeriphResetCmd>:
RCC_AHB2PeriphResetCmd():
C:\Users\Filip\Eclipse\Template\Debug/../STM32F4xx_StdPeriph_Driver/src/stm32f4xx_rcc.c:1308
{
  /* Check the parameters */
  assert_param(IS_RCC_AHB2_PERIPH(RCC_AHB2Periph));
  assert_param(IS_FUNCTIONAL_STATE(NewState));

  if (NewState != DISABLE)
 8000f68:	b121      	cbz	r1, 8000f74 <RCC_AHB2PeriphResetCmd+0xc>
C:\Users\Filip\Eclipse\Template\Debug/../STM32F4xx_StdPeriph_Driver/src/stm32f4xx_rcc.c:1310
  {
    RCC->AHB2RSTR |= RCC_AHB2Periph;
 8000f6a:	4b05      	ldr	r3, [pc, #20]	; (8000f80 <RCC_AHB2PeriphResetCmd+0x18>)
 8000f6c:	695a      	ldr	r2, [r3, #20]
 8000f6e:	4310      	orrs	r0, r2
 8000f70:	6158      	str	r0, [r3, #20]
 8000f72:	4770      	bx	lr
C:\Users\Filip\Eclipse\Template\Debug/../STM32F4xx_StdPeriph_Driver/src/stm32f4xx_rcc.c:1314
  }
  else
  {
    RCC->AHB2RSTR &= ~RCC_AHB2Periph;
 8000f74:	4b02      	ldr	r3, [pc, #8]	; (8000f80 <RCC_AHB2PeriphResetCmd+0x18>)
 8000f76:	695a      	ldr	r2, [r3, #20]
 8000f78:	ea22 0000 	bic.w	r0, r2, r0
 8000f7c:	6158      	str	r0, [r3, #20]
 8000f7e:	4770      	bx	lr
 8000f80:	40023800 	.word	0x40023800

08000f84 <RCC_AHB3PeriphResetCmd>:
RCC_AHB3PeriphResetCmd():
C:\Users\Filip\Eclipse\Template\Debug/../STM32F4xx_StdPeriph_Driver/src/stm32f4xx_rcc.c:1332
{
  /* Check the parameters */
  assert_param(IS_RCC_AHB3_PERIPH(RCC_AHB3Periph));
  assert_param(IS_FUNCTIONAL_STATE(NewState));

  if (NewState != DISABLE)
 8000f84:	b121      	cbz	r1, 8000f90 <RCC_AHB3PeriphResetCmd+0xc>
C:\Users\Filip\Eclipse\Template\Debug/../STM32F4xx_StdPeriph_Driver/src/stm32f4xx_rcc.c:1334
  {
    RCC->AHB3RSTR |= RCC_AHB3Periph;
 8000f86:	4b05      	ldr	r3, [pc, #20]	; (8000f9c <RCC_AHB3PeriphResetCmd+0x18>)
 8000f88:	699a      	ldr	r2, [r3, #24]
 8000f8a:	4310      	orrs	r0, r2
 8000f8c:	6198      	str	r0, [r3, #24]
 8000f8e:	4770      	bx	lr
C:\Users\Filip\Eclipse\Template\Debug/../STM32F4xx_StdPeriph_Driver/src/stm32f4xx_rcc.c:1338
  }
  else
  {
    RCC->AHB3RSTR &= ~RCC_AHB3Periph;
 8000f90:	4b02      	ldr	r3, [pc, #8]	; (8000f9c <RCC_AHB3PeriphResetCmd+0x18>)
 8000f92:	699a      	ldr	r2, [r3, #24]
 8000f94:	ea22 0000 	bic.w	r0, r2, r0
 8000f98:	6198      	str	r0, [r3, #24]
 8000f9a:	4770      	bx	lr
 8000f9c:	40023800 	.word	0x40023800

08000fa0 <RCC_APB1PeriphResetCmd>:
RCC_APB1PeriphResetCmd():
C:\Users\Filip\Eclipse\Template\Debug/../STM32F4xx_StdPeriph_Driver/src/stm32f4xx_rcc.c:1378
void RCC_APB1PeriphResetCmd(uint32_t RCC_APB1Periph, FunctionalState NewState)
{
  /* Check the parameters */
  assert_param(IS_RCC_APB1_PERIPH(RCC_APB1Periph));
  assert_param(IS_FUNCTIONAL_STATE(NewState));
  if (NewState != DISABLE)
 8000fa0:	b121      	cbz	r1, 8000fac <RCC_APB1PeriphResetCmd+0xc>
C:\Users\Filip\Eclipse\Template\Debug/../STM32F4xx_StdPeriph_Driver/src/stm32f4xx_rcc.c:1380
  {
    RCC->APB1RSTR |= RCC_APB1Periph;
 8000fa2:	4b05      	ldr	r3, [pc, #20]	; (8000fb8 <RCC_APB1PeriphResetCmd+0x18>)
 8000fa4:	6a1a      	ldr	r2, [r3, #32]
 8000fa6:	4310      	orrs	r0, r2
 8000fa8:	6218      	str	r0, [r3, #32]
 8000faa:	4770      	bx	lr
C:\Users\Filip\Eclipse\Template\Debug/../STM32F4xx_StdPeriph_Driver/src/stm32f4xx_rcc.c:1384
  }
  else
  {
    RCC->APB1RSTR &= ~RCC_APB1Periph;
 8000fac:	4b02      	ldr	r3, [pc, #8]	; (8000fb8 <RCC_APB1PeriphResetCmd+0x18>)
 8000fae:	6a1a      	ldr	r2, [r3, #32]
 8000fb0:	ea22 0000 	bic.w	r0, r2, r0
 8000fb4:	6218      	str	r0, [r3, #32]
 8000fb6:	4770      	bx	lr
 8000fb8:	40023800 	.word	0x40023800

08000fbc <RCC_APB2PeriphResetCmd>:
RCC_APB2PeriphResetCmd():
C:\Users\Filip\Eclipse\Template\Debug/../STM32F4xx_StdPeriph_Driver/src/stm32f4xx_rcc.c:1414
void RCC_APB2PeriphResetCmd(uint32_t RCC_APB2Periph, FunctionalState NewState)
{
  /* Check the parameters */
  assert_param(IS_RCC_APB2_RESET_PERIPH(RCC_APB2Periph));
  assert_param(IS_FUNCTIONAL_STATE(NewState));
  if (NewState != DISABLE)
 8000fbc:	b121      	cbz	r1, 8000fc8 <RCC_APB2PeriphResetCmd+0xc>
C:\Users\Filip\Eclipse\Template\Debug/../STM32F4xx_StdPeriph_Driver/src/stm32f4xx_rcc.c:1416
  {
    RCC->APB2RSTR |= RCC_APB2Periph;
 8000fbe:	4b05      	ldr	r3, [pc, #20]	; (8000fd4 <RCC_APB2PeriphResetCmd+0x18>)
 8000fc0:	6a5a      	ldr	r2, [r3, #36]	; 0x24
 8000fc2:	4310      	orrs	r0, r2
 8000fc4:	6258      	str	r0, [r3, #36]	; 0x24
 8000fc6:	4770      	bx	lr
C:\Users\Filip\Eclipse\Template\Debug/../STM32F4xx_StdPeriph_Driver/src/stm32f4xx_rcc.c:1420
  }
  else
  {
    RCC->APB2RSTR &= ~RCC_APB2Periph;
 8000fc8:	4b02      	ldr	r3, [pc, #8]	; (8000fd4 <RCC_APB2PeriphResetCmd+0x18>)
 8000fca:	6a5a      	ldr	r2, [r3, #36]	; 0x24
 8000fcc:	ea22 0000 	bic.w	r0, r2, r0
 8000fd0:	6258      	str	r0, [r3, #36]	; 0x24
 8000fd2:	4770      	bx	lr
 8000fd4:	40023800 	.word	0x40023800

08000fd8 <RCC_AHB1PeriphClockLPModeCmd>:
RCC_AHB1PeriphClockLPModeCmd():
C:\Users\Filip\Eclipse\Template\Debug/../STM32F4xx_StdPeriph_Driver/src/stm32f4xx_rcc.c:1460
void RCC_AHB1PeriphClockLPModeCmd(uint32_t RCC_AHB1Periph, FunctionalState NewState)
{
  /* Check the parameters */
  assert_param(IS_RCC_AHB1_LPMODE_PERIPH(RCC_AHB1Periph));
  assert_param(IS_FUNCTIONAL_STATE(NewState));
  if (NewState != DISABLE)
 8000fd8:	b121      	cbz	r1, 8000fe4 <RCC_AHB1PeriphClockLPModeCmd+0xc>
C:\Users\Filip\Eclipse\Template\Debug/../STM32F4xx_StdPeriph_Driver/src/stm32f4xx_rcc.c:1462
  {
    RCC->AHB1LPENR |= RCC_AHB1Periph;
 8000fda:	4b05      	ldr	r3, [pc, #20]	; (8000ff0 <RCC_AHB1PeriphClockLPModeCmd+0x18>)
 8000fdc:	6d1a      	ldr	r2, [r3, #80]	; 0x50
 8000fde:	4310      	orrs	r0, r2
 8000fe0:	6518      	str	r0, [r3, #80]	; 0x50
 8000fe2:	4770      	bx	lr
C:\Users\Filip\Eclipse\Template\Debug/../STM32F4xx_StdPeriph_Driver/src/stm32f4xx_rcc.c:1466
  }
  else
  {
    RCC->AHB1LPENR &= ~RCC_AHB1Periph;
 8000fe4:	4b02      	ldr	r3, [pc, #8]	; (8000ff0 <RCC_AHB1PeriphClockLPModeCmd+0x18>)
 8000fe6:	6d1a      	ldr	r2, [r3, #80]	; 0x50
 8000fe8:	ea22 0000 	bic.w	r0, r2, r0
 8000fec:	6518      	str	r0, [r3, #80]	; 0x50
 8000fee:	4770      	bx	lr
 8000ff0:	40023800 	.word	0x40023800

08000ff4 <RCC_AHB2PeriphClockLPModeCmd>:
RCC_AHB2PeriphClockLPModeCmd():
C:\Users\Filip\Eclipse\Template\Debug/../STM32F4xx_StdPeriph_Driver/src/stm32f4xx_rcc.c:1492
void RCC_AHB2PeriphClockLPModeCmd(uint32_t RCC_AHB2Periph, FunctionalState NewState)
{
  /* Check the parameters */
  assert_param(IS_RCC_AHB2_PERIPH(RCC_AHB2Periph));
  assert_param(IS_FUNCTIONAL_STATE(NewState));
  if (NewState != DISABLE)
 8000ff4:	b121      	cbz	r1, 8001000 <RCC_AHB2PeriphClockLPModeCmd+0xc>
C:\Users\Filip\Eclipse\Template\Debug/../STM32F4xx_StdPeriph_Driver/src/stm32f4xx_rcc.c:1494
  {
    RCC->AHB2LPENR |= RCC_AHB2Periph;
 8000ff6:	4b05      	ldr	r3, [pc, #20]	; (800100c <RCC_AHB2PeriphClockLPModeCmd+0x18>)
 8000ff8:	6d5a      	ldr	r2, [r3, #84]	; 0x54
 8000ffa:	4310      	orrs	r0, r2
 8000ffc:	6558      	str	r0, [r3, #84]	; 0x54
 8000ffe:	4770      	bx	lr
C:\Users\Filip\Eclipse\Template\Debug/../STM32F4xx_StdPeriph_Driver/src/stm32f4xx_rcc.c:1498
  }
  else
  {
    RCC->AHB2LPENR &= ~RCC_AHB2Periph;
 8001000:	4b02      	ldr	r3, [pc, #8]	; (800100c <RCC_AHB2PeriphClockLPModeCmd+0x18>)
 8001002:	6d5a      	ldr	r2, [r3, #84]	; 0x54
 8001004:	ea22 0000 	bic.w	r0, r2, r0
 8001008:	6558      	str	r0, [r3, #84]	; 0x54
 800100a:	4770      	bx	lr
 800100c:	40023800 	.word	0x40023800

08001010 <RCC_AHB3PeriphClockLPModeCmd>:
RCC_AHB3PeriphClockLPModeCmd():
C:\Users\Filip\Eclipse\Template\Debug/../STM32F4xx_StdPeriph_Driver/src/stm32f4xx_rcc.c:1519
void RCC_AHB3PeriphClockLPModeCmd(uint32_t RCC_AHB3Periph, FunctionalState NewState)
{
  /* Check the parameters */
  assert_param(IS_RCC_AHB3_PERIPH(RCC_AHB3Periph));
  assert_param(IS_FUNCTIONAL_STATE(NewState));
  if (NewState != DISABLE)
 8001010:	b121      	cbz	r1, 800101c <RCC_AHB3PeriphClockLPModeCmd+0xc>
C:\Users\Filip\Eclipse\Template\Debug/../STM32F4xx_StdPeriph_Driver/src/stm32f4xx_rcc.c:1521
  {
    RCC->AHB3LPENR |= RCC_AHB3Periph;
 8001012:	4b05      	ldr	r3, [pc, #20]	; (8001028 <RCC_AHB3PeriphClockLPModeCmd+0x18>)
 8001014:	6d9a      	ldr	r2, [r3, #88]	; 0x58
 8001016:	4310      	orrs	r0, r2
 8001018:	6598      	str	r0, [r3, #88]	; 0x58
 800101a:	4770      	bx	lr
C:\Users\Filip\Eclipse\Template\Debug/../STM32F4xx_StdPeriph_Driver/src/stm32f4xx_rcc.c:1525
  }
  else
  {
    RCC->AHB3LPENR &= ~RCC_AHB3Periph;
 800101c:	4b02      	ldr	r3, [pc, #8]	; (8001028 <RCC_AHB3PeriphClockLPModeCmd+0x18>)
 800101e:	6d9a      	ldr	r2, [r3, #88]	; 0x58
 8001020:	ea22 0000 	bic.w	r0, r2, r0
 8001024:	6598      	str	r0, [r3, #88]	; 0x58
 8001026:	4770      	bx	lr
 8001028:	40023800 	.word	0x40023800

0800102c <RCC_APB1PeriphClockLPModeCmd>:
RCC_APB1PeriphClockLPModeCmd():
C:\Users\Filip\Eclipse\Template\Debug/../STM32F4xx_StdPeriph_Driver/src/stm32f4xx_rcc.c:1569
void RCC_APB1PeriphClockLPModeCmd(uint32_t RCC_APB1Periph, FunctionalState NewState)
{
  /* Check the parameters */
  assert_param(IS_RCC_APB1_PERIPH(RCC_APB1Periph));
  assert_param(IS_FUNCTIONAL_STATE(NewState));
  if (NewState != DISABLE)
 800102c:	b121      	cbz	r1, 8001038 <RCC_APB1PeriphClockLPModeCmd+0xc>
C:\Users\Filip\Eclipse\Template\Debug/../STM32F4xx_StdPeriph_Driver/src/stm32f4xx_rcc.c:1571
  {
    RCC->APB1LPENR |= RCC_APB1Periph;
 800102e:	4b05      	ldr	r3, [pc, #20]	; (8001044 <RCC_APB1PeriphClockLPModeCmd+0x18>)
 8001030:	6e1a      	ldr	r2, [r3, #96]	; 0x60
 8001032:	4310      	orrs	r0, r2
 8001034:	6618      	str	r0, [r3, #96]	; 0x60
 8001036:	4770      	bx	lr
C:\Users\Filip\Eclipse\Template\Debug/../STM32F4xx_StdPeriph_Driver/src/stm32f4xx_rcc.c:1575
  }
  else
  {
    RCC->APB1LPENR &= ~RCC_APB1Periph;
 8001038:	4b02      	ldr	r3, [pc, #8]	; (8001044 <RCC_APB1PeriphClockLPModeCmd+0x18>)
 800103a:	6e1a      	ldr	r2, [r3, #96]	; 0x60
 800103c:	ea22 0000 	bic.w	r0, r2, r0
 8001040:	6618      	str	r0, [r3, #96]	; 0x60
 8001042:	4770      	bx	lr
 8001044:	40023800 	.word	0x40023800

08001048 <RCC_APB2PeriphClockLPModeCmd>:
RCC_APB2PeriphClockLPModeCmd():
C:\Users\Filip\Eclipse\Template\Debug/../STM32F4xx_StdPeriph_Driver/src/stm32f4xx_rcc.c:1609
void RCC_APB2PeriphClockLPModeCmd(uint32_t RCC_APB2Periph, FunctionalState NewState)
{
  /* Check the parameters */
  assert_param(IS_RCC_APB2_PERIPH(RCC_APB2Periph));
  assert_param(IS_FUNCTIONAL_STATE(NewState));
  if (NewState != DISABLE)
 8001048:	b121      	cbz	r1, 8001054 <RCC_APB2PeriphClockLPModeCmd+0xc>
C:\Users\Filip\Eclipse\Template\Debug/../STM32F4xx_StdPeriph_Driver/src/stm32f4xx_rcc.c:1611
  {
    RCC->APB2LPENR |= RCC_APB2Periph;
 800104a:	4b05      	ldr	r3, [pc, #20]	; (8001060 <RCC_APB2PeriphClockLPModeCmd+0x18>)
 800104c:	6e5a      	ldr	r2, [r3, #100]	; 0x64
 800104e:	4310      	orrs	r0, r2
 8001050:	6658      	str	r0, [r3, #100]	; 0x64
 8001052:	4770      	bx	lr
C:\Users\Filip\Eclipse\Template\Debug/../STM32F4xx_StdPeriph_Driver/src/stm32f4xx_rcc.c:1615
  }
  else
  {
    RCC->APB2LPENR &= ~RCC_APB2Periph;
 8001054:	4b02      	ldr	r3, [pc, #8]	; (8001060 <RCC_APB2PeriphClockLPModeCmd+0x18>)
 8001056:	6e5a      	ldr	r2, [r3, #100]	; 0x64
 8001058:	ea22 0000 	bic.w	r0, r2, r0
 800105c:	6658      	str	r0, [r3, #100]	; 0x64
 800105e:	4770      	bx	lr
 8001060:	40023800 	.word	0x40023800

08001064 <RCC_ITConfig>:
RCC_ITConfig():
C:\Users\Filip\Eclipse\Template\Debug/../STM32F4xx_StdPeriph_Driver/src/stm32f4xx_rcc.c:1654
void RCC_ITConfig(uint8_t RCC_IT, FunctionalState NewState)
{
  /* Check the parameters */
  assert_param(IS_RCC_IT(RCC_IT));
  assert_param(IS_FUNCTIONAL_STATE(NewState));
  if (NewState != DISABLE)
 8001064:	b121      	cbz	r1, 8001070 <RCC_ITConfig+0xc>
C:\Users\Filip\Eclipse\Template\Debug/../STM32F4xx_StdPeriph_Driver/src/stm32f4xx_rcc.c:1657
  {
    /* Perform Byte access to RCC_CIR[14:8] bits to enable the selected interrupts */
    *(__IO uint8_t *) CIR_BYTE2_ADDRESS |= RCC_IT;
 8001066:	4b05      	ldr	r3, [pc, #20]	; (800107c <RCC_ITConfig+0x18>)
 8001068:	781a      	ldrb	r2, [r3, #0]
 800106a:	4310      	orrs	r0, r2
 800106c:	7018      	strb	r0, [r3, #0]
 800106e:	4770      	bx	lr
C:\Users\Filip\Eclipse\Template\Debug/../STM32F4xx_StdPeriph_Driver/src/stm32f4xx_rcc.c:1662
  }
  else
  {
    /* Perform Byte access to RCC_CIR[14:8] bits to disable the selected interrupts */
    *(__IO uint8_t *) CIR_BYTE2_ADDRESS &= (uint8_t)~RCC_IT;
 8001070:	4b02      	ldr	r3, [pc, #8]	; (800107c <RCC_ITConfig+0x18>)
 8001072:	781a      	ldrb	r2, [r3, #0]
 8001074:	ea22 0000 	bic.w	r0, r2, r0
 8001078:	7018      	strb	r0, [r3, #0]
 800107a:	4770      	bx	lr
 800107c:	4002380d 	.word	0x4002380d

08001080 <RCC_GetFlagStatus>:
RCC_GetFlagStatus():
C:\Users\Filip\Eclipse\Template\Debug/../STM32F4xx_StdPeriph_Driver/src/stm32f4xx_rcc.c:1695

  /* Check the parameters */
  assert_param(IS_RCC_FLAG(RCC_FLAG));

  /* Get the RCC register index */
  tmp = RCC_FLAG >> 5;
 8001080:	0943      	lsrs	r3, r0, #5
C:\Users\Filip\Eclipse\Template\Debug/../STM32F4xx_StdPeriph_Driver/src/stm32f4xx_rcc.c:1696
  if (tmp == 1)               /* The flag to check is in CR register */
 8001082:	2b01      	cmp	r3, #1
 8001084:	d102      	bne.n	800108c <RCC_GetFlagStatus+0xc>
C:\Users\Filip\Eclipse\Template\Debug/../STM32F4xx_StdPeriph_Driver/src/stm32f4xx_rcc.c:1698
  {
    statusreg = RCC->CR;
 8001086:	4b07      	ldr	r3, [pc, #28]	; (80010a4 <RCC_GetFlagStatus+0x24>)
 8001088:	681b      	ldr	r3, [r3, #0]
 800108a:	e004      	b.n	8001096 <RCC_GetFlagStatus+0x16>
C:\Users\Filip\Eclipse\Template\Debug/../STM32F4xx_StdPeriph_Driver/src/stm32f4xx_rcc.c:1700
  }
  else if (tmp == 2)          /* The flag to check is in BDCR register */
 800108c:	2b02      	cmp	r3, #2
C:\Users\Filip\Eclipse\Template\Debug/../STM32F4xx_StdPeriph_Driver/src/stm32f4xx_rcc.c:1702
  {
    statusreg = RCC->BDCR;
 800108e:	4b05      	ldr	r3, [pc, #20]	; (80010a4 <RCC_GetFlagStatus+0x24>)
 8001090:	bf0c      	ite	eq
 8001092:	6f1b      	ldreq	r3, [r3, #112]	; 0x70
C:\Users\Filip\Eclipse\Template\Debug/../STM32F4xx_StdPeriph_Driver/src/stm32f4xx_rcc.c:1706
  }
  else                       /* The flag to check is in CSR register */
  {
    statusreg = RCC->CSR;
 8001094:	6f5b      	ldrne	r3, [r3, #116]	; 0x74
C:\Users\Filip\Eclipse\Template\Debug/../STM32F4xx_StdPeriph_Driver/src/stm32f4xx_rcc.c:1710
  }

  /* Get the flag position */
  tmp = RCC_FLAG & FLAG_MASK;
 8001096:	f000 001f 	and.w	r0, r0, #31
C:\Users\Filip\Eclipse\Template\Debug/../STM32F4xx_StdPeriph_Driver/src/stm32f4xx_rcc.c:1711
  if ((statusreg & ((uint32_t)1 << tmp)) != (uint32_t)RESET)
 800109a:	fa23 f000 	lsr.w	r0, r3, r0
 800109e:	f000 0001 	and.w	r0, r0, #1
C:\Users\Filip\Eclipse\Template\Debug/../STM32F4xx_StdPeriph_Driver/src/stm32f4xx_rcc.c:1721
  {
    bitstatus = RESET;
  }
  /* Return the flag status */
  return bitstatus;
}
 80010a2:	4770      	bx	lr
 80010a4:	40023800 	.word	0x40023800

080010a8 <RCC_WaitForHSEStartUp>:
RCC_WaitForHSEStartUp():
C:\Users\Filip\Eclipse\Template\Debug/../STM32F4xx_StdPeriph_Driver/src/stm32f4xx_rcc.c:262
  * @retval An ErrorStatus enumeration value:
  *          - SUCCESS: HSE oscillator is stable and ready to use
  *          - ERROR: HSE oscillator not yet ready
  */
ErrorStatus RCC_WaitForHSEStartUp(void)
{
 80010a8:	b510      	push	{r4, lr}
 80010aa:	b082      	sub	sp, #8
C:\Users\Filip\Eclipse\Template\Debug/../STM32F4xx_StdPeriph_Driver/src/stm32f4xx_rcc.c:263
  __IO uint32_t startupcounter = 0;
 80010ac:	2300      	movs	r3, #0
 80010ae:	9301      	str	r3, [sp, #4]
C:\Users\Filip\Eclipse\Template\Debug/../STM32F4xx_StdPeriph_Driver/src/stm32f4xx_rcc.c:269
  ErrorStatus status = ERROR;
  FlagStatus hsestatus = RESET;
  /* Wait till HSE is ready and if Time out is reached exit */
  do
  {
    hsestatus = RCC_GetFlagStatus(RCC_FLAG_HSERDY);
 80010b0:	2431      	movs	r4, #49	; 0x31
C:\Users\Filip\Eclipse\Template\Debug/../STM32F4xx_StdPeriph_Driver/src/stm32f4xx_rcc.c:269 (discriminator 1)
 80010b2:	4620      	mov	r0, r4
 80010b4:	f7ff ffe4 	bl	8001080 <RCC_GetFlagStatus>
C:\Users\Filip\Eclipse\Template\Debug/../STM32F4xx_StdPeriph_Driver/src/stm32f4xx_rcc.c:270 (discriminator 1)
    startupcounter++;
 80010b8:	9b01      	ldr	r3, [sp, #4]
 80010ba:	3301      	adds	r3, #1
 80010bc:	9301      	str	r3, [sp, #4]
C:\Users\Filip\Eclipse\Template\Debug/../STM32F4xx_StdPeriph_Driver/src/stm32f4xx_rcc.c:271 (discriminator 1)
  } while((startupcounter != HSE_STARTUP_TIMEOUT) && (hsestatus == RESET));
 80010be:	9b01      	ldr	r3, [sp, #4]
 80010c0:	f5b3 6fa0 	cmp.w	r3, #1280	; 0x500
 80010c4:	d001      	beq.n	80010ca <RCC_WaitForHSEStartUp+0x22>
 80010c6:	2800      	cmp	r0, #0
 80010c8:	d0f3      	beq.n	80010b2 <RCC_WaitForHSEStartUp+0xa>
C:\Users\Filip\Eclipse\Template\Debug/../STM32F4xx_StdPeriph_Driver/src/stm32f4xx_rcc.c:273

  if (RCC_GetFlagStatus(RCC_FLAG_HSERDY) != RESET)
 80010ca:	2031      	movs	r0, #49	; 0x31
 80010cc:	f7ff ffd8 	bl	8001080 <RCC_GetFlagStatus>
C:\Users\Filip\Eclipse\Template\Debug/../STM32F4xx_StdPeriph_Driver/src/stm32f4xx_rcc.c:282
  else
  {
    status = ERROR;
  }
  return (status);
}
 80010d0:	3000      	adds	r0, #0
 80010d2:	bf18      	it	ne
 80010d4:	2001      	movne	r0, #1
 80010d6:	b002      	add	sp, #8
 80010d8:	bd10      	pop	{r4, pc}
 80010da:	bf00      	nop

080010dc <RCC_ClearFlag>:
RCC_ClearFlag():
C:\Users\Filip\Eclipse\Template\Debug/../STM32F4xx_StdPeriph_Driver/src/stm32f4xx_rcc.c:1733
  * @retval None
  */
void RCC_ClearFlag(void)
{
  /* Set RMVF bit to clear the reset flags */
  RCC->CSR |= RCC_CSR_RMVF;
 80010dc:	4b02      	ldr	r3, [pc, #8]	; (80010e8 <RCC_ClearFlag+0xc>)
 80010de:	6f5a      	ldr	r2, [r3, #116]	; 0x74
 80010e0:	f042 7280 	orr.w	r2, r2, #16777216	; 0x1000000
 80010e4:	675a      	str	r2, [r3, #116]	; 0x74
 80010e6:	4770      	bx	lr
 80010e8:	40023800 	.word	0x40023800

080010ec <RCC_GetITStatus>:
RCC_GetITStatus():
C:\Users\Filip\Eclipse\Template\Debug/../STM32F4xx_StdPeriph_Driver/src/stm32f4xx_rcc.c:1757

  /* Check the parameters */
  assert_param(IS_RCC_GET_IT(RCC_IT));

  /* Check the status of the specified RCC interrupt */
  if ((RCC->CIR & RCC_IT) != (uint32_t)RESET)
 80010ec:	4b03      	ldr	r3, [pc, #12]	; (80010fc <RCC_GetITStatus+0x10>)
 80010ee:	68db      	ldr	r3, [r3, #12]
 80010f0:	4018      	ands	r0, r3
C:\Users\Filip\Eclipse\Template\Debug/../STM32F4xx_StdPeriph_Driver/src/stm32f4xx_rcc.c:1767
  {
    bitstatus = RESET;
  }
  /* Return the RCC_IT status */
  return  bitstatus;
}
 80010f2:	3000      	adds	r0, #0
 80010f4:	bf18      	it	ne
 80010f6:	2001      	movne	r0, #1
 80010f8:	4770      	bx	lr
 80010fa:	bf00      	nop
 80010fc:	40023800 	.word	0x40023800

08001100 <RCC_ClearITPendingBit>:
RCC_ClearITPendingBit():
C:\Users\Filip\Eclipse\Template\Debug/../STM32F4xx_StdPeriph_Driver/src/stm32f4xx_rcc.c:1789
  /* Check the parameters */
  assert_param(IS_RCC_CLEAR_IT(RCC_IT));

  /* Perform Byte access to RCC_CIR[23:16] bits to clear the selected interrupt
     pending bits */
  *(__IO uint8_t *) CIR_BYTE3_ADDRESS = RCC_IT;
 8001100:	4b01      	ldr	r3, [pc, #4]	; (8001108 <RCC_ClearITPendingBit+0x8>)
 8001102:	7018      	strb	r0, [r3, #0]
 8001104:	4770      	bx	lr
 8001106:	bf00      	nop
 8001108:	4002380e 	.word	0x4002380e

0800110c <SYSCFG_DeInit>:
SYSCFG_DeInit():
C:\Users\Filip\Eclipse\Template\Debug/../STM32F4xx_StdPeriph_Driver/src/stm32f4xx_syscfg.c:87
  *   registers to their default reset values.
  * @param  None
  * @retval None
  */
void SYSCFG_DeInit(void)
{
 800110c:	b508      	push	{r3, lr}
C:\Users\Filip\Eclipse\Template\Debug/../STM32F4xx_StdPeriph_Driver/src/stm32f4xx_syscfg.c:88
   RCC_APB2PeriphResetCmd(RCC_APB2Periph_SYSCFG, ENABLE);
 800110e:	f44f 4080 	mov.w	r0, #16384	; 0x4000
 8001112:	2101      	movs	r1, #1
 8001114:	f7ff ff52 	bl	8000fbc <RCC_APB2PeriphResetCmd>
C:\Users\Filip\Eclipse\Template\Debug/../STM32F4xx_StdPeriph_Driver/src/stm32f4xx_syscfg.c:89
   RCC_APB2PeriphResetCmd(RCC_APB2Periph_SYSCFG, DISABLE);
 8001118:	f44f 4080 	mov.w	r0, #16384	; 0x4000
 800111c:	2100      	movs	r1, #0
 800111e:	f7ff ff4d 	bl	8000fbc <RCC_APB2PeriphResetCmd>
 8001122:	bd08      	pop	{r3, pc}

08001124 <SYSCFG_MemoryRemapConfig>:
SYSCFG_MemoryRemapConfig():
C:\Users\Filip\Eclipse\Template\Debug/../STM32F4xx_StdPeriph_Driver/src/stm32f4xx_syscfg.c:107
void SYSCFG_MemoryRemapConfig(uint8_t SYSCFG_MemoryRemap)
{
  /* Check the parameters */
  assert_param(IS_SYSCFG_MEMORY_REMAP_CONFING(SYSCFG_MemoryRemap));

  SYSCFG->MEMRMP = SYSCFG_MemoryRemap;
 8001124:	4b01      	ldr	r3, [pc, #4]	; (800112c <SYSCFG_MemoryRemapConfig+0x8>)
 8001126:	6018      	str	r0, [r3, #0]
 8001128:	4770      	bx	lr
 800112a:	bf00      	nop
 800112c:	40013800 	.word	0x40013800

08001130 <SYSCFG_EXTILineConfig>:
SYSCFG_EXTILineConfig():
C:\Users\Filip\Eclipse\Template\Debug/../STM32F4xx_StdPeriph_Driver/src/stm32f4xx_syscfg.c:120
  *           This parameter can be EXTI_PinSourcex where x can be (0..15, except
  *           for EXTI_PortSourceGPIOI x can be (0..11).
  * @retval None
  */
void SYSCFG_EXTILineConfig(uint8_t EXTI_PortSourceGPIOx, uint8_t EXTI_PinSourcex)
{
 8001130:	b430      	push	{r4, r5}
C:\Users\Filip\Eclipse\Template\Debug/../STM32F4xx_StdPeriph_Driver/src/stm32f4xx_syscfg.c:127

  /* Check the parameters */
  assert_param(IS_EXTI_PORT_SOURCE(EXTI_PortSourceGPIOx));
  assert_param(IS_EXTI_PIN_SOURCE(EXTI_PinSourcex));

  tmp = ((uint32_t)0x0F) << (0x04 * (EXTI_PinSourcex & (uint8_t)0x03));
 8001132:	f001 0203 	and.w	r2, r1, #3
 8001136:	0092      	lsls	r2, r2, #2
 8001138:	240f      	movs	r4, #15
 800113a:	4094      	lsls	r4, r2
C:\Users\Filip\Eclipse\Template\Debug/../STM32F4xx_StdPeriph_Driver/src/stm32f4xx_syscfg.c:128
  SYSCFG->EXTICR[EXTI_PinSourcex >> 0x02] &= ~tmp;
 800113c:	0889      	lsrs	r1, r1, #2
 800113e:	4b08      	ldr	r3, [pc, #32]	; (8001160 <SYSCFG_EXTILineConfig+0x30>)
 8001140:	3102      	adds	r1, #2
 8001142:	f853 5021 	ldr.w	r5, [r3, r1, lsl #2]
 8001146:	ea25 0404 	bic.w	r4, r5, r4
 800114a:	f843 4021 	str.w	r4, [r3, r1, lsl #2]
C:\Users\Filip\Eclipse\Template\Debug/../STM32F4xx_StdPeriph_Driver/src/stm32f4xx_syscfg.c:129
  SYSCFG->EXTICR[EXTI_PinSourcex >> 0x02] |= (((uint32_t)EXTI_PortSourceGPIOx) << (0x04 * (EXTI_PinSourcex & (uint8_t)0x03)));
 800114e:	f853 4021 	ldr.w	r4, [r3, r1, lsl #2]
 8001152:	4090      	lsls	r0, r2
 8001154:	4304      	orrs	r4, r0
 8001156:	f843 4021 	str.w	r4, [r3, r1, lsl #2]
C:\Users\Filip\Eclipse\Template\Debug/../STM32F4xx_StdPeriph_Driver/src/stm32f4xx_syscfg.c:130
}
 800115a:	bc30      	pop	{r4, r5}
 800115c:	4770      	bx	lr
 800115e:	bf00      	nop
 8001160:	40013800 	.word	0x40013800

08001164 <SYSCFG_ETH_MediaInterfaceConfig>:
SYSCFG_ETH_MediaInterfaceConfig():
C:\Users\Filip\Eclipse\Template\Debug/../STM32F4xx_StdPeriph_Driver/src/stm32f4xx_syscfg.c:144
  */
void SYSCFG_ETH_MediaInterfaceConfig(uint32_t SYSCFG_ETH_MediaInterface) 
{ 
  assert_param(IS_SYSCFG_ETH_MEDIA_INTERFACE(SYSCFG_ETH_MediaInterface)); 
  /* Configure MII_RMII selection bit */ 
  *(__IO uint32_t *) PMC_MII_RMII_SEL_BB = SYSCFG_ETH_MediaInterface; 
 8001164:	4b01      	ldr	r3, [pc, #4]	; (800116c <SYSCFG_ETH_MediaInterfaceConfig+0x8>)
 8001166:	6018      	str	r0, [r3, #0]
 8001168:	4770      	bx	lr
 800116a:	bf00      	nop
 800116c:	422700dc 	.word	0x422700dc

08001170 <SYSCFG_CompensationCellCmd>:
SYSCFG_CompensationCellCmd():
C:\Users\Filip\Eclipse\Template\Debug/../STM32F4xx_StdPeriph_Driver/src/stm32f4xx_syscfg.c:162
void SYSCFG_CompensationCellCmd(FunctionalState NewState)
{
  /* Check the parameters */
  assert_param(IS_FUNCTIONAL_STATE(NewState));

  *(__IO uint32_t *) CMPCR_CMP_PD_BB = (uint32_t)NewState;
 8001170:	4b01      	ldr	r3, [pc, #4]	; (8001178 <SYSCFG_CompensationCellCmd+0x8>)
 8001172:	6018      	str	r0, [r3, #0]
 8001174:	4770      	bx	lr
 8001176:	bf00      	nop
 8001178:	42270400 	.word	0x42270400

0800117c <SYSCFG_GetCompensationCellStatus>:
SYSCFG_GetCompensationCellStatus():
C:\Users\Filip\Eclipse\Template\Debug/../STM32F4xx_StdPeriph_Driver/src/stm32f4xx_syscfg.c:174
  */
FlagStatus SYSCFG_GetCompensationCellStatus(void)
{
  FlagStatus bitstatus = RESET;
    
  if ((SYSCFG->CMPCR & SYSCFG_CMPCR_READY ) != (uint32_t)RESET)
 800117c:	4b03      	ldr	r3, [pc, #12]	; (800118c <SYSCFG_GetCompensationCellStatus+0x10>)
 800117e:	6a18      	ldr	r0, [r3, #32]
 8001180:	f400 7080 	and.w	r0, r0, #256	; 0x100
C:\Users\Filip\Eclipse\Template\Debug/../STM32F4xx_StdPeriph_Driver/src/stm32f4xx_syscfg.c:183
  else
  {
    bitstatus = RESET;
  }
  return bitstatus;
}
 8001184:	3000      	adds	r0, #0
 8001186:	bf18      	it	ne
 8001188:	2001      	movne	r0, #1
 800118a:	4770      	bx	lr
 800118c:	40013800 	.word	0x40013800

08001190 <TI1_Config>:
TI1_Config():
C:\Users\Filip\Eclipse\Template\Debug/../STM32F4xx_StdPeriph_Driver/src/stm32f4xx_tim.c:3193
  *          This parameter must be a value between 0x00 and 0x0F.
  * @retval None
  */
static void TI1_Config(TIM_TypeDef* TIMx, uint16_t TIM_ICPolarity, uint16_t TIM_ICSelection,
                       uint16_t TIM_ICFilter)
{
 8001190:	b430      	push	{r4, r5}
C:\Users\Filip\Eclipse\Template\Debug/../STM32F4xx_StdPeriph_Driver/src/stm32f4xx_tim.c:3197
  uint16_t tmpccmr1 = 0, tmpccer = 0;

  /* Disable the Channel 1: Reset the CC1E Bit */
  TIMx->CCER &= (uint16_t)~TIM_CCER_CC1E;
 8001192:	8c04      	ldrh	r4, [r0, #32]
 8001194:	f024 0401 	bic.w	r4, r4, #1
 8001198:	0424      	lsls	r4, r4, #16
 800119a:	0c24      	lsrs	r4, r4, #16
 800119c:	8404      	strh	r4, [r0, #32]
C:\Users\Filip\Eclipse\Template\Debug/../STM32F4xx_StdPeriph_Driver/src/stm32f4xx_tim.c:3198
  tmpccmr1 = TIMx->CCMR1;
 800119e:	8b04      	ldrh	r4, [r0, #24]
C:\Users\Filip\Eclipse\Template\Debug/../STM32F4xx_StdPeriph_Driver/src/stm32f4xx_tim.c:3199
  tmpccer = TIMx->CCER;
 80011a0:	8c05      	ldrh	r5, [r0, #32]
C:\Users\Filip\Eclipse\Template\Debug/../STM32F4xx_StdPeriph_Driver/src/stm32f4xx_tim.c:3202

  /* Select the Input and set the filter */
  tmpccmr1 &= ((uint16_t)~TIM_CCMR1_CC1S) & ((uint16_t)~TIM_CCMR1_IC1F);
 80011a2:	f024 04f3 	bic.w	r4, r4, #243	; 0xf3
 80011a6:	0424      	lsls	r4, r4, #16
 80011a8:	0c24      	lsrs	r4, r4, #16
C:\Users\Filip\Eclipse\Template\Debug/../STM32F4xx_StdPeriph_Driver/src/stm32f4xx_tim.c:3203
  tmpccmr1 |= (uint16_t)(TIM_ICSelection | (uint16_t)(TIM_ICFilter << (uint16_t)4));
 80011aa:	011b      	lsls	r3, r3, #4
 80011ac:	b29b      	uxth	r3, r3
 80011ae:	431a      	orrs	r2, r3
 80011b0:	4314      	orrs	r4, r2
C:\Users\Filip\Eclipse\Template\Debug/../STM32F4xx_StdPeriph_Driver/src/stm32f4xx_tim.c:3206

  /* Select the Polarity and set the CC1E Bit */
  tmpccer &= (uint16_t)~(TIM_CCER_CC1P | TIM_CCER_CC1NP);
 80011b2:	f025 030a 	bic.w	r3, r5, #10
 80011b6:	041b      	lsls	r3, r3, #16
 80011b8:	0c1b      	lsrs	r3, r3, #16
C:\Users\Filip\Eclipse\Template\Debug/../STM32F4xx_StdPeriph_Driver/src/stm32f4xx_tim.c:3207
  tmpccer |= (uint16_t)(TIM_ICPolarity | (uint16_t)TIM_CCER_CC1E);
 80011ba:	4319      	orrs	r1, r3
 80011bc:	f041 0301 	orr.w	r3, r1, #1
C:\Users\Filip\Eclipse\Template\Debug/../STM32F4xx_StdPeriph_Driver/src/stm32f4xx_tim.c:3210

  /* Write to TIMx CCMR1 and CCER registers */
  TIMx->CCMR1 = tmpccmr1;
 80011c0:	8304      	strh	r4, [r0, #24]
C:\Users\Filip\Eclipse\Template\Debug/../STM32F4xx_StdPeriph_Driver/src/stm32f4xx_tim.c:3211
  TIMx->CCER = tmpccer;
 80011c2:	8403      	strh	r3, [r0, #32]
C:\Users\Filip\Eclipse\Template\Debug/../STM32F4xx_StdPeriph_Driver/src/stm32f4xx_tim.c:3212
}
 80011c4:	bc30      	pop	{r4, r5}
 80011c6:	4770      	bx	lr

080011c8 <TI2_Config>:
TI2_Config():
C:\Users\Filip\Eclipse\Template\Debug/../STM32F4xx_StdPeriph_Driver/src/stm32f4xx_tim.c:3234
  *          This parameter must be a value between 0x00 and 0x0F.
  * @retval None
  */
static void TI2_Config(TIM_TypeDef* TIMx, uint16_t TIM_ICPolarity, uint16_t TIM_ICSelection,
                       uint16_t TIM_ICFilter)
{
 80011c8:	b430      	push	{r4, r5}
C:\Users\Filip\Eclipse\Template\Debug/../STM32F4xx_StdPeriph_Driver/src/stm32f4xx_tim.c:3238
  uint16_t tmpccmr1 = 0, tmpccer = 0, tmp = 0;

  /* Disable the Channel 2: Reset the CC2E Bit */
  TIMx->CCER &= (uint16_t)~TIM_CCER_CC2E;
 80011ca:	8c04      	ldrh	r4, [r0, #32]
 80011cc:	f024 0410 	bic.w	r4, r4, #16
 80011d0:	0424      	lsls	r4, r4, #16
 80011d2:	0c24      	lsrs	r4, r4, #16
 80011d4:	8404      	strh	r4, [r0, #32]
C:\Users\Filip\Eclipse\Template\Debug/../STM32F4xx_StdPeriph_Driver/src/stm32f4xx_tim.c:3239
  tmpccmr1 = TIMx->CCMR1;
 80011d6:	8b05      	ldrh	r5, [r0, #24]
C:\Users\Filip\Eclipse\Template\Debug/../STM32F4xx_StdPeriph_Driver/src/stm32f4xx_tim.c:3240
  tmpccer = TIMx->CCER;
 80011d8:	8c04      	ldrh	r4, [r0, #32]
C:\Users\Filip\Eclipse\Template\Debug/../STM32F4xx_StdPeriph_Driver/src/stm32f4xx_tim.c:3241
  tmp = (uint16_t)(TIM_ICPolarity << 4);
 80011da:	0109      	lsls	r1, r1, #4
 80011dc:	b289      	uxth	r1, r1
C:\Users\Filip\Eclipse\Template\Debug/../STM32F4xx_StdPeriph_Driver/src/stm32f4xx_tim.c:3244

  /* Select the Input and set the filter */
  tmpccmr1 &= ((uint16_t)~TIM_CCMR1_CC2S) & ((uint16_t)~TIM_CCMR1_IC2F);
 80011de:	f425 7540 	bic.w	r5, r5, #768	; 0x300
 80011e2:	052d      	lsls	r5, r5, #20
 80011e4:	0d2d      	lsrs	r5, r5, #20
C:\Users\Filip\Eclipse\Template\Debug/../STM32F4xx_StdPeriph_Driver/src/stm32f4xx_tim.c:3245
  tmpccmr1 |= (uint16_t)(TIM_ICFilter << 12);
 80011e6:	031b      	lsls	r3, r3, #12
 80011e8:	b29b      	uxth	r3, r3
 80011ea:	431d      	orrs	r5, r3
C:\Users\Filip\Eclipse\Template\Debug/../STM32F4xx_StdPeriph_Driver/src/stm32f4xx_tim.c:3246
  tmpccmr1 |= (uint16_t)(TIM_ICSelection << 8);
 80011ec:	0212      	lsls	r2, r2, #8
 80011ee:	b292      	uxth	r2, r2
 80011f0:	4315      	orrs	r5, r2
C:\Users\Filip\Eclipse\Template\Debug/../STM32F4xx_StdPeriph_Driver/src/stm32f4xx_tim.c:3249

  /* Select the Polarity and set the CC2E Bit */
  tmpccer &= (uint16_t)~(TIM_CCER_CC2P | TIM_CCER_CC2NP);
 80011f2:	f024 03a0 	bic.w	r3, r4, #160	; 0xa0
 80011f6:	041b      	lsls	r3, r3, #16
 80011f8:	0c1b      	lsrs	r3, r3, #16
C:\Users\Filip\Eclipse\Template\Debug/../STM32F4xx_StdPeriph_Driver/src/stm32f4xx_tim.c:3250
  tmpccer |=  (uint16_t)(tmp | (uint16_t)TIM_CCER_CC2E);
 80011fa:	430b      	orrs	r3, r1
 80011fc:	f043 0310 	orr.w	r3, r3, #16
C:\Users\Filip\Eclipse\Template\Debug/../STM32F4xx_StdPeriph_Driver/src/stm32f4xx_tim.c:3253

  /* Write to TIMx CCMR1 and CCER registers */
  TIMx->CCMR1 = tmpccmr1 ;
 8001200:	8305      	strh	r5, [r0, #24]
C:\Users\Filip\Eclipse\Template\Debug/../STM32F4xx_StdPeriph_Driver/src/stm32f4xx_tim.c:3254
  TIMx->CCER = tmpccer;
 8001202:	8403      	strh	r3, [r0, #32]
C:\Users\Filip\Eclipse\Template\Debug/../STM32F4xx_StdPeriph_Driver/src/stm32f4xx_tim.c:3255
}
 8001204:	bc30      	pop	{r4, r5}
 8001206:	4770      	bx	lr

08001208 <TI3_Config>:
TI3_Config():
C:\Users\Filip\Eclipse\Template\Debug/../STM32F4xx_StdPeriph_Driver/src/stm32f4xx_tim.c:3276
  *          This parameter must be a value between 0x00 and 0x0F.
  * @retval None
  */
static void TI3_Config(TIM_TypeDef* TIMx, uint16_t TIM_ICPolarity, uint16_t TIM_ICSelection,
                       uint16_t TIM_ICFilter)
{
 8001208:	b430      	push	{r4, r5}
C:\Users\Filip\Eclipse\Template\Debug/../STM32F4xx_StdPeriph_Driver/src/stm32f4xx_tim.c:3280
  uint16_t tmpccmr2 = 0, tmpccer = 0, tmp = 0;

  /* Disable the Channel 3: Reset the CC3E Bit */
  TIMx->CCER &= (uint16_t)~TIM_CCER_CC3E;
 800120a:	8c04      	ldrh	r4, [r0, #32]
 800120c:	f424 7480 	bic.w	r4, r4, #256	; 0x100
 8001210:	0424      	lsls	r4, r4, #16
 8001212:	0c24      	lsrs	r4, r4, #16
 8001214:	8404      	strh	r4, [r0, #32]
C:\Users\Filip\Eclipse\Template\Debug/../STM32F4xx_StdPeriph_Driver/src/stm32f4xx_tim.c:3281
  tmpccmr2 = TIMx->CCMR2;
 8001216:	8b84      	ldrh	r4, [r0, #28]
C:\Users\Filip\Eclipse\Template\Debug/../STM32F4xx_StdPeriph_Driver/src/stm32f4xx_tim.c:3282
  tmpccer = TIMx->CCER;
 8001218:	8c05      	ldrh	r5, [r0, #32]
C:\Users\Filip\Eclipse\Template\Debug/../STM32F4xx_StdPeriph_Driver/src/stm32f4xx_tim.c:3283
  tmp = (uint16_t)(TIM_ICPolarity << 8);
 800121a:	0209      	lsls	r1, r1, #8
 800121c:	b289      	uxth	r1, r1
C:\Users\Filip\Eclipse\Template\Debug/../STM32F4xx_StdPeriph_Driver/src/stm32f4xx_tim.c:3286

  /* Select the Input and set the filter */
  tmpccmr2 &= ((uint16_t)~TIM_CCMR1_CC1S) & ((uint16_t)~TIM_CCMR2_IC3F);
 800121e:	f024 04f3 	bic.w	r4, r4, #243	; 0xf3
 8001222:	0424      	lsls	r4, r4, #16
 8001224:	0c24      	lsrs	r4, r4, #16
C:\Users\Filip\Eclipse\Template\Debug/../STM32F4xx_StdPeriph_Driver/src/stm32f4xx_tim.c:3287
  tmpccmr2 |= (uint16_t)(TIM_ICSelection | (uint16_t)(TIM_ICFilter << (uint16_t)4));
 8001226:	011b      	lsls	r3, r3, #4
 8001228:	b29b      	uxth	r3, r3
 800122a:	431a      	orrs	r2, r3
 800122c:	4314      	orrs	r4, r2
C:\Users\Filip\Eclipse\Template\Debug/../STM32F4xx_StdPeriph_Driver/src/stm32f4xx_tim.c:3290

  /* Select the Polarity and set the CC3E Bit */
  tmpccer &= (uint16_t)~(TIM_CCER_CC3P | TIM_CCER_CC3NP);
 800122e:	f425 6320 	bic.w	r3, r5, #2560	; 0xa00
 8001232:	041b      	lsls	r3, r3, #16
 8001234:	0c1b      	lsrs	r3, r3, #16
C:\Users\Filip\Eclipse\Template\Debug/../STM32F4xx_StdPeriph_Driver/src/stm32f4xx_tim.c:3291
  tmpccer |= (uint16_t)(tmp | (uint16_t)TIM_CCER_CC3E);
 8001236:	4319      	orrs	r1, r3
 8001238:	f441 7180 	orr.w	r1, r1, #256	; 0x100
C:\Users\Filip\Eclipse\Template\Debug/../STM32F4xx_StdPeriph_Driver/src/stm32f4xx_tim.c:3294

  /* Write to TIMx CCMR2 and CCER registers */
  TIMx->CCMR2 = tmpccmr2;
 800123c:	8384      	strh	r4, [r0, #28]
C:\Users\Filip\Eclipse\Template\Debug/../STM32F4xx_StdPeriph_Driver/src/stm32f4xx_tim.c:3295
  TIMx->CCER = tmpccer;
 800123e:	8401      	strh	r1, [r0, #32]
C:\Users\Filip\Eclipse\Template\Debug/../STM32F4xx_StdPeriph_Driver/src/stm32f4xx_tim.c:3296
}
 8001240:	bc30      	pop	{r4, r5}
 8001242:	4770      	bx	lr

08001244 <TI4_Config>:
TI4_Config():
C:\Users\Filip\Eclipse\Template\Debug/../STM32F4xx_StdPeriph_Driver/src/stm32f4xx_tim.c:3317
  *          This parameter must be a value between 0x00 and 0x0F.
  * @retval None
  */
static void TI4_Config(TIM_TypeDef* TIMx, uint16_t TIM_ICPolarity, uint16_t TIM_ICSelection,
                       uint16_t TIM_ICFilter)
{
 8001244:	b430      	push	{r4, r5}
C:\Users\Filip\Eclipse\Template\Debug/../STM32F4xx_StdPeriph_Driver/src/stm32f4xx_tim.c:3321
  uint16_t tmpccmr2 = 0, tmpccer = 0, tmp = 0;

  /* Disable the Channel 4: Reset the CC4E Bit */
  TIMx->CCER &= (uint16_t)~TIM_CCER_CC4E;
 8001246:	8c04      	ldrh	r4, [r0, #32]
 8001248:	f424 5480 	bic.w	r4, r4, #4096	; 0x1000
 800124c:	0424      	lsls	r4, r4, #16
 800124e:	0c24      	lsrs	r4, r4, #16
 8001250:	8404      	strh	r4, [r0, #32]
C:\Users\Filip\Eclipse\Template\Debug/../STM32F4xx_StdPeriph_Driver/src/stm32f4xx_tim.c:3322
  tmpccmr2 = TIMx->CCMR2;
 8001252:	8b85      	ldrh	r5, [r0, #28]
C:\Users\Filip\Eclipse\Template\Debug/../STM32F4xx_StdPeriph_Driver/src/stm32f4xx_tim.c:3323
  tmpccer = TIMx->CCER;
 8001254:	8c04      	ldrh	r4, [r0, #32]
C:\Users\Filip\Eclipse\Template\Debug/../STM32F4xx_StdPeriph_Driver/src/stm32f4xx_tim.c:3324
  tmp = (uint16_t)(TIM_ICPolarity << 12);
 8001256:	0309      	lsls	r1, r1, #12
 8001258:	b289      	uxth	r1, r1
C:\Users\Filip\Eclipse\Template\Debug/../STM32F4xx_StdPeriph_Driver/src/stm32f4xx_tim.c:3327

  /* Select the Input and set the filter */
  tmpccmr2 &= ((uint16_t)~TIM_CCMR1_CC2S) & ((uint16_t)~TIM_CCMR1_IC2F);
 800125a:	f425 7540 	bic.w	r5, r5, #768	; 0x300
 800125e:	052d      	lsls	r5, r5, #20
 8001260:	0d2d      	lsrs	r5, r5, #20
C:\Users\Filip\Eclipse\Template\Debug/../STM32F4xx_StdPeriph_Driver/src/stm32f4xx_tim.c:3328
  tmpccmr2 |= (uint16_t)(TIM_ICSelection << 8);
 8001262:	0212      	lsls	r2, r2, #8
 8001264:	b292      	uxth	r2, r2
 8001266:	4315      	orrs	r5, r2
C:\Users\Filip\Eclipse\Template\Debug/../STM32F4xx_StdPeriph_Driver/src/stm32f4xx_tim.c:3329
  tmpccmr2 |= (uint16_t)(TIM_ICFilter << 12);
 8001268:	031b      	lsls	r3, r3, #12
 800126a:	b29b      	uxth	r3, r3
 800126c:	431d      	orrs	r5, r3
C:\Users\Filip\Eclipse\Template\Debug/../STM32F4xx_StdPeriph_Driver/src/stm32f4xx_tim.c:3332

  /* Select the Polarity and set the CC4E Bit */
  tmpccer &= (uint16_t)~(TIM_CCER_CC4P | TIM_CCER_CC4NP);
 800126e:	f424 5400 	bic.w	r4, r4, #8192	; 0x2000
 8001272:	0464      	lsls	r4, r4, #17
 8001274:	0c64      	lsrs	r4, r4, #17
C:\Users\Filip\Eclipse\Template\Debug/../STM32F4xx_StdPeriph_Driver/src/stm32f4xx_tim.c:3333
  tmpccer |= (uint16_t)(tmp | (uint16_t)TIM_CCER_CC4E);
 8001276:	4321      	orrs	r1, r4
 8001278:	f441 5180 	orr.w	r1, r1, #4096	; 0x1000
C:\Users\Filip\Eclipse\Template\Debug/../STM32F4xx_StdPeriph_Driver/src/stm32f4xx_tim.c:3336

  /* Write to TIMx CCMR2 and CCER registers */
  TIMx->CCMR2 = tmpccmr2;
 800127c:	8385      	strh	r5, [r0, #28]
C:\Users\Filip\Eclipse\Template\Debug/../STM32F4xx_StdPeriph_Driver/src/stm32f4xx_tim.c:3337
  TIMx->CCER = tmpccer ;
 800127e:	8401      	strh	r1, [r0, #32]
C:\Users\Filip\Eclipse\Template\Debug/../STM32F4xx_StdPeriph_Driver/src/stm32f4xx_tim.c:3338
}
 8001280:	bc30      	pop	{r4, r5}
 8001282:	4770      	bx	lr

08001284 <TIM_DeInit>:
TIM_DeInit():
C:\Users\Filip\Eclipse\Template\Debug/../STM32F4xx_StdPeriph_Driver/src/stm32f4xx_tim.c:195
  * @param  TIMx: where x can be 1 to 14 to select the TIM peripheral.
  * @retval None

  */
void TIM_DeInit(TIM_TypeDef* TIMx)
{
 8001284:	b508      	push	{r3, lr}
C:\Users\Filip\Eclipse\Template\Debug/../STM32F4xx_StdPeriph_Driver/src/stm32f4xx_tim.c:199
  /* Check the parameters */
  assert_param(IS_TIM_ALL_PERIPH(TIMx)); 
 
  if (TIMx == TIM1)
 8001286:	4b58      	ldr	r3, [pc, #352]	; (80013e8 <TIM_DeInit+0x164>)
 8001288:	4298      	cmp	r0, r3
 800128a:	d108      	bne.n	800129e <TIM_DeInit+0x1a>
C:\Users\Filip\Eclipse\Template\Debug/../STM32F4xx_StdPeriph_Driver/src/stm32f4xx_tim.c:201
  {
    RCC_APB2PeriphResetCmd(RCC_APB2Periph_TIM1, ENABLE);
 800128c:	2001      	movs	r0, #1
 800128e:	4601      	mov	r1, r0
 8001290:	f7ff fe94 	bl	8000fbc <RCC_APB2PeriphResetCmd>
C:\Users\Filip\Eclipse\Template\Debug/../STM32F4xx_StdPeriph_Driver/src/stm32f4xx_tim.c:202
    RCC_APB2PeriphResetCmd(RCC_APB2Periph_TIM1, DISABLE);  
 8001294:	2001      	movs	r0, #1
 8001296:	2100      	movs	r1, #0
 8001298:	f7ff fe90 	bl	8000fbc <RCC_APB2PeriphResetCmd>
 800129c:	bd08      	pop	{r3, pc}
C:\Users\Filip\Eclipse\Template\Debug/../STM32F4xx_StdPeriph_Driver/src/stm32f4xx_tim.c:204
  } 
  else if (TIMx == TIM2) 
 800129e:	f1b0 4f80 	cmp.w	r0, #1073741824	; 0x40000000
 80012a2:	d108      	bne.n	80012b6 <TIM_DeInit+0x32>
C:\Users\Filip\Eclipse\Template\Debug/../STM32F4xx_StdPeriph_Driver/src/stm32f4xx_tim.c:206
  {     
    RCC_APB1PeriphResetCmd(RCC_APB1Periph_TIM2, ENABLE);
 80012a4:	2001      	movs	r0, #1
 80012a6:	4601      	mov	r1, r0
 80012a8:	f7ff fe7a 	bl	8000fa0 <RCC_APB1PeriphResetCmd>
C:\Users\Filip\Eclipse\Template\Debug/../STM32F4xx_StdPeriph_Driver/src/stm32f4xx_tim.c:207
    RCC_APB1PeriphResetCmd(RCC_APB1Periph_TIM2, DISABLE);
 80012ac:	2001      	movs	r0, #1
 80012ae:	2100      	movs	r1, #0
 80012b0:	f7ff fe76 	bl	8000fa0 <RCC_APB1PeriphResetCmd>
 80012b4:	bd08      	pop	{r3, pc}
C:\Users\Filip\Eclipse\Template\Debug/../STM32F4xx_StdPeriph_Driver/src/stm32f4xx_tim.c:209
  }  
  else if (TIMx == TIM3)
 80012b6:	4b4d      	ldr	r3, [pc, #308]	; (80013ec <TIM_DeInit+0x168>)
 80012b8:	4298      	cmp	r0, r3
 80012ba:	d108      	bne.n	80012ce <TIM_DeInit+0x4a>
C:\Users\Filip\Eclipse\Template\Debug/../STM32F4xx_StdPeriph_Driver/src/stm32f4xx_tim.c:211
  { 
    RCC_APB1PeriphResetCmd(RCC_APB1Periph_TIM3, ENABLE);
 80012bc:	2002      	movs	r0, #2
 80012be:	2101      	movs	r1, #1
 80012c0:	f7ff fe6e 	bl	8000fa0 <RCC_APB1PeriphResetCmd>
C:\Users\Filip\Eclipse\Template\Debug/../STM32F4xx_StdPeriph_Driver/src/stm32f4xx_tim.c:212
    RCC_APB1PeriphResetCmd(RCC_APB1Periph_TIM3, DISABLE);
 80012c4:	2002      	movs	r0, #2
 80012c6:	2100      	movs	r1, #0
 80012c8:	f7ff fe6a 	bl	8000fa0 <RCC_APB1PeriphResetCmd>
 80012cc:	bd08      	pop	{r3, pc}
C:\Users\Filip\Eclipse\Template\Debug/../STM32F4xx_StdPeriph_Driver/src/stm32f4xx_tim.c:214
  }  
  else if (TIMx == TIM4)
 80012ce:	4b48      	ldr	r3, [pc, #288]	; (80013f0 <TIM_DeInit+0x16c>)
 80012d0:	4298      	cmp	r0, r3
 80012d2:	d108      	bne.n	80012e6 <TIM_DeInit+0x62>
C:\Users\Filip\Eclipse\Template\Debug/../STM32F4xx_StdPeriph_Driver/src/stm32f4xx_tim.c:216
  { 
    RCC_APB1PeriphResetCmd(RCC_APB1Periph_TIM4, ENABLE);
 80012d4:	2004      	movs	r0, #4
 80012d6:	2101      	movs	r1, #1
 80012d8:	f7ff fe62 	bl	8000fa0 <RCC_APB1PeriphResetCmd>
C:\Users\Filip\Eclipse\Template\Debug/../STM32F4xx_StdPeriph_Driver/src/stm32f4xx_tim.c:217
    RCC_APB1PeriphResetCmd(RCC_APB1Periph_TIM4, DISABLE);
 80012dc:	2004      	movs	r0, #4
 80012de:	2100      	movs	r1, #0
 80012e0:	f7ff fe5e 	bl	8000fa0 <RCC_APB1PeriphResetCmd>
 80012e4:	bd08      	pop	{r3, pc}
C:\Users\Filip\Eclipse\Template\Debug/../STM32F4xx_StdPeriph_Driver/src/stm32f4xx_tim.c:219
  }  
  else if (TIMx == TIM5)
 80012e6:	4b43      	ldr	r3, [pc, #268]	; (80013f4 <TIM_DeInit+0x170>)
 80012e8:	4298      	cmp	r0, r3
 80012ea:	d108      	bne.n	80012fe <TIM_DeInit+0x7a>
C:\Users\Filip\Eclipse\Template\Debug/../STM32F4xx_StdPeriph_Driver/src/stm32f4xx_tim.c:221
  {      
    RCC_APB1PeriphResetCmd(RCC_APB1Periph_TIM5, ENABLE);
 80012ec:	2008      	movs	r0, #8
 80012ee:	2101      	movs	r1, #1
 80012f0:	f7ff fe56 	bl	8000fa0 <RCC_APB1PeriphResetCmd>
C:\Users\Filip\Eclipse\Template\Debug/../STM32F4xx_StdPeriph_Driver/src/stm32f4xx_tim.c:222
    RCC_APB1PeriphResetCmd(RCC_APB1Periph_TIM5, DISABLE);
 80012f4:	2008      	movs	r0, #8
 80012f6:	2100      	movs	r1, #0
 80012f8:	f7ff fe52 	bl	8000fa0 <RCC_APB1PeriphResetCmd>
 80012fc:	bd08      	pop	{r3, pc}
C:\Users\Filip\Eclipse\Template\Debug/../STM32F4xx_StdPeriph_Driver/src/stm32f4xx_tim.c:224
  }  
  else if (TIMx == TIM6)  
 80012fe:	4b3e      	ldr	r3, [pc, #248]	; (80013f8 <TIM_DeInit+0x174>)
 8001300:	4298      	cmp	r0, r3
 8001302:	d108      	bne.n	8001316 <TIM_DeInit+0x92>
C:\Users\Filip\Eclipse\Template\Debug/../STM32F4xx_StdPeriph_Driver/src/stm32f4xx_tim.c:226
  {    
    RCC_APB1PeriphResetCmd(RCC_APB1Periph_TIM6, ENABLE);
 8001304:	2010      	movs	r0, #16
 8001306:	2101      	movs	r1, #1
 8001308:	f7ff fe4a 	bl	8000fa0 <RCC_APB1PeriphResetCmd>
C:\Users\Filip\Eclipse\Template\Debug/../STM32F4xx_StdPeriph_Driver/src/stm32f4xx_tim.c:227
    RCC_APB1PeriphResetCmd(RCC_APB1Periph_TIM6, DISABLE);
 800130c:	2010      	movs	r0, #16
 800130e:	2100      	movs	r1, #0
 8001310:	f7ff fe46 	bl	8000fa0 <RCC_APB1PeriphResetCmd>
 8001314:	bd08      	pop	{r3, pc}
C:\Users\Filip\Eclipse\Template\Debug/../STM32F4xx_StdPeriph_Driver/src/stm32f4xx_tim.c:229
  }  
  else if (TIMx == TIM7)
 8001316:	4b39      	ldr	r3, [pc, #228]	; (80013fc <TIM_DeInit+0x178>)
 8001318:	4298      	cmp	r0, r3
 800131a:	d108      	bne.n	800132e <TIM_DeInit+0xaa>
C:\Users\Filip\Eclipse\Template\Debug/../STM32F4xx_StdPeriph_Driver/src/stm32f4xx_tim.c:231
  {      
    RCC_APB1PeriphResetCmd(RCC_APB1Periph_TIM7, ENABLE);
 800131c:	2020      	movs	r0, #32
 800131e:	2101      	movs	r1, #1
 8001320:	f7ff fe3e 	bl	8000fa0 <RCC_APB1PeriphResetCmd>
C:\Users\Filip\Eclipse\Template\Debug/../STM32F4xx_StdPeriph_Driver/src/stm32f4xx_tim.c:232
    RCC_APB1PeriphResetCmd(RCC_APB1Periph_TIM7, DISABLE);
 8001324:	2020      	movs	r0, #32
 8001326:	2100      	movs	r1, #0
 8001328:	f7ff fe3a 	bl	8000fa0 <RCC_APB1PeriphResetCmd>
 800132c:	bd08      	pop	{r3, pc}
C:\Users\Filip\Eclipse\Template\Debug/../STM32F4xx_StdPeriph_Driver/src/stm32f4xx_tim.c:234
  }  
  else if (TIMx == TIM8)
 800132e:	4b34      	ldr	r3, [pc, #208]	; (8001400 <TIM_DeInit+0x17c>)
 8001330:	4298      	cmp	r0, r3
 8001332:	d108      	bne.n	8001346 <TIM_DeInit+0xc2>
C:\Users\Filip\Eclipse\Template\Debug/../STM32F4xx_StdPeriph_Driver/src/stm32f4xx_tim.c:236
  {      
    RCC_APB2PeriphResetCmd(RCC_APB2Periph_TIM8, ENABLE);
 8001334:	2002      	movs	r0, #2
 8001336:	2101      	movs	r1, #1
 8001338:	f7ff fe40 	bl	8000fbc <RCC_APB2PeriphResetCmd>
C:\Users\Filip\Eclipse\Template\Debug/../STM32F4xx_StdPeriph_Driver/src/stm32f4xx_tim.c:237
    RCC_APB2PeriphResetCmd(RCC_APB2Periph_TIM8, DISABLE);  
 800133c:	2002      	movs	r0, #2
 800133e:	2100      	movs	r1, #0
 8001340:	f7ff fe3c 	bl	8000fbc <RCC_APB2PeriphResetCmd>
 8001344:	bd08      	pop	{r3, pc}
C:\Users\Filip\Eclipse\Template\Debug/../STM32F4xx_StdPeriph_Driver/src/stm32f4xx_tim.c:239
  }  
  else if (TIMx == TIM9)
 8001346:	4b2f      	ldr	r3, [pc, #188]	; (8001404 <TIM_DeInit+0x180>)
 8001348:	4298      	cmp	r0, r3
 800134a:	d10a      	bne.n	8001362 <TIM_DeInit+0xde>
C:\Users\Filip\Eclipse\Template\Debug/../STM32F4xx_StdPeriph_Driver/src/stm32f4xx_tim.c:241
  {      
    RCC_APB2PeriphResetCmd(RCC_APB2Periph_TIM9, ENABLE);
 800134c:	f44f 3080 	mov.w	r0, #65536	; 0x10000
 8001350:	2101      	movs	r1, #1
 8001352:	f7ff fe33 	bl	8000fbc <RCC_APB2PeriphResetCmd>
C:\Users\Filip\Eclipse\Template\Debug/../STM32F4xx_StdPeriph_Driver/src/stm32f4xx_tim.c:242
    RCC_APB2PeriphResetCmd(RCC_APB2Periph_TIM9, DISABLE);  
 8001356:	f44f 3080 	mov.w	r0, #65536	; 0x10000
 800135a:	2100      	movs	r1, #0
 800135c:	f7ff fe2e 	bl	8000fbc <RCC_APB2PeriphResetCmd>
 8001360:	bd08      	pop	{r3, pc}
C:\Users\Filip\Eclipse\Template\Debug/../STM32F4xx_StdPeriph_Driver/src/stm32f4xx_tim.c:244
   }  
  else if (TIMx == TIM10)
 8001362:	4b29      	ldr	r3, [pc, #164]	; (8001408 <TIM_DeInit+0x184>)
 8001364:	4298      	cmp	r0, r3
 8001366:	d10a      	bne.n	800137e <TIM_DeInit+0xfa>
C:\Users\Filip\Eclipse\Template\Debug/../STM32F4xx_StdPeriph_Driver/src/stm32f4xx_tim.c:246
  {      
    RCC_APB2PeriphResetCmd(RCC_APB2Periph_TIM10, ENABLE);
 8001368:	f44f 3000 	mov.w	r0, #131072	; 0x20000
 800136c:	2101      	movs	r1, #1
 800136e:	f7ff fe25 	bl	8000fbc <RCC_APB2PeriphResetCmd>
C:\Users\Filip\Eclipse\Template\Debug/../STM32F4xx_StdPeriph_Driver/src/stm32f4xx_tim.c:247
    RCC_APB2PeriphResetCmd(RCC_APB2Periph_TIM10, DISABLE);  
 8001372:	f44f 3000 	mov.w	r0, #131072	; 0x20000
 8001376:	2100      	movs	r1, #0
 8001378:	f7ff fe20 	bl	8000fbc <RCC_APB2PeriphResetCmd>
 800137c:	bd08      	pop	{r3, pc}
C:\Users\Filip\Eclipse\Template\Debug/../STM32F4xx_StdPeriph_Driver/src/stm32f4xx_tim.c:249
  }  
  else if (TIMx == TIM11) 
 800137e:	4b23      	ldr	r3, [pc, #140]	; (800140c <TIM_DeInit+0x188>)
 8001380:	4298      	cmp	r0, r3
 8001382:	d10a      	bne.n	800139a <TIM_DeInit+0x116>
C:\Users\Filip\Eclipse\Template\Debug/../STM32F4xx_StdPeriph_Driver/src/stm32f4xx_tim.c:251
  {     
    RCC_APB2PeriphResetCmd(RCC_APB2Periph_TIM11, ENABLE);
 8001384:	f44f 2080 	mov.w	r0, #262144	; 0x40000
 8001388:	2101      	movs	r1, #1
 800138a:	f7ff fe17 	bl	8000fbc <RCC_APB2PeriphResetCmd>
C:\Users\Filip\Eclipse\Template\Debug/../STM32F4xx_StdPeriph_Driver/src/stm32f4xx_tim.c:252
    RCC_APB2PeriphResetCmd(RCC_APB2Periph_TIM11, DISABLE);  
 800138e:	f44f 2080 	mov.w	r0, #262144	; 0x40000
 8001392:	2100      	movs	r1, #0
 8001394:	f7ff fe12 	bl	8000fbc <RCC_APB2PeriphResetCmd>
 8001398:	bd08      	pop	{r3, pc}
C:\Users\Filip\Eclipse\Template\Debug/../STM32F4xx_StdPeriph_Driver/src/stm32f4xx_tim.c:254
  }  
  else if (TIMx == TIM12)
 800139a:	4b1d      	ldr	r3, [pc, #116]	; (8001410 <TIM_DeInit+0x18c>)
 800139c:	4298      	cmp	r0, r3
 800139e:	d108      	bne.n	80013b2 <TIM_DeInit+0x12e>
C:\Users\Filip\Eclipse\Template\Debug/../STM32F4xx_StdPeriph_Driver/src/stm32f4xx_tim.c:256
  {      
    RCC_APB1PeriphResetCmd(RCC_APB1Periph_TIM12, ENABLE);
 80013a0:	2040      	movs	r0, #64	; 0x40
 80013a2:	2101      	movs	r1, #1
 80013a4:	f7ff fdfc 	bl	8000fa0 <RCC_APB1PeriphResetCmd>
C:\Users\Filip\Eclipse\Template\Debug/../STM32F4xx_StdPeriph_Driver/src/stm32f4xx_tim.c:257
    RCC_APB1PeriphResetCmd(RCC_APB1Periph_TIM12, DISABLE);  
 80013a8:	2040      	movs	r0, #64	; 0x40
 80013aa:	2100      	movs	r1, #0
 80013ac:	f7ff fdf8 	bl	8000fa0 <RCC_APB1PeriphResetCmd>
 80013b0:	bd08      	pop	{r3, pc}
C:\Users\Filip\Eclipse\Template\Debug/../STM32F4xx_StdPeriph_Driver/src/stm32f4xx_tim.c:259
  }  
  else if (TIMx == TIM13) 
 80013b2:	4b18      	ldr	r3, [pc, #96]	; (8001414 <TIM_DeInit+0x190>)
 80013b4:	4298      	cmp	r0, r3
 80013b6:	d108      	bne.n	80013ca <TIM_DeInit+0x146>
C:\Users\Filip\Eclipse\Template\Debug/../STM32F4xx_StdPeriph_Driver/src/stm32f4xx_tim.c:261
  {       
    RCC_APB1PeriphResetCmd(RCC_APB1Periph_TIM13, ENABLE);
 80013b8:	2080      	movs	r0, #128	; 0x80
 80013ba:	2101      	movs	r1, #1
 80013bc:	f7ff fdf0 	bl	8000fa0 <RCC_APB1PeriphResetCmd>
C:\Users\Filip\Eclipse\Template\Debug/../STM32F4xx_StdPeriph_Driver/src/stm32f4xx_tim.c:262
    RCC_APB1PeriphResetCmd(RCC_APB1Periph_TIM13, DISABLE);  
 80013c0:	2080      	movs	r0, #128	; 0x80
 80013c2:	2100      	movs	r1, #0
 80013c4:	f7ff fdec 	bl	8000fa0 <RCC_APB1PeriphResetCmd>
 80013c8:	bd08      	pop	{r3, pc}
C:\Users\Filip\Eclipse\Template\Debug/../STM32F4xx_StdPeriph_Driver/src/stm32f4xx_tim.c:266
  }  
  else
  { 
    if (TIMx == TIM14) 
 80013ca:	4b13      	ldr	r3, [pc, #76]	; (8001418 <TIM_DeInit+0x194>)
 80013cc:	4298      	cmp	r0, r3
 80013ce:	d109      	bne.n	80013e4 <TIM_DeInit+0x160>
C:\Users\Filip\Eclipse\Template\Debug/../STM32F4xx_StdPeriph_Driver/src/stm32f4xx_tim.c:268
    {     
      RCC_APB1PeriphResetCmd(RCC_APB1Periph_TIM14, ENABLE);
 80013d0:	f44f 7080 	mov.w	r0, #256	; 0x100
 80013d4:	2101      	movs	r1, #1
 80013d6:	f7ff fde3 	bl	8000fa0 <RCC_APB1PeriphResetCmd>
C:\Users\Filip\Eclipse\Template\Debug/../STM32F4xx_StdPeriph_Driver/src/stm32f4xx_tim.c:269
      RCC_APB1PeriphResetCmd(RCC_APB1Periph_TIM14, DISABLE); 
 80013da:	f44f 7080 	mov.w	r0, #256	; 0x100
 80013de:	2100      	movs	r1, #0
 80013e0:	f7ff fdde 	bl	8000fa0 <RCC_APB1PeriphResetCmd>
 80013e4:	bd08      	pop	{r3, pc}
 80013e6:	bf00      	nop
 80013e8:	40010000 	.word	0x40010000
 80013ec:	40000400 	.word	0x40000400
 80013f0:	40000800 	.word	0x40000800
 80013f4:	40000c00 	.word	0x40000c00
 80013f8:	40001000 	.word	0x40001000
 80013fc:	40001400 	.word	0x40001400
 8001400:	40010400 	.word	0x40010400
 8001404:	40014000 	.word	0x40014000
 8001408:	40014400 	.word	0x40014400
 800140c:	40014800 	.word	0x40014800
 8001410:	40001800 	.word	0x40001800
 8001414:	40001c00 	.word	0x40001c00
 8001418:	40002000 	.word	0x40002000

0800141c <TIM_TimeBaseInit>:
TIM_TimeBaseInit():
C:\Users\Filip\Eclipse\Template\Debug/../STM32F4xx_StdPeriph_Driver/src/stm32f4xx_tim.c:291
  /* Check the parameters */
  assert_param(IS_TIM_ALL_PERIPH(TIMx)); 
  assert_param(IS_TIM_COUNTER_MODE(TIM_TimeBaseInitStruct->TIM_CounterMode));
  assert_param(IS_TIM_CKD_DIV(TIM_TimeBaseInitStruct->TIM_ClockDivision));

  tmpcr1 = TIMx->CR1;  
 800141c:	8803      	ldrh	r3, [r0, #0]
 800141e:	b29b      	uxth	r3, r3
C:\Users\Filip\Eclipse\Template\Debug/../STM32F4xx_StdPeriph_Driver/src/stm32f4xx_tim.c:293

  if((TIMx == TIM1) || (TIMx == TIM8)||
 8001420:	4a1b      	ldr	r2, [pc, #108]	; (8001490 <TIM_TimeBaseInit+0x74>)
 8001422:	4290      	cmp	r0, r2
 8001424:	d012      	beq.n	800144c <TIM_TimeBaseInit+0x30>
C:\Users\Filip\Eclipse\Template\Debug/../STM32F4xx_StdPeriph_Driver/src/stm32f4xx_tim.c:293 (discriminator 1)
 8001426:	f502 6280 	add.w	r2, r2, #1024	; 0x400
 800142a:	4290      	cmp	r0, r2
 800142c:	d00e      	beq.n	800144c <TIM_TimeBaseInit+0x30>
 800142e:	f1b0 4f80 	cmp.w	r0, #1073741824	; 0x40000000
 8001432:	d00b      	beq.n	800144c <TIM_TimeBaseInit+0x30>
C:\Users\Filip\Eclipse\Template\Debug/../STM32F4xx_StdPeriph_Driver/src/stm32f4xx_tim.c:294
     (TIMx == TIM2) || (TIMx == TIM3)||
 8001434:	f5a2 3280 	sub.w	r2, r2, #65536	; 0x10000
 8001438:	4290      	cmp	r0, r2
 800143a:	d007      	beq.n	800144c <TIM_TimeBaseInit+0x30>
C:\Users\Filip\Eclipse\Template\Debug/../STM32F4xx_StdPeriph_Driver/src/stm32f4xx_tim.c:294 (discriminator 1)
 800143c:	f502 6280 	add.w	r2, r2, #1024	; 0x400
 8001440:	4290      	cmp	r0, r2
 8001442:	d003      	beq.n	800144c <TIM_TimeBaseInit+0x30>
C:\Users\Filip\Eclipse\Template\Debug/../STM32F4xx_StdPeriph_Driver/src/stm32f4xx_tim.c:295
     (TIMx == TIM4) || (TIMx == TIM5)) 
 8001444:	f502 6280 	add.w	r2, r2, #1024	; 0x400
 8001448:	4290      	cmp	r0, r2
 800144a:	d103      	bne.n	8001454 <TIM_TimeBaseInit+0x38>
C:\Users\Filip\Eclipse\Template\Debug/../STM32F4xx_StdPeriph_Driver/src/stm32f4xx_tim.c:298
  {
    /* Select the Counter Mode */
    tmpcr1 &= (uint16_t)(~(TIM_CR1_DIR | TIM_CR1_CMS));
 800144c:	f023 0370 	bic.w	r3, r3, #112	; 0x70
C:\Users\Filip\Eclipse\Template\Debug/../STM32F4xx_StdPeriph_Driver/src/stm32f4xx_tim.c:299
    tmpcr1 |= (uint32_t)TIM_TimeBaseInitStruct->TIM_CounterMode;
 8001450:	884a      	ldrh	r2, [r1, #2]
 8001452:	4313      	orrs	r3, r2
C:\Users\Filip\Eclipse\Template\Debug/../STM32F4xx_StdPeriph_Driver/src/stm32f4xx_tim.c:302
  }
 
  if((TIMx != TIM6) && (TIMx != TIM7))
 8001454:	4a0f      	ldr	r2, [pc, #60]	; (8001494 <TIM_TimeBaseInit+0x78>)
 8001456:	4290      	cmp	r0, r2
 8001458:	d008      	beq.n	800146c <TIM_TimeBaseInit+0x50>
C:\Users\Filip\Eclipse\Template\Debug/../STM32F4xx_StdPeriph_Driver/src/stm32f4xx_tim.c:302 (discriminator 1)
 800145a:	f502 6280 	add.w	r2, r2, #1024	; 0x400
 800145e:	4290      	cmp	r0, r2
 8001460:	d004      	beq.n	800146c <TIM_TimeBaseInit+0x50>
C:\Users\Filip\Eclipse\Template\Debug/../STM32F4xx_StdPeriph_Driver/src/stm32f4xx_tim.c:305
  {
    /* Set the clock division */
    tmpcr1 &=  (uint16_t)(~TIM_CR1_CKD);
 8001462:	f423 7340 	bic.w	r3, r3, #768	; 0x300
 8001466:	b29b      	uxth	r3, r3
C:\Users\Filip\Eclipse\Template\Debug/../STM32F4xx_StdPeriph_Driver/src/stm32f4xx_tim.c:306
    tmpcr1 |= (uint32_t)TIM_TimeBaseInitStruct->TIM_ClockDivision;
 8001468:	890a      	ldrh	r2, [r1, #8]
 800146a:	4313      	orrs	r3, r2
C:\Users\Filip\Eclipse\Template\Debug/../STM32F4xx_StdPeriph_Driver/src/stm32f4xx_tim.c:309
  }

  TIMx->CR1 = tmpcr1;
 800146c:	8003      	strh	r3, [r0, #0]
C:\Users\Filip\Eclipse\Template\Debug/../STM32F4xx_StdPeriph_Driver/src/stm32f4xx_tim.c:312

  /* Set the Autoreload value */
  TIMx->ARR = TIM_TimeBaseInitStruct->TIM_Period ;
 800146e:	684b      	ldr	r3, [r1, #4]
 8001470:	62c3      	str	r3, [r0, #44]	; 0x2c
C:\Users\Filip\Eclipse\Template\Debug/../STM32F4xx_StdPeriph_Driver/src/stm32f4xx_tim.c:315
 
  /* Set the Prescaler value */
  TIMx->PSC = TIM_TimeBaseInitStruct->TIM_Prescaler;
 8001472:	880b      	ldrh	r3, [r1, #0]
 8001474:	8503      	strh	r3, [r0, #40]	; 0x28
C:\Users\Filip\Eclipse\Template\Debug/../STM32F4xx_StdPeriph_Driver/src/stm32f4xx_tim.c:317
    
  if ((TIMx == TIM1) || (TIMx == TIM8))  
 8001476:	4b06      	ldr	r3, [pc, #24]	; (8001490 <TIM_TimeBaseInit+0x74>)
 8001478:	4298      	cmp	r0, r3
 800147a:	d003      	beq.n	8001484 <TIM_TimeBaseInit+0x68>
C:\Users\Filip\Eclipse\Template\Debug/../STM32F4xx_StdPeriph_Driver/src/stm32f4xx_tim.c:317 (discriminator 1)
 800147c:	f503 6380 	add.w	r3, r3, #1024	; 0x400
 8001480:	4298      	cmp	r0, r3
 8001482:	d101      	bne.n	8001488 <TIM_TimeBaseInit+0x6c>
C:\Users\Filip\Eclipse\Template\Debug/../STM32F4xx_StdPeriph_Driver/src/stm32f4xx_tim.c:320
  {
    /* Set the Repetition Counter value */
    TIMx->RCR = TIM_TimeBaseInitStruct->TIM_RepetitionCounter;
 8001484:	7a8b      	ldrb	r3, [r1, #10]
 8001486:	8603      	strh	r3, [r0, #48]	; 0x30
C:\Users\Filip\Eclipse\Template\Debug/../STM32F4xx_StdPeriph_Driver/src/stm32f4xx_tim.c:325
  }

  /* Generate an update event to reload the Prescaler 
     and the repetition counter(only for TIM1 and TIM8) value immediatly */
  TIMx->EGR = TIM_PSCReloadMode_Immediate;          
 8001488:	2301      	movs	r3, #1
 800148a:	8283      	strh	r3, [r0, #20]
 800148c:	4770      	bx	lr
 800148e:	bf00      	nop
 8001490:	40010000 	.word	0x40010000
 8001494:	40001000 	.word	0x40001000

08001498 <TIM_TimeBaseStructInit>:
TIM_TimeBaseStructInit():
C:\Users\Filip\Eclipse\Template\Debug/../STM32F4xx_StdPeriph_Driver/src/stm32f4xx_tim.c:337
  * @retval None
  */
void TIM_TimeBaseStructInit(TIM_TimeBaseInitTypeDef* TIM_TimeBaseInitStruct)
{
  /* Set the default configuration */
  TIM_TimeBaseInitStruct->TIM_Period = 0xFFFFFFFF;
 8001498:	f04f 33ff 	mov.w	r3, #4294967295
 800149c:	6043      	str	r3, [r0, #4]
C:\Users\Filip\Eclipse\Template\Debug/../STM32F4xx_StdPeriph_Driver/src/stm32f4xx_tim.c:338
  TIM_TimeBaseInitStruct->TIM_Prescaler = 0x0000;
 800149e:	2300      	movs	r3, #0
 80014a0:	8003      	strh	r3, [r0, #0]
C:\Users\Filip\Eclipse\Template\Debug/../STM32F4xx_StdPeriph_Driver/src/stm32f4xx_tim.c:339
  TIM_TimeBaseInitStruct->TIM_ClockDivision = TIM_CKD_DIV1;
 80014a2:	8103      	strh	r3, [r0, #8]
C:\Users\Filip\Eclipse\Template\Debug/../STM32F4xx_StdPeriph_Driver/src/stm32f4xx_tim.c:340
  TIM_TimeBaseInitStruct->TIM_CounterMode = TIM_CounterMode_Up;
 80014a4:	8043      	strh	r3, [r0, #2]
C:\Users\Filip\Eclipse\Template\Debug/../STM32F4xx_StdPeriph_Driver/src/stm32f4xx_tim.c:341
  TIM_TimeBaseInitStruct->TIM_RepetitionCounter = 0x0000;
 80014a6:	7283      	strb	r3, [r0, #10]
 80014a8:	4770      	bx	lr
 80014aa:	bf00      	nop

080014ac <TIM_PrescalerConfig>:
TIM_PrescalerConfig():
C:\Users\Filip\Eclipse\Template\Debug/../STM32F4xx_StdPeriph_Driver/src/stm32f4xx_tim.c:360
{
  /* Check the parameters */
  assert_param(IS_TIM_ALL_PERIPH(TIMx));
  assert_param(IS_TIM_PRESCALER_RELOAD(TIM_PSCReloadMode));
  /* Set the Prescaler value */
  TIMx->PSC = Prescaler;
 80014ac:	8501      	strh	r1, [r0, #40]	; 0x28
C:\Users\Filip\Eclipse\Template\Debug/../STM32F4xx_StdPeriph_Driver/src/stm32f4xx_tim.c:362
  /* Set or reset the UG Bit */
  TIMx->EGR = TIM_PSCReloadMode;
 80014ae:	8282      	strh	r2, [r0, #20]
 80014b0:	4770      	bx	lr
 80014b2:	bf00      	nop

080014b4 <TIM_CounterModeConfig>:
TIM_CounterModeConfig():
C:\Users\Filip\Eclipse\Template\Debug/../STM32F4xx_StdPeriph_Driver/src/stm32f4xx_tim.c:385

  /* Check the parameters */
  assert_param(IS_TIM_LIST3_PERIPH(TIMx));
  assert_param(IS_TIM_COUNTER_MODE(TIM_CounterMode));

  tmpcr1 = TIMx->CR1;
 80014b4:	8803      	ldrh	r3, [r0, #0]
C:\Users\Filip\Eclipse\Template\Debug/../STM32F4xx_StdPeriph_Driver/src/stm32f4xx_tim.c:388

  /* Reset the CMS and DIR Bits */
  tmpcr1 &= (uint16_t)~(TIM_CR1_DIR | TIM_CR1_CMS);
 80014b6:	f023 0370 	bic.w	r3, r3, #112	; 0x70
 80014ba:	041b      	lsls	r3, r3, #16
 80014bc:	0c1b      	lsrs	r3, r3, #16
C:\Users\Filip\Eclipse\Template\Debug/../STM32F4xx_StdPeriph_Driver/src/stm32f4xx_tim.c:391

  /* Set the Counter Mode */
  tmpcr1 |= TIM_CounterMode;
 80014be:	4319      	orrs	r1, r3
C:\Users\Filip\Eclipse\Template\Debug/../STM32F4xx_StdPeriph_Driver/src/stm32f4xx_tim.c:394

  /* Write to TIMx CR1 register */
  TIMx->CR1 = tmpcr1;
 80014c0:	8001      	strh	r1, [r0, #0]
 80014c2:	4770      	bx	lr

080014c4 <TIM_SetCounter>:
TIM_SetCounter():
C:\Users\Filip\Eclipse\Template\Debug/../STM32F4xx_StdPeriph_Driver/src/stm32f4xx_tim.c:409
{
  /* Check the parameters */
   assert_param(IS_TIM_ALL_PERIPH(TIMx));

  /* Set the Counter Register value */
  TIMx->CNT = Counter;
 80014c4:	6241      	str	r1, [r0, #36]	; 0x24
 80014c6:	4770      	bx	lr

080014c8 <TIM_SetAutoreload>:
TIM_SetAutoreload():
C:\Users\Filip\Eclipse\Template\Debug/../STM32F4xx_StdPeriph_Driver/src/stm32f4xx_tim.c:424
{
  /* Check the parameters */
  assert_param(IS_TIM_ALL_PERIPH(TIMx));
  
  /* Set the Autoreload Register value */
  TIMx->ARR = Autoreload;
 80014c8:	62c1      	str	r1, [r0, #44]	; 0x2c
 80014ca:	4770      	bx	lr

080014cc <TIM_GetCounter>:
TIM_GetCounter():
C:\Users\Filip\Eclipse\Template\Debug/../STM32F4xx_StdPeriph_Driver/src/stm32f4xx_tim.c:438
{
  /* Check the parameters */
  assert_param(IS_TIM_ALL_PERIPH(TIMx));

  /* Get the Counter Register value */
  return TIMx->CNT;
 80014cc:	6a40      	ldr	r0, [r0, #36]	; 0x24
C:\Users\Filip\Eclipse\Template\Debug/../STM32F4xx_StdPeriph_Driver/src/stm32f4xx_tim.c:439
}
 80014ce:	4770      	bx	lr

080014d0 <TIM_GetPrescaler>:
TIM_GetPrescaler():
C:\Users\Filip\Eclipse\Template\Debug/../STM32F4xx_StdPeriph_Driver/src/stm32f4xx_tim.c:452
{
  /* Check the parameters */
  assert_param(IS_TIM_ALL_PERIPH(TIMx));

  /* Get the Prescaler Register value */
  return TIMx->PSC;
 80014d0:	8d00      	ldrh	r0, [r0, #40]	; 0x28
C:\Users\Filip\Eclipse\Template\Debug/../STM32F4xx_StdPeriph_Driver/src/stm32f4xx_tim.c:453
}
 80014d2:	b280      	uxth	r0, r0
 80014d4:	4770      	bx	lr
 80014d6:	bf00      	nop

080014d8 <TIM_UpdateDisableConfig>:
TIM_UpdateDisableConfig():
C:\Users\Filip\Eclipse\Template\Debug/../STM32F4xx_StdPeriph_Driver/src/stm32f4xx_tim.c:468
{
  /* Check the parameters */
  assert_param(IS_TIM_ALL_PERIPH(TIMx));
  assert_param(IS_FUNCTIONAL_STATE(NewState));

  if (NewState != DISABLE)
 80014d8:	b129      	cbz	r1, 80014e6 <TIM_UpdateDisableConfig+0xe>
C:\Users\Filip\Eclipse\Template\Debug/../STM32F4xx_StdPeriph_Driver/src/stm32f4xx_tim.c:471
  {
    /* Set the Update Disable Bit */
    TIMx->CR1 |= TIM_CR1_UDIS;
 80014da:	8803      	ldrh	r3, [r0, #0]
 80014dc:	b29b      	uxth	r3, r3
 80014de:	f043 0302 	orr.w	r3, r3, #2
 80014e2:	8003      	strh	r3, [r0, #0]
 80014e4:	4770      	bx	lr
C:\Users\Filip\Eclipse\Template\Debug/../STM32F4xx_StdPeriph_Driver/src/stm32f4xx_tim.c:476
  }
  else
  {
    /* Reset the Update Disable Bit */
    TIMx->CR1 &= (uint16_t)~TIM_CR1_UDIS;
 80014e6:	8803      	ldrh	r3, [r0, #0]
 80014e8:	f023 0302 	bic.w	r3, r3, #2
 80014ec:	041b      	lsls	r3, r3, #16
 80014ee:	0c1b      	lsrs	r3, r3, #16
 80014f0:	8003      	strh	r3, [r0, #0]
 80014f2:	4770      	bx	lr

080014f4 <TIM_UpdateRequestConfig>:
TIM_UpdateRequestConfig():
C:\Users\Filip\Eclipse\Template\Debug/../STM32F4xx_StdPeriph_Driver/src/stm32f4xx_tim.c:497
{
  /* Check the parameters */
  assert_param(IS_TIM_ALL_PERIPH(TIMx));
  assert_param(IS_TIM_UPDATE_SOURCE(TIM_UpdateSource));

  if (TIM_UpdateSource != TIM_UpdateSource_Global)
 80014f4:	b129      	cbz	r1, 8001502 <TIM_UpdateRequestConfig+0xe>
C:\Users\Filip\Eclipse\Template\Debug/../STM32F4xx_StdPeriph_Driver/src/stm32f4xx_tim.c:500
  {
    /* Set the URS Bit */
    TIMx->CR1 |= TIM_CR1_URS;
 80014f6:	8803      	ldrh	r3, [r0, #0]
 80014f8:	b29b      	uxth	r3, r3
 80014fa:	f043 0304 	orr.w	r3, r3, #4
 80014fe:	8003      	strh	r3, [r0, #0]
 8001500:	4770      	bx	lr
C:\Users\Filip\Eclipse\Template\Debug/../STM32F4xx_StdPeriph_Driver/src/stm32f4xx_tim.c:505
  }
  else
  {
    /* Reset the URS Bit */
    TIMx->CR1 &= (uint16_t)~TIM_CR1_URS;
 8001502:	8803      	ldrh	r3, [r0, #0]
 8001504:	f023 0304 	bic.w	r3, r3, #4
 8001508:	041b      	lsls	r3, r3, #16
 800150a:	0c1b      	lsrs	r3, r3, #16
 800150c:	8003      	strh	r3, [r0, #0]
 800150e:	4770      	bx	lr

08001510 <TIM_ARRPreloadConfig>:
TIM_ARRPreloadConfig():
C:\Users\Filip\Eclipse\Template\Debug/../STM32F4xx_StdPeriph_Driver/src/stm32f4xx_tim.c:522
{
  /* Check the parameters */
  assert_param(IS_TIM_ALL_PERIPH(TIMx));
  assert_param(IS_FUNCTIONAL_STATE(NewState));

  if (NewState != DISABLE)
 8001510:	b129      	cbz	r1, 800151e <TIM_ARRPreloadConfig+0xe>
C:\Users\Filip\Eclipse\Template\Debug/../STM32F4xx_StdPeriph_Driver/src/stm32f4xx_tim.c:525
  {
    /* Set the ARR Preload Bit */
    TIMx->CR1 |= TIM_CR1_ARPE;
 8001512:	8803      	ldrh	r3, [r0, #0]
 8001514:	b29b      	uxth	r3, r3
 8001516:	f043 0380 	orr.w	r3, r3, #128	; 0x80
 800151a:	8003      	strh	r3, [r0, #0]
 800151c:	4770      	bx	lr
C:\Users\Filip\Eclipse\Template\Debug/../STM32F4xx_StdPeriph_Driver/src/stm32f4xx_tim.c:530
  }
  else
  {
    /* Reset the ARR Preload Bit */
    TIMx->CR1 &= (uint16_t)~TIM_CR1_ARPE;
 800151e:	8803      	ldrh	r3, [r0, #0]
 8001520:	f023 0380 	bic.w	r3, r3, #128	; 0x80
 8001524:	041b      	lsls	r3, r3, #16
 8001526:	0c1b      	lsrs	r3, r3, #16
 8001528:	8003      	strh	r3, [r0, #0]
 800152a:	4770      	bx	lr

0800152c <TIM_SelectOnePulseMode>:
TIM_SelectOnePulseMode():
C:\Users\Filip\Eclipse\Template\Debug/../STM32F4xx_StdPeriph_Driver/src/stm32f4xx_tim.c:550
  /* Check the parameters */
  assert_param(IS_TIM_ALL_PERIPH(TIMx));
  assert_param(IS_TIM_OPM_MODE(TIM_OPMode));

  /* Reset the OPM Bit */
  TIMx->CR1 &= (uint16_t)~TIM_CR1_OPM;
 800152c:	8803      	ldrh	r3, [r0, #0]
 800152e:	f023 0308 	bic.w	r3, r3, #8
 8001532:	041b      	lsls	r3, r3, #16
 8001534:	0c1b      	lsrs	r3, r3, #16
 8001536:	8003      	strh	r3, [r0, #0]
C:\Users\Filip\Eclipse\Template\Debug/../STM32F4xx_StdPeriph_Driver/src/stm32f4xx_tim.c:553

  /* Configure the OPM Mode */
  TIMx->CR1 |= TIM_OPMode;
 8001538:	8803      	ldrh	r3, [r0, #0]
 800153a:	b29b      	uxth	r3, r3
 800153c:	4319      	orrs	r1, r3
 800153e:	8001      	strh	r1, [r0, #0]
 8001540:	4770      	bx	lr
 8001542:	bf00      	nop

08001544 <TIM_SetClockDivision>:
TIM_SetClockDivision():
C:\Users\Filip\Eclipse\Template\Debug/../STM32F4xx_StdPeriph_Driver/src/stm32f4xx_tim.c:573
  /* Check the parameters */
  assert_param(IS_TIM_LIST1_PERIPH(TIMx));
  assert_param(IS_TIM_CKD_DIV(TIM_CKD));

  /* Reset the CKD Bits */
  TIMx->CR1 &= (uint16_t)(~TIM_CR1_CKD);
 8001544:	8803      	ldrh	r3, [r0, #0]
 8001546:	f423 7340 	bic.w	r3, r3, #768	; 0x300
 800154a:	041b      	lsls	r3, r3, #16
 800154c:	0c1b      	lsrs	r3, r3, #16
 800154e:	8003      	strh	r3, [r0, #0]
C:\Users\Filip\Eclipse\Template\Debug/../STM32F4xx_StdPeriph_Driver/src/stm32f4xx_tim.c:576

  /* Set the CKD value */
  TIMx->CR1 |= TIM_CKD;
 8001550:	8803      	ldrh	r3, [r0, #0]
 8001552:	b29b      	uxth	r3, r3
 8001554:	4319      	orrs	r1, r3
 8001556:	8001      	strh	r1, [r0, #0]
 8001558:	4770      	bx	lr
 800155a:	bf00      	nop

0800155c <TIM_Cmd>:
TIM_Cmd():
C:\Users\Filip\Eclipse\Template\Debug/../STM32F4xx_StdPeriph_Driver/src/stm32f4xx_tim.c:592
{
  /* Check the parameters */
  assert_param(IS_TIM_ALL_PERIPH(TIMx)); 
  assert_param(IS_FUNCTIONAL_STATE(NewState));
  
  if (NewState != DISABLE)
 800155c:	b129      	cbz	r1, 800156a <TIM_Cmd+0xe>
C:\Users\Filip\Eclipse\Template\Debug/../STM32F4xx_StdPeriph_Driver/src/stm32f4xx_tim.c:595
  {
    /* Enable the TIM Counter */
    TIMx->CR1 |= TIM_CR1_CEN;
 800155e:	8803      	ldrh	r3, [r0, #0]
 8001560:	b29b      	uxth	r3, r3
 8001562:	f043 0301 	orr.w	r3, r3, #1
 8001566:	8003      	strh	r3, [r0, #0]
 8001568:	4770      	bx	lr
C:\Users\Filip\Eclipse\Template\Debug/../STM32F4xx_StdPeriph_Driver/src/stm32f4xx_tim.c:600
  }
  else
  {
    /* Disable the TIM Counter */
    TIMx->CR1 &= (uint16_t)~TIM_CR1_CEN;
 800156a:	8803      	ldrh	r3, [r0, #0]
 800156c:	f023 0301 	bic.w	r3, r3, #1
 8001570:	041b      	lsls	r3, r3, #16
 8001572:	0c1b      	lsrs	r3, r3, #16
 8001574:	8003      	strh	r3, [r0, #0]
 8001576:	4770      	bx	lr

08001578 <TIM_OC1Init>:
TIM_OC1Init():
C:\Users\Filip\Eclipse\Template\Debug/../STM32F4xx_StdPeriph_Driver/src/stm32f4xx_tim.c:666
  * @param  TIM_OCInitStruct: pointer to a TIM_OCInitTypeDef structure that contains
  *         the configuration information for the specified TIM peripheral.
  * @retval None
  */
void TIM_OC1Init(TIM_TypeDef* TIMx, TIM_OCInitTypeDef* TIM_OCInitStruct)
{
 8001578:	b430      	push	{r4, r5}
C:\Users\Filip\Eclipse\Template\Debug/../STM32F4xx_StdPeriph_Driver/src/stm32f4xx_tim.c:676
  assert_param(IS_TIM_OC_MODE(TIM_OCInitStruct->TIM_OCMode));
  assert_param(IS_TIM_OUTPUT_STATE(TIM_OCInitStruct->TIM_OutputState));
  assert_param(IS_TIM_OC_POLARITY(TIM_OCInitStruct->TIM_OCPolarity));   

  /* Disable the Channel 1: Reset the CC1E Bit */
  TIMx->CCER &= (uint16_t)~TIM_CCER_CC1E;
 800157a:	8c03      	ldrh	r3, [r0, #32]
 800157c:	f023 0301 	bic.w	r3, r3, #1
 8001580:	041b      	lsls	r3, r3, #16
 8001582:	0c1b      	lsrs	r3, r3, #16
 8001584:	8403      	strh	r3, [r0, #32]
C:\Users\Filip\Eclipse\Template\Debug/../STM32F4xx_StdPeriph_Driver/src/stm32f4xx_tim.c:679
  
  /* Get the TIMx CCER register value */
  tmpccer = TIMx->CCER;
 8001586:	8c03      	ldrh	r3, [r0, #32]
C:\Users\Filip\Eclipse\Template\Debug/../STM32F4xx_StdPeriph_Driver/src/stm32f4xx_tim.c:681
  /* Get the TIMx CR2 register value */
  tmpcr2 =  TIMx->CR2;
 8001588:	8884      	ldrh	r4, [r0, #4]
 800158a:	b2a4      	uxth	r4, r4
C:\Users\Filip\Eclipse\Template\Debug/../STM32F4xx_StdPeriph_Driver/src/stm32f4xx_tim.c:684
  
  /* Get the TIMx CCMR1 register value */
  tmpccmrx = TIMx->CCMR1;
 800158c:	8b02      	ldrh	r2, [r0, #24]
C:\Users\Filip\Eclipse\Template\Debug/../STM32F4xx_StdPeriph_Driver/src/stm32f4xx_tim.c:688
    
  /* Reset the Output Compare Mode Bits */
  tmpccmrx &= (uint16_t)~TIM_CCMR1_OC1M;
  tmpccmrx &= (uint16_t)~TIM_CCMR1_CC1S;
 800158e:	f022 0273 	bic.w	r2, r2, #115	; 0x73
 8001592:	0412      	lsls	r2, r2, #16
 8001594:	0c12      	lsrs	r2, r2, #16
C:\Users\Filip\Eclipse\Template\Debug/../STM32F4xx_StdPeriph_Driver/src/stm32f4xx_tim.c:690
  /* Select the Output Compare Mode */
  tmpccmrx |= TIM_OCInitStruct->TIM_OCMode;
 8001596:	880d      	ldrh	r5, [r1, #0]
 8001598:	432a      	orrs	r2, r5
C:\Users\Filip\Eclipse\Template\Debug/../STM32F4xx_StdPeriph_Driver/src/stm32f4xx_tim.c:693
  
  /* Reset the Output Polarity level */
  tmpccer &= (uint16_t)~TIM_CCER_CC1P;
 800159a:	f023 0302 	bic.w	r3, r3, #2
 800159e:	041b      	lsls	r3, r3, #16
 80015a0:	0c1b      	lsrs	r3, r3, #16
C:\Users\Filip\Eclipse\Template\Debug/../STM32F4xx_StdPeriph_Driver/src/stm32f4xx_tim.c:695
  /* Set the Output Compare Polarity */
  tmpccer |= TIM_OCInitStruct->TIM_OCPolarity;
 80015a2:	898d      	ldrh	r5, [r1, #12]
 80015a4:	432b      	orrs	r3, r5
C:\Users\Filip\Eclipse\Template\Debug/../STM32F4xx_StdPeriph_Driver/src/stm32f4xx_tim.c:698
  
  /* Set the Output State */
  tmpccer |= TIM_OCInitStruct->TIM_OutputState;
 80015a6:	884d      	ldrh	r5, [r1, #2]
 80015a8:	432b      	orrs	r3, r5
C:\Users\Filip\Eclipse\Template\Debug/../STM32F4xx_StdPeriph_Driver/src/stm32f4xx_tim.c:700
    
  if((TIMx == TIM1) || (TIMx == TIM8))
 80015aa:	4d0e      	ldr	r5, [pc, #56]	; (80015e4 <TIM_OC1Init+0x6c>)
 80015ac:	42a8      	cmp	r0, r5
 80015ae:	d003      	beq.n	80015b8 <TIM_OC1Init+0x40>
C:\Users\Filip\Eclipse\Template\Debug/../STM32F4xx_StdPeriph_Driver/src/stm32f4xx_tim.c:700 (discriminator 1)
 80015b0:	f505 6580 	add.w	r5, r5, #1024	; 0x400
 80015b4:	42a8      	cmp	r0, r5
 80015b6:	d10d      	bne.n	80015d4 <TIM_OC1Init+0x5c>
C:\Users\Filip\Eclipse\Template\Debug/../STM32F4xx_StdPeriph_Driver/src/stm32f4xx_tim.c:708
    assert_param(IS_TIM_OCN_POLARITY(TIM_OCInitStruct->TIM_OCNPolarity));
    assert_param(IS_TIM_OCNIDLE_STATE(TIM_OCInitStruct->TIM_OCNIdleState));
    assert_param(IS_TIM_OCIDLE_STATE(TIM_OCInitStruct->TIM_OCIdleState));
    
    /* Reset the Output N Polarity level */
    tmpccer &= (uint16_t)~TIM_CCER_CC1NP;
 80015b8:	f023 0308 	bic.w	r3, r3, #8
C:\Users\Filip\Eclipse\Template\Debug/../STM32F4xx_StdPeriph_Driver/src/stm32f4xx_tim.c:710
    /* Set the Output N Polarity */
    tmpccer |= TIM_OCInitStruct->TIM_OCNPolarity;
 80015bc:	89cd      	ldrh	r5, [r1, #14]
 80015be:	432b      	orrs	r3, r5
C:\Users\Filip\Eclipse\Template\Debug/../STM32F4xx_StdPeriph_Driver/src/stm32f4xx_tim.c:712
    /* Reset the Output N State */
    tmpccer &= (uint16_t)~TIM_CCER_CC1NE;
 80015c0:	f023 0304 	bic.w	r3, r3, #4
C:\Users\Filip\Eclipse\Template\Debug/../STM32F4xx_StdPeriph_Driver/src/stm32f4xx_tim.c:715
    
    /* Set the Output N State */
    tmpccer |= TIM_OCInitStruct->TIM_OutputNState;
 80015c4:	888d      	ldrh	r5, [r1, #4]
 80015c6:	432b      	orrs	r3, r5
C:\Users\Filip\Eclipse\Template\Debug/../STM32F4xx_StdPeriph_Driver/src/stm32f4xx_tim.c:718
    /* Reset the Output Compare and Output Compare N IDLE State */
    tmpcr2 &= (uint16_t)~TIM_CR2_OIS1;
    tmpcr2 &= (uint16_t)~TIM_CR2_OIS1N;
 80015c8:	f424 7440 	bic.w	r4, r4, #768	; 0x300
C:\Users\Filip\Eclipse\Template\Debug/../STM32F4xx_StdPeriph_Driver/src/stm32f4xx_tim.c:720
    /* Set the Output Idle state */
    tmpcr2 |= TIM_OCInitStruct->TIM_OCIdleState;
 80015cc:	8a0d      	ldrh	r5, [r1, #16]
 80015ce:	432c      	orrs	r4, r5
C:\Users\Filip\Eclipse\Template\Debug/../STM32F4xx_StdPeriph_Driver/src/stm32f4xx_tim.c:722
    /* Set the Output N Idle state */
    tmpcr2 |= TIM_OCInitStruct->TIM_OCNIdleState;
 80015d0:	8a4d      	ldrh	r5, [r1, #18]
 80015d2:	432c      	orrs	r4, r5
C:\Users\Filip\Eclipse\Template\Debug/../STM32F4xx_StdPeriph_Driver/src/stm32f4xx_tim.c:725
  }
  /* Write to TIMx CR2 */
  TIMx->CR2 = tmpcr2;
 80015d4:	8084      	strh	r4, [r0, #4]
C:\Users\Filip\Eclipse\Template\Debug/../STM32F4xx_StdPeriph_Driver/src/stm32f4xx_tim.c:728
  
  /* Write to TIMx CCMR1 */
  TIMx->CCMR1 = tmpccmrx;
 80015d6:	8302      	strh	r2, [r0, #24]
C:\Users\Filip\Eclipse\Template\Debug/../STM32F4xx_StdPeriph_Driver/src/stm32f4xx_tim.c:731
  
  /* Set the Capture Compare Register value */
  TIMx->CCR1 = TIM_OCInitStruct->TIM_Pulse;
 80015d8:	688a      	ldr	r2, [r1, #8]
 80015da:	6342      	str	r2, [r0, #52]	; 0x34
C:\Users\Filip\Eclipse\Template\Debug/../STM32F4xx_StdPeriph_Driver/src/stm32f4xx_tim.c:734
  
  /* Write to TIMx CCER */
  TIMx->CCER = tmpccer;
 80015dc:	8403      	strh	r3, [r0, #32]
C:\Users\Filip\Eclipse\Template\Debug/../STM32F4xx_StdPeriph_Driver/src/stm32f4xx_tim.c:735
}
 80015de:	bc30      	pop	{r4, r5}
 80015e0:	4770      	bx	lr
 80015e2:	bf00      	nop
 80015e4:	40010000 	.word	0x40010000

080015e8 <TIM_OC2Init>:
TIM_OC2Init():
C:\Users\Filip\Eclipse\Template\Debug/../STM32F4xx_StdPeriph_Driver/src/stm32f4xx_tim.c:747
  * @param  TIM_OCInitStruct: pointer to a TIM_OCInitTypeDef structure that contains
  *         the configuration information for the specified TIM peripheral.
  * @retval None
  */
void TIM_OC2Init(TIM_TypeDef* TIMx, TIM_OCInitTypeDef* TIM_OCInitStruct)
{
 80015e8:	b430      	push	{r4, r5}
C:\Users\Filip\Eclipse\Template\Debug/../STM32F4xx_StdPeriph_Driver/src/stm32f4xx_tim.c:757
  assert_param(IS_TIM_OC_MODE(TIM_OCInitStruct->TIM_OCMode));
  assert_param(IS_TIM_OUTPUT_STATE(TIM_OCInitStruct->TIM_OutputState));
  assert_param(IS_TIM_OC_POLARITY(TIM_OCInitStruct->TIM_OCPolarity));   

  /* Disable the Channel 2: Reset the CC2E Bit */
  TIMx->CCER &= (uint16_t)~TIM_CCER_CC2E;
 80015ea:	8c03      	ldrh	r3, [r0, #32]
 80015ec:	f023 0310 	bic.w	r3, r3, #16
 80015f0:	041b      	lsls	r3, r3, #16
 80015f2:	0c1b      	lsrs	r3, r3, #16
 80015f4:	8403      	strh	r3, [r0, #32]
C:\Users\Filip\Eclipse\Template\Debug/../STM32F4xx_StdPeriph_Driver/src/stm32f4xx_tim.c:760
  
  /* Get the TIMx CCER register value */  
  tmpccer = TIMx->CCER;
 80015f6:	8c03      	ldrh	r3, [r0, #32]
C:\Users\Filip\Eclipse\Template\Debug/../STM32F4xx_StdPeriph_Driver/src/stm32f4xx_tim.c:762
  /* Get the TIMx CR2 register value */
  tmpcr2 =  TIMx->CR2;
 80015f8:	8884      	ldrh	r4, [r0, #4]
 80015fa:	b2a4      	uxth	r4, r4
C:\Users\Filip\Eclipse\Template\Debug/../STM32F4xx_StdPeriph_Driver/src/stm32f4xx_tim.c:765
  
  /* Get the TIMx CCMR1 register value */
  tmpccmrx = TIMx->CCMR1;
 80015fc:	8b02      	ldrh	r2, [r0, #24]
C:\Users\Filip\Eclipse\Template\Debug/../STM32F4xx_StdPeriph_Driver/src/stm32f4xx_tim.c:769
    
  /* Reset the Output Compare mode and Capture/Compare selection Bits */
  tmpccmrx &= (uint16_t)~TIM_CCMR1_OC2M;
  tmpccmrx &= (uint16_t)~TIM_CCMR1_CC2S;
 80015fe:	f422 42e6 	bic.w	r2, r2, #29440	; 0x7300
 8001602:	0412      	lsls	r2, r2, #16
 8001604:	0c12      	lsrs	r2, r2, #16
C:\Users\Filip\Eclipse\Template\Debug/../STM32F4xx_StdPeriph_Driver/src/stm32f4xx_tim.c:772
  
  /* Select the Output Compare Mode */
  tmpccmrx |= (uint16_t)(TIM_OCInitStruct->TIM_OCMode << 8);
 8001606:	880d      	ldrh	r5, [r1, #0]
 8001608:	022d      	lsls	r5, r5, #8
 800160a:	b2ad      	uxth	r5, r5
 800160c:	432a      	orrs	r2, r5
C:\Users\Filip\Eclipse\Template\Debug/../STM32F4xx_StdPeriph_Driver/src/stm32f4xx_tim.c:775
  
  /* Reset the Output Polarity level */
  tmpccer &= (uint16_t)~TIM_CCER_CC2P;
 800160e:	f023 0320 	bic.w	r3, r3, #32
 8001612:	041b      	lsls	r3, r3, #16
 8001614:	0c1b      	lsrs	r3, r3, #16
C:\Users\Filip\Eclipse\Template\Debug/../STM32F4xx_StdPeriph_Driver/src/stm32f4xx_tim.c:777
  /* Set the Output Compare Polarity */
  tmpccer |= (uint16_t)(TIM_OCInitStruct->TIM_OCPolarity << 4);
 8001616:	898d      	ldrh	r5, [r1, #12]
 8001618:	012d      	lsls	r5, r5, #4
 800161a:	b2ad      	uxth	r5, r5
 800161c:	432b      	orrs	r3, r5
C:\Users\Filip\Eclipse\Template\Debug/../STM32F4xx_StdPeriph_Driver/src/stm32f4xx_tim.c:780
  
  /* Set the Output State */
  tmpccer |= (uint16_t)(TIM_OCInitStruct->TIM_OutputState << 4);
 800161e:	884d      	ldrh	r5, [r1, #2]
 8001620:	012d      	lsls	r5, r5, #4
 8001622:	b2ad      	uxth	r5, r5
 8001624:	432b      	orrs	r3, r5
C:\Users\Filip\Eclipse\Template\Debug/../STM32F4xx_StdPeriph_Driver/src/stm32f4xx_tim.c:782
    
  if((TIMx == TIM1) || (TIMx == TIM8))
 8001626:	4d12      	ldr	r5, [pc, #72]	; (8001670 <TIM_OC2Init+0x88>)
 8001628:	42a8      	cmp	r0, r5
 800162a:	d003      	beq.n	8001634 <TIM_OC2Init+0x4c>
C:\Users\Filip\Eclipse\Template\Debug/../STM32F4xx_StdPeriph_Driver/src/stm32f4xx_tim.c:782 (discriminator 1)
 800162c:	f505 6580 	add.w	r5, r5, #1024	; 0x400
 8001630:	42a8      	cmp	r0, r5
 8001632:	d115      	bne.n	8001660 <TIM_OC2Init+0x78>
C:\Users\Filip\Eclipse\Template\Debug/../STM32F4xx_StdPeriph_Driver/src/stm32f4xx_tim.c:790
    assert_param(IS_TIM_OCN_POLARITY(TIM_OCInitStruct->TIM_OCNPolarity));
    assert_param(IS_TIM_OCNIDLE_STATE(TIM_OCInitStruct->TIM_OCNIdleState));
    assert_param(IS_TIM_OCIDLE_STATE(TIM_OCInitStruct->TIM_OCIdleState));
    
    /* Reset the Output N Polarity level */
    tmpccer &= (uint16_t)~TIM_CCER_CC2NP;
 8001634:	f023 0380 	bic.w	r3, r3, #128	; 0x80
C:\Users\Filip\Eclipse\Template\Debug/../STM32F4xx_StdPeriph_Driver/src/stm32f4xx_tim.c:792
    /* Set the Output N Polarity */
    tmpccer |= (uint16_t)(TIM_OCInitStruct->TIM_OCNPolarity << 4);
 8001638:	89cd      	ldrh	r5, [r1, #14]
 800163a:	012d      	lsls	r5, r5, #4
 800163c:	b2ad      	uxth	r5, r5
 800163e:	431d      	orrs	r5, r3
C:\Users\Filip\Eclipse\Template\Debug/../STM32F4xx_StdPeriph_Driver/src/stm32f4xx_tim.c:794
    /* Reset the Output N State */
    tmpccer &= (uint16_t)~TIM_CCER_CC2NE;
 8001640:	f025 0540 	bic.w	r5, r5, #64	; 0x40
C:\Users\Filip\Eclipse\Template\Debug/../STM32F4xx_StdPeriph_Driver/src/stm32f4xx_tim.c:797
    
    /* Set the Output N State */
    tmpccer |= (uint16_t)(TIM_OCInitStruct->TIM_OutputNState << 4);
 8001644:	888b      	ldrh	r3, [r1, #4]
 8001646:	011b      	lsls	r3, r3, #4
 8001648:	b29b      	uxth	r3, r3
 800164a:	432b      	orrs	r3, r5
C:\Users\Filip\Eclipse\Template\Debug/../STM32F4xx_StdPeriph_Driver/src/stm32f4xx_tim.c:800
    /* Reset the Output Compare and Output Compare N IDLE State */
    tmpcr2 &= (uint16_t)~TIM_CR2_OIS2;
    tmpcr2 &= (uint16_t)~TIM_CR2_OIS2N;
 800164c:	f424 6440 	bic.w	r4, r4, #3072	; 0xc00
C:\Users\Filip\Eclipse\Template\Debug/../STM32F4xx_StdPeriph_Driver/src/stm32f4xx_tim.c:802
    /* Set the Output Idle state */
    tmpcr2 |= (uint16_t)(TIM_OCInitStruct->TIM_OCIdleState << 2);
 8001650:	8a0d      	ldrh	r5, [r1, #16]
 8001652:	00ad      	lsls	r5, r5, #2
 8001654:	b2ad      	uxth	r5, r5
 8001656:	4325      	orrs	r5, r4
C:\Users\Filip\Eclipse\Template\Debug/../STM32F4xx_StdPeriph_Driver/src/stm32f4xx_tim.c:804
    /* Set the Output N Idle state */
    tmpcr2 |= (uint16_t)(TIM_OCInitStruct->TIM_OCNIdleState << 2);
 8001658:	8a4c      	ldrh	r4, [r1, #18]
 800165a:	00a4      	lsls	r4, r4, #2
 800165c:	b2a4      	uxth	r4, r4
 800165e:	432c      	orrs	r4, r5
C:\Users\Filip\Eclipse\Template\Debug/../STM32F4xx_StdPeriph_Driver/src/stm32f4xx_tim.c:807
  }
  /* Write to TIMx CR2 */
  TIMx->CR2 = tmpcr2;
 8001660:	8084      	strh	r4, [r0, #4]
C:\Users\Filip\Eclipse\Template\Debug/../STM32F4xx_StdPeriph_Driver/src/stm32f4xx_tim.c:810
  
  /* Write to TIMx CCMR1 */
  TIMx->CCMR1 = tmpccmrx;
 8001662:	8302      	strh	r2, [r0, #24]
C:\Users\Filip\Eclipse\Template\Debug/../STM32F4xx_StdPeriph_Driver/src/stm32f4xx_tim.c:813
  
  /* Set the Capture Compare Register value */
  TIMx->CCR2 = TIM_OCInitStruct->TIM_Pulse;
 8001664:	688a      	ldr	r2, [r1, #8]
 8001666:	6382      	str	r2, [r0, #56]	; 0x38
C:\Users\Filip\Eclipse\Template\Debug/../STM32F4xx_StdPeriph_Driver/src/stm32f4xx_tim.c:816
  
  /* Write to TIMx CCER */
  TIMx->CCER = tmpccer;
 8001668:	8403      	strh	r3, [r0, #32]
C:\Users\Filip\Eclipse\Template\Debug/../STM32F4xx_StdPeriph_Driver/src/stm32f4xx_tim.c:817
}
 800166a:	bc30      	pop	{r4, r5}
 800166c:	4770      	bx	lr
 800166e:	bf00      	nop
 8001670:	40010000 	.word	0x40010000

08001674 <TIM_OC3Init>:
TIM_OC3Init():
C:\Users\Filip\Eclipse\Template\Debug/../STM32F4xx_StdPeriph_Driver/src/stm32f4xx_tim.c:828
  * @param  TIM_OCInitStruct: pointer to a TIM_OCInitTypeDef structure that contains
  *         the configuration information for the specified TIM peripheral.
  * @retval None
  */
void TIM_OC3Init(TIM_TypeDef* TIMx, TIM_OCInitTypeDef* TIM_OCInitStruct)
{
 8001674:	b430      	push	{r4, r5}
C:\Users\Filip\Eclipse\Template\Debug/../STM32F4xx_StdPeriph_Driver/src/stm32f4xx_tim.c:838
  assert_param(IS_TIM_OC_MODE(TIM_OCInitStruct->TIM_OCMode));
  assert_param(IS_TIM_OUTPUT_STATE(TIM_OCInitStruct->TIM_OutputState));
  assert_param(IS_TIM_OC_POLARITY(TIM_OCInitStruct->TIM_OCPolarity));   

  /* Disable the Channel 3: Reset the CC2E Bit */
  TIMx->CCER &= (uint16_t)~TIM_CCER_CC3E;
 8001676:	8c03      	ldrh	r3, [r0, #32]
 8001678:	f423 7380 	bic.w	r3, r3, #256	; 0x100
 800167c:	041b      	lsls	r3, r3, #16
 800167e:	0c1b      	lsrs	r3, r3, #16
 8001680:	8403      	strh	r3, [r0, #32]
C:\Users\Filip\Eclipse\Template\Debug/../STM32F4xx_StdPeriph_Driver/src/stm32f4xx_tim.c:841
  
  /* Get the TIMx CCER register value */
  tmpccer = TIMx->CCER;
 8001682:	8c03      	ldrh	r3, [r0, #32]
C:\Users\Filip\Eclipse\Template\Debug/../STM32F4xx_StdPeriph_Driver/src/stm32f4xx_tim.c:843
  /* Get the TIMx CR2 register value */
  tmpcr2 =  TIMx->CR2;
 8001684:	8884      	ldrh	r4, [r0, #4]
 8001686:	b2a4      	uxth	r4, r4
C:\Users\Filip\Eclipse\Template\Debug/../STM32F4xx_StdPeriph_Driver/src/stm32f4xx_tim.c:846
  
  /* Get the TIMx CCMR2 register value */
  tmpccmrx = TIMx->CCMR2;
 8001688:	8b82      	ldrh	r2, [r0, #28]
C:\Users\Filip\Eclipse\Template\Debug/../STM32F4xx_StdPeriph_Driver/src/stm32f4xx_tim.c:850
    
  /* Reset the Output Compare mode and Capture/Compare selection Bits */
  tmpccmrx &= (uint16_t)~TIM_CCMR2_OC3M;
  tmpccmrx &= (uint16_t)~TIM_CCMR2_CC3S;  
 800168a:	f022 0273 	bic.w	r2, r2, #115	; 0x73
 800168e:	0412      	lsls	r2, r2, #16
 8001690:	0c12      	lsrs	r2, r2, #16
C:\Users\Filip\Eclipse\Template\Debug/../STM32F4xx_StdPeriph_Driver/src/stm32f4xx_tim.c:852
  /* Select the Output Compare Mode */
  tmpccmrx |= TIM_OCInitStruct->TIM_OCMode;
 8001692:	880d      	ldrh	r5, [r1, #0]
 8001694:	432a      	orrs	r2, r5
C:\Users\Filip\Eclipse\Template\Debug/../STM32F4xx_StdPeriph_Driver/src/stm32f4xx_tim.c:855
  
  /* Reset the Output Polarity level */
  tmpccer &= (uint16_t)~TIM_CCER_CC3P;
 8001696:	f423 7300 	bic.w	r3, r3, #512	; 0x200
 800169a:	041b      	lsls	r3, r3, #16
 800169c:	0c1b      	lsrs	r3, r3, #16
C:\Users\Filip\Eclipse\Template\Debug/../STM32F4xx_StdPeriph_Driver/src/stm32f4xx_tim.c:857
  /* Set the Output Compare Polarity */
  tmpccer |= (uint16_t)(TIM_OCInitStruct->TIM_OCPolarity << 8);
 800169e:	898d      	ldrh	r5, [r1, #12]
 80016a0:	022d      	lsls	r5, r5, #8
 80016a2:	b2ad      	uxth	r5, r5
 80016a4:	432b      	orrs	r3, r5
C:\Users\Filip\Eclipse\Template\Debug/../STM32F4xx_StdPeriph_Driver/src/stm32f4xx_tim.c:860
  
  /* Set the Output State */
  tmpccer |= (uint16_t)(TIM_OCInitStruct->TIM_OutputState << 8);
 80016a6:	884d      	ldrh	r5, [r1, #2]
 80016a8:	022d      	lsls	r5, r5, #8
 80016aa:	b2ad      	uxth	r5, r5
 80016ac:	432b      	orrs	r3, r5
C:\Users\Filip\Eclipse\Template\Debug/../STM32F4xx_StdPeriph_Driver/src/stm32f4xx_tim.c:862
    
  if((TIMx == TIM1) || (TIMx == TIM8))
 80016ae:	4d12      	ldr	r5, [pc, #72]	; (80016f8 <TIM_OC3Init+0x84>)
 80016b0:	42a8      	cmp	r0, r5
 80016b2:	d003      	beq.n	80016bc <TIM_OC3Init+0x48>
C:\Users\Filip\Eclipse\Template\Debug/../STM32F4xx_StdPeriph_Driver/src/stm32f4xx_tim.c:862 (discriminator 1)
 80016b4:	f505 6580 	add.w	r5, r5, #1024	; 0x400
 80016b8:	42a8      	cmp	r0, r5
 80016ba:	d115      	bne.n	80016e8 <TIM_OC3Init+0x74>
C:\Users\Filip\Eclipse\Template\Debug/../STM32F4xx_StdPeriph_Driver/src/stm32f4xx_tim.c:870
    assert_param(IS_TIM_OCN_POLARITY(TIM_OCInitStruct->TIM_OCNPolarity));
    assert_param(IS_TIM_OCNIDLE_STATE(TIM_OCInitStruct->TIM_OCNIdleState));
    assert_param(IS_TIM_OCIDLE_STATE(TIM_OCInitStruct->TIM_OCIdleState));
    
    /* Reset the Output N Polarity level */
    tmpccer &= (uint16_t)~TIM_CCER_CC3NP;
 80016bc:	f423 6300 	bic.w	r3, r3, #2048	; 0x800
C:\Users\Filip\Eclipse\Template\Debug/../STM32F4xx_StdPeriph_Driver/src/stm32f4xx_tim.c:872
    /* Set the Output N Polarity */
    tmpccer |= (uint16_t)(TIM_OCInitStruct->TIM_OCNPolarity << 8);
 80016c0:	89cd      	ldrh	r5, [r1, #14]
 80016c2:	022d      	lsls	r5, r5, #8
 80016c4:	b2ad      	uxth	r5, r5
 80016c6:	431d      	orrs	r5, r3
C:\Users\Filip\Eclipse\Template\Debug/../STM32F4xx_StdPeriph_Driver/src/stm32f4xx_tim.c:874
    /* Reset the Output N State */
    tmpccer &= (uint16_t)~TIM_CCER_CC3NE;
 80016c8:	f425 6580 	bic.w	r5, r5, #1024	; 0x400
C:\Users\Filip\Eclipse\Template\Debug/../STM32F4xx_StdPeriph_Driver/src/stm32f4xx_tim.c:877
    
    /* Set the Output N State */
    tmpccer |= (uint16_t)(TIM_OCInitStruct->TIM_OutputNState << 8);
 80016cc:	888b      	ldrh	r3, [r1, #4]
 80016ce:	021b      	lsls	r3, r3, #8
 80016d0:	b29b      	uxth	r3, r3
 80016d2:	432b      	orrs	r3, r5
C:\Users\Filip\Eclipse\Template\Debug/../STM32F4xx_StdPeriph_Driver/src/stm32f4xx_tim.c:880
    /* Reset the Output Compare and Output Compare N IDLE State */
    tmpcr2 &= (uint16_t)~TIM_CR2_OIS3;
    tmpcr2 &= (uint16_t)~TIM_CR2_OIS3N;
 80016d4:	f424 5440 	bic.w	r4, r4, #12288	; 0x3000
C:\Users\Filip\Eclipse\Template\Debug/../STM32F4xx_StdPeriph_Driver/src/stm32f4xx_tim.c:882
    /* Set the Output Idle state */
    tmpcr2 |= (uint16_t)(TIM_OCInitStruct->TIM_OCIdleState << 4);
 80016d8:	8a0d      	ldrh	r5, [r1, #16]
 80016da:	012d      	lsls	r5, r5, #4
 80016dc:	b2ad      	uxth	r5, r5
 80016de:	4325      	orrs	r5, r4
C:\Users\Filip\Eclipse\Template\Debug/../STM32F4xx_StdPeriph_Driver/src/stm32f4xx_tim.c:884
    /* Set the Output N Idle state */
    tmpcr2 |= (uint16_t)(TIM_OCInitStruct->TIM_OCNIdleState << 4);
 80016e0:	8a4c      	ldrh	r4, [r1, #18]
 80016e2:	0124      	lsls	r4, r4, #4
 80016e4:	b2a4      	uxth	r4, r4
 80016e6:	432c      	orrs	r4, r5
C:\Users\Filip\Eclipse\Template\Debug/../STM32F4xx_StdPeriph_Driver/src/stm32f4xx_tim.c:887
  }
  /* Write to TIMx CR2 */
  TIMx->CR2 = tmpcr2;
 80016e8:	8084      	strh	r4, [r0, #4]
C:\Users\Filip\Eclipse\Template\Debug/../STM32F4xx_StdPeriph_Driver/src/stm32f4xx_tim.c:890
  
  /* Write to TIMx CCMR2 */
  TIMx->CCMR2 = tmpccmrx;
 80016ea:	8382      	strh	r2, [r0, #28]
C:\Users\Filip\Eclipse\Template\Debug/../STM32F4xx_StdPeriph_Driver/src/stm32f4xx_tim.c:893
  
  /* Set the Capture Compare Register value */
  TIMx->CCR3 = TIM_OCInitStruct->TIM_Pulse;
 80016ec:	688a      	ldr	r2, [r1, #8]
 80016ee:	63c2      	str	r2, [r0, #60]	; 0x3c
C:\Users\Filip\Eclipse\Template\Debug/../STM32F4xx_StdPeriph_Driver/src/stm32f4xx_tim.c:896
  
  /* Write to TIMx CCER */
  TIMx->CCER = tmpccer;
 80016f0:	8403      	strh	r3, [r0, #32]
C:\Users\Filip\Eclipse\Template\Debug/../STM32F4xx_StdPeriph_Driver/src/stm32f4xx_tim.c:897
}
 80016f2:	bc30      	pop	{r4, r5}
 80016f4:	4770      	bx	lr
 80016f6:	bf00      	nop
 80016f8:	40010000 	.word	0x40010000

080016fc <TIM_OC4Init>:
TIM_OC4Init():
C:\Users\Filip\Eclipse\Template\Debug/../STM32F4xx_StdPeriph_Driver/src/stm32f4xx_tim.c:908
  * @param  TIM_OCInitStruct: pointer to a TIM_OCInitTypeDef structure that contains
  *         the configuration information for the specified TIM peripheral.
  * @retval None
  */
void TIM_OC4Init(TIM_TypeDef* TIMx, TIM_OCInitTypeDef* TIM_OCInitStruct)
{
 80016fc:	b430      	push	{r4, r5}
C:\Users\Filip\Eclipse\Template\Debug/../STM32F4xx_StdPeriph_Driver/src/stm32f4xx_tim.c:918
  assert_param(IS_TIM_OC_MODE(TIM_OCInitStruct->TIM_OCMode));
  assert_param(IS_TIM_OUTPUT_STATE(TIM_OCInitStruct->TIM_OutputState));
  assert_param(IS_TIM_OC_POLARITY(TIM_OCInitStruct->TIM_OCPolarity));   

  /* Disable the Channel 4: Reset the CC4E Bit */
  TIMx->CCER &= (uint16_t)~TIM_CCER_CC4E;
 80016fe:	8c03      	ldrh	r3, [r0, #32]
 8001700:	f423 5380 	bic.w	r3, r3, #4096	; 0x1000
 8001704:	041b      	lsls	r3, r3, #16
 8001706:	0c1b      	lsrs	r3, r3, #16
 8001708:	8403      	strh	r3, [r0, #32]
C:\Users\Filip\Eclipse\Template\Debug/../STM32F4xx_StdPeriph_Driver/src/stm32f4xx_tim.c:921
  
  /* Get the TIMx CCER register value */
  tmpccer = TIMx->CCER;
 800170a:	8c03      	ldrh	r3, [r0, #32]
C:\Users\Filip\Eclipse\Template\Debug/../STM32F4xx_StdPeriph_Driver/src/stm32f4xx_tim.c:923
  /* Get the TIMx CR2 register value */
  tmpcr2 =  TIMx->CR2;
 800170c:	8884      	ldrh	r4, [r0, #4]
 800170e:	b2a4      	uxth	r4, r4
C:\Users\Filip\Eclipse\Template\Debug/../STM32F4xx_StdPeriph_Driver/src/stm32f4xx_tim.c:926
  
  /* Get the TIMx CCMR2 register value */
  tmpccmrx = TIMx->CCMR2;
 8001710:	8b82      	ldrh	r2, [r0, #28]
C:\Users\Filip\Eclipse\Template\Debug/../STM32F4xx_StdPeriph_Driver/src/stm32f4xx_tim.c:930
    
  /* Reset the Output Compare mode and Capture/Compare selection Bits */
  tmpccmrx &= (uint16_t)~TIM_CCMR2_OC4M;
  tmpccmrx &= (uint16_t)~TIM_CCMR2_CC4S;
 8001712:	f422 42e6 	bic.w	r2, r2, #29440	; 0x7300
 8001716:	0412      	lsls	r2, r2, #16
 8001718:	0c12      	lsrs	r2, r2, #16
C:\Users\Filip\Eclipse\Template\Debug/../STM32F4xx_StdPeriph_Driver/src/stm32f4xx_tim.c:933
  
  /* Select the Output Compare Mode */
  tmpccmrx |= (uint16_t)(TIM_OCInitStruct->TIM_OCMode << 8);
 800171a:	880d      	ldrh	r5, [r1, #0]
 800171c:	022d      	lsls	r5, r5, #8
 800171e:	b2ad      	uxth	r5, r5
 8001720:	432a      	orrs	r2, r5
C:\Users\Filip\Eclipse\Template\Debug/../STM32F4xx_StdPeriph_Driver/src/stm32f4xx_tim.c:936
  
  /* Reset the Output Polarity level */
  tmpccer &= (uint16_t)~TIM_CCER_CC4P;
 8001722:	f423 5300 	bic.w	r3, r3, #8192	; 0x2000
 8001726:	041b      	lsls	r3, r3, #16
 8001728:	0c1b      	lsrs	r3, r3, #16
C:\Users\Filip\Eclipse\Template\Debug/../STM32F4xx_StdPeriph_Driver/src/stm32f4xx_tim.c:938
  /* Set the Output Compare Polarity */
  tmpccer |= (uint16_t)(TIM_OCInitStruct->TIM_OCPolarity << 12);
 800172a:	898d      	ldrh	r5, [r1, #12]
 800172c:	032d      	lsls	r5, r5, #12
 800172e:	b2ad      	uxth	r5, r5
 8001730:	432b      	orrs	r3, r5
C:\Users\Filip\Eclipse\Template\Debug/../STM32F4xx_StdPeriph_Driver/src/stm32f4xx_tim.c:941
  
  /* Set the Output State */
  tmpccer |= (uint16_t)(TIM_OCInitStruct->TIM_OutputState << 12);
 8001732:	884d      	ldrh	r5, [r1, #2]
 8001734:	032d      	lsls	r5, r5, #12
 8001736:	b2ad      	uxth	r5, r5
 8001738:	432b      	orrs	r3, r5
C:\Users\Filip\Eclipse\Template\Debug/../STM32F4xx_StdPeriph_Driver/src/stm32f4xx_tim.c:943
  
  if((TIMx == TIM1) || (TIMx == TIM8))
 800173a:	4d0a      	ldr	r5, [pc, #40]	; (8001764 <TIM_OC4Init+0x68>)
 800173c:	42a8      	cmp	r0, r5
 800173e:	d003      	beq.n	8001748 <TIM_OC4Init+0x4c>
C:\Users\Filip\Eclipse\Template\Debug/../STM32F4xx_StdPeriph_Driver/src/stm32f4xx_tim.c:943 (discriminator 1)
 8001740:	f505 6580 	add.w	r5, r5, #1024	; 0x400
 8001744:	42a8      	cmp	r0, r5
 8001746:	d105      	bne.n	8001754 <TIM_OC4Init+0x58>
C:\Users\Filip\Eclipse\Template\Debug/../STM32F4xx_StdPeriph_Driver/src/stm32f4xx_tim.c:947
  {
    assert_param(IS_TIM_OCIDLE_STATE(TIM_OCInitStruct->TIM_OCIdleState));
    /* Reset the Output Compare IDLE State */
    tmpcr2 &=(uint16_t) ~TIM_CR2_OIS4;
 8001748:	f424 4480 	bic.w	r4, r4, #16384	; 0x4000
C:\Users\Filip\Eclipse\Template\Debug/../STM32F4xx_StdPeriph_Driver/src/stm32f4xx_tim.c:949
    /* Set the Output Idle state */
    tmpcr2 |= (uint16_t)(TIM_OCInitStruct->TIM_OCIdleState << 6);
 800174c:	8a0d      	ldrh	r5, [r1, #16]
 800174e:	01ad      	lsls	r5, r5, #6
 8001750:	b2ad      	uxth	r5, r5
 8001752:	432c      	orrs	r4, r5
C:\Users\Filip\Eclipse\Template\Debug/../STM32F4xx_StdPeriph_Driver/src/stm32f4xx_tim.c:952
  }
  /* Write to TIMx CR2 */
  TIMx->CR2 = tmpcr2;
 8001754:	8084      	strh	r4, [r0, #4]
C:\Users\Filip\Eclipse\Template\Debug/../STM32F4xx_StdPeriph_Driver/src/stm32f4xx_tim.c:955
  
  /* Write to TIMx CCMR2 */  
  TIMx->CCMR2 = tmpccmrx;
 8001756:	8382      	strh	r2, [r0, #28]
C:\Users\Filip\Eclipse\Template\Debug/../STM32F4xx_StdPeriph_Driver/src/stm32f4xx_tim.c:958
    
  /* Set the Capture Compare Register value */
  TIMx->CCR4 = TIM_OCInitStruct->TIM_Pulse;
 8001758:	688a      	ldr	r2, [r1, #8]
 800175a:	6402      	str	r2, [r0, #64]	; 0x40
C:\Users\Filip\Eclipse\Template\Debug/../STM32F4xx_StdPeriph_Driver/src/stm32f4xx_tim.c:961
  
  /* Write to TIMx CCER */
  TIMx->CCER = tmpccer;
 800175c:	8403      	strh	r3, [r0, #32]
C:\Users\Filip\Eclipse\Template\Debug/../STM32F4xx_StdPeriph_Driver/src/stm32f4xx_tim.c:962
}
 800175e:	bc30      	pop	{r4, r5}
 8001760:	4770      	bx	lr
 8001762:	bf00      	nop
 8001764:	40010000 	.word	0x40010000

08001768 <TIM_OCStructInit>:
TIM_OCStructInit():
C:\Users\Filip\Eclipse\Template\Debug/../STM32F4xx_StdPeriph_Driver/src/stm32f4xx_tim.c:973
  * @retval None
  */
void TIM_OCStructInit(TIM_OCInitTypeDef* TIM_OCInitStruct)
{
  /* Set the default configuration */
  TIM_OCInitStruct->TIM_OCMode = TIM_OCMode_Timing;
 8001768:	2300      	movs	r3, #0
 800176a:	8003      	strh	r3, [r0, #0]
C:\Users\Filip\Eclipse\Template\Debug/../STM32F4xx_StdPeriph_Driver/src/stm32f4xx_tim.c:974
  TIM_OCInitStruct->TIM_OutputState = TIM_OutputState_Disable;
 800176c:	8043      	strh	r3, [r0, #2]
C:\Users\Filip\Eclipse\Template\Debug/../STM32F4xx_StdPeriph_Driver/src/stm32f4xx_tim.c:975
  TIM_OCInitStruct->TIM_OutputNState = TIM_OutputNState_Disable;
 800176e:	8083      	strh	r3, [r0, #4]
C:\Users\Filip\Eclipse\Template\Debug/../STM32F4xx_StdPeriph_Driver/src/stm32f4xx_tim.c:976
  TIM_OCInitStruct->TIM_Pulse = 0x00000000;
 8001770:	6083      	str	r3, [r0, #8]
C:\Users\Filip\Eclipse\Template\Debug/../STM32F4xx_StdPeriph_Driver/src/stm32f4xx_tim.c:977
  TIM_OCInitStruct->TIM_OCPolarity = TIM_OCPolarity_High;
 8001772:	8183      	strh	r3, [r0, #12]
C:\Users\Filip\Eclipse\Template\Debug/../STM32F4xx_StdPeriph_Driver/src/stm32f4xx_tim.c:978
  TIM_OCInitStruct->TIM_OCNPolarity = TIM_OCPolarity_High;
 8001774:	81c3      	strh	r3, [r0, #14]
C:\Users\Filip\Eclipse\Template\Debug/../STM32F4xx_StdPeriph_Driver/src/stm32f4xx_tim.c:979
  TIM_OCInitStruct->TIM_OCIdleState = TIM_OCIdleState_Reset;
 8001776:	8203      	strh	r3, [r0, #16]
C:\Users\Filip\Eclipse\Template\Debug/../STM32F4xx_StdPeriph_Driver/src/stm32f4xx_tim.c:980
  TIM_OCInitStruct->TIM_OCNIdleState = TIM_OCNIdleState_Reset;
 8001778:	8243      	strh	r3, [r0, #18]
 800177a:	4770      	bx	lr

0800177c <TIM_SelectOCxM>:
TIM_SelectOCxM():
C:\Users\Filip\Eclipse\Template\Debug/../STM32F4xx_StdPeriph_Driver/src/stm32f4xx_tim.c:1007
  *            @arg TIM_ForcedAction_Active
  *            @arg TIM_ForcedAction_InActive
  * @retval None
  */
void TIM_SelectOCxM(TIM_TypeDef* TIMx, uint16_t TIM_Channel, uint16_t TIM_OCMode)
{
 800177c:	b430      	push	{r4, r5}
C:\Users\Filip\Eclipse\Template\Debug/../STM32F4xx_StdPeriph_Driver/src/stm32f4xx_tim.c:1017
  assert_param(IS_TIM_LIST1_PERIPH(TIMx));
  assert_param(IS_TIM_CHANNEL(TIM_Channel));
  assert_param(IS_TIM_OCM(TIM_OCMode));

  tmp = (uint32_t) TIMx;
  tmp += CCMR_OFFSET;
 800177e:	f100 0318 	add.w	r3, r0, #24
C:\Users\Filip\Eclipse\Template\Debug/../STM32F4xx_StdPeriph_Driver/src/stm32f4xx_tim.c:1019

  tmp1 = CCER_CCE_SET << (uint16_t)TIM_Channel;
 8001782:	2401      	movs	r4, #1
 8001784:	408c      	lsls	r4, r1
C:\Users\Filip\Eclipse\Template\Debug/../STM32F4xx_StdPeriph_Driver/src/stm32f4xx_tim.c:1022

  /* Disable the Channel: Reset the CCxE Bit */
  TIMx->CCER &= (uint16_t) ~tmp1;
 8001786:	8c05      	ldrh	r5, [r0, #32]
 8001788:	43e4      	mvns	r4, r4
 800178a:	b2a4      	uxth	r4, r4
 800178c:	402c      	ands	r4, r5
 800178e:	8404      	strh	r4, [r0, #32]
C:\Users\Filip\Eclipse\Template\Debug/../STM32F4xx_StdPeriph_Driver/src/stm32f4xx_tim.c:1024

  if((TIM_Channel == TIM_Channel_1) ||(TIM_Channel == TIM_Channel_3))
 8001790:	b109      	cbz	r1, 8001796 <TIM_SelectOCxM+0x1a>
C:\Users\Filip\Eclipse\Template\Debug/../STM32F4xx_StdPeriph_Driver/src/stm32f4xx_tim.c:1024 (discriminator 1)
 8001792:	2908      	cmp	r1, #8
 8001794:	d10a      	bne.n	80017ac <TIM_SelectOCxM+0x30>
C:\Users\Filip\Eclipse\Template\Debug/../STM32F4xx_StdPeriph_Driver/src/stm32f4xx_tim.c:1026
  {
    tmp += (TIM_Channel>>1);
 8001796:	0849      	lsrs	r1, r1, #1
C:\Users\Filip\Eclipse\Template\Debug/../STM32F4xx_StdPeriph_Driver/src/stm32f4xx_tim.c:1029

    /* Reset the OCxM bits in the CCMRx register */
    *(__IO uint32_t *) tmp &= CCMR_OC13M_MASK;
 8001798:	58c8      	ldr	r0, [r1, r3]
 800179a:	f020 0070 	bic.w	r0, r0, #112	; 0x70
 800179e:	0400      	lsls	r0, r0, #16
 80017a0:	0c00      	lsrs	r0, r0, #16
 80017a2:	50c8      	str	r0, [r1, r3]
C:\Users\Filip\Eclipse\Template\Debug/../STM32F4xx_StdPeriph_Driver/src/stm32f4xx_tim.c:1032
   
    /* Configure the OCxM bits in the CCMRx register */
    *(__IO uint32_t *) tmp |= TIM_OCMode;
 80017a4:	58c8      	ldr	r0, [r1, r3]
 80017a6:	4302      	orrs	r2, r0
 80017a8:	50ca      	str	r2, [r1, r3]
 80017aa:	e00d      	b.n	80017c8 <TIM_SelectOCxM+0x4c>
C:\Users\Filip\Eclipse\Template\Debug/../STM32F4xx_StdPeriph_Driver/src/stm32f4xx_tim.c:1036
  }
  else
  {
    tmp += (uint16_t)(TIM_Channel - (uint16_t)4)>> (uint16_t)1;
 80017ac:	3904      	subs	r1, #4
 80017ae:	f3c1 014e 	ubfx	r1, r1, #1, #15
C:\Users\Filip\Eclipse\Template\Debug/../STM32F4xx_StdPeriph_Driver/src/stm32f4xx_tim.c:1039

    /* Reset the OCxM bits in the CCMRx register */
    *(__IO uint32_t *) tmp &= CCMR_OC24M_MASK;
 80017b2:	58c8      	ldr	r0, [r1, r3]
 80017b4:	f420 40e0 	bic.w	r0, r0, #28672	; 0x7000
 80017b8:	0400      	lsls	r0, r0, #16
 80017ba:	0c00      	lsrs	r0, r0, #16
 80017bc:	50c8      	str	r0, [r1, r3]
C:\Users\Filip\Eclipse\Template\Debug/../STM32F4xx_StdPeriph_Driver/src/stm32f4xx_tim.c:1042
    
    /* Configure the OCxM bits in the CCMRx register */
    *(__IO uint32_t *) tmp |= (uint16_t)(TIM_OCMode << 8);
 80017be:	58c8      	ldr	r0, [r1, r3]
 80017c0:	0212      	lsls	r2, r2, #8
 80017c2:	b292      	uxth	r2, r2
 80017c4:	4302      	orrs	r2, r0
 80017c6:	50ca      	str	r2, [r1, r3]
C:\Users\Filip\Eclipse\Template\Debug/../STM32F4xx_StdPeriph_Driver/src/stm32f4xx_tim.c:1044
  }
}
 80017c8:	bc30      	pop	{r4, r5}
 80017ca:	4770      	bx	lr

080017cc <TIM_SetCompare1>:
TIM_SetCompare1():
C:\Users\Filip\Eclipse\Template\Debug/../STM32F4xx_StdPeriph_Driver/src/stm32f4xx_tim.c:1058
{
  /* Check the parameters */
  assert_param(IS_TIM_LIST1_PERIPH(TIMx));

  /* Set the Capture Compare1 Register value */
  TIMx->CCR1 = Compare1;
 80017cc:	6341      	str	r1, [r0, #52]	; 0x34
 80017ce:	4770      	bx	lr

080017d0 <TIM_SetCompare2>:
TIM_SetCompare2():
C:\Users\Filip\Eclipse\Template\Debug/../STM32F4xx_StdPeriph_Driver/src/stm32f4xx_tim.c:1074
{
  /* Check the parameters */
  assert_param(IS_TIM_LIST2_PERIPH(TIMx));

  /* Set the Capture Compare2 Register value */
  TIMx->CCR2 = Compare2;
 80017d0:	6381      	str	r1, [r0, #56]	; 0x38
 80017d2:	4770      	bx	lr

080017d4 <TIM_SetCompare3>:
TIM_SetCompare3():
C:\Users\Filip\Eclipse\Template\Debug/../STM32F4xx_StdPeriph_Driver/src/stm32f4xx_tim.c:1089
{
  /* Check the parameters */
  assert_param(IS_TIM_LIST3_PERIPH(TIMx));

  /* Set the Capture Compare3 Register value */
  TIMx->CCR3 = Compare3;
 80017d4:	63c1      	str	r1, [r0, #60]	; 0x3c
 80017d6:	4770      	bx	lr

080017d8 <TIM_SetCompare4>:
TIM_SetCompare4():
C:\Users\Filip\Eclipse\Template\Debug/../STM32F4xx_StdPeriph_Driver/src/stm32f4xx_tim.c:1104
{
  /* Check the parameters */
  assert_param(IS_TIM_LIST3_PERIPH(TIMx));

  /* Set the Capture Compare4 Register value */
  TIMx->CCR4 = Compare4;
 80017d8:	6401      	str	r1, [r0, #64]	; 0x40
 80017da:	4770      	bx	lr

080017dc <TIM_ForcedOC1Config>:
TIM_ForcedOC1Config():
C:\Users\Filip\Eclipse\Template\Debug/../STM32F4xx_StdPeriph_Driver/src/stm32f4xx_tim.c:1123
  uint16_t tmpccmr1 = 0;

  /* Check the parameters */
  assert_param(IS_TIM_LIST1_PERIPH(TIMx));
  assert_param(IS_TIM_FORCED_ACTION(TIM_ForcedAction));
  tmpccmr1 = TIMx->CCMR1;
 80017dc:	8b03      	ldrh	r3, [r0, #24]
C:\Users\Filip\Eclipse\Template\Debug/../STM32F4xx_StdPeriph_Driver/src/stm32f4xx_tim.c:1126

  /* Reset the OC1M Bits */
  tmpccmr1 &= (uint16_t)~TIM_CCMR1_OC1M;
 80017de:	f023 0370 	bic.w	r3, r3, #112	; 0x70
 80017e2:	041b      	lsls	r3, r3, #16
 80017e4:	0c1b      	lsrs	r3, r3, #16
C:\Users\Filip\Eclipse\Template\Debug/../STM32F4xx_StdPeriph_Driver/src/stm32f4xx_tim.c:1129

  /* Configure The Forced output Mode */
  tmpccmr1 |= TIM_ForcedAction;
 80017e6:	4319      	orrs	r1, r3
C:\Users\Filip\Eclipse\Template\Debug/../STM32F4xx_StdPeriph_Driver/src/stm32f4xx_tim.c:1132

  /* Write to TIMx CCMR1 register */
  TIMx->CCMR1 = tmpccmr1;
 80017e8:	8301      	strh	r1, [r0, #24]
 80017ea:	4770      	bx	lr

080017ec <TIM_ForcedOC2Config>:
TIM_ForcedOC2Config():
C:\Users\Filip\Eclipse\Template\Debug/../STM32F4xx_StdPeriph_Driver/src/stm32f4xx_tim.c:1152
  uint16_t tmpccmr1 = 0;

  /* Check the parameters */
  assert_param(IS_TIM_LIST2_PERIPH(TIMx));
  assert_param(IS_TIM_FORCED_ACTION(TIM_ForcedAction));
  tmpccmr1 = TIMx->CCMR1;
 80017ec:	8b03      	ldrh	r3, [r0, #24]
C:\Users\Filip\Eclipse\Template\Debug/../STM32F4xx_StdPeriph_Driver/src/stm32f4xx_tim.c:1155

  /* Reset the OC2M Bits */
  tmpccmr1 &= (uint16_t)~TIM_CCMR1_OC2M;
 80017ee:	f423 43e0 	bic.w	r3, r3, #28672	; 0x7000
 80017f2:	041b      	lsls	r3, r3, #16
 80017f4:	0c1b      	lsrs	r3, r3, #16
C:\Users\Filip\Eclipse\Template\Debug/../STM32F4xx_StdPeriph_Driver/src/stm32f4xx_tim.c:1158

  /* Configure The Forced output Mode */
  tmpccmr1 |= (uint16_t)(TIM_ForcedAction << 8);
 80017f6:	0209      	lsls	r1, r1, #8
 80017f8:	b289      	uxth	r1, r1
 80017fa:	430b      	orrs	r3, r1
C:\Users\Filip\Eclipse\Template\Debug/../STM32F4xx_StdPeriph_Driver/src/stm32f4xx_tim.c:1161

  /* Write to TIMx CCMR1 register */
  TIMx->CCMR1 = tmpccmr1;
 80017fc:	8303      	strh	r3, [r0, #24]
 80017fe:	4770      	bx	lr

08001800 <TIM_ForcedOC3Config>:
TIM_ForcedOC3Config():
C:\Users\Filip\Eclipse\Template\Debug/../STM32F4xx_StdPeriph_Driver/src/stm32f4xx_tim.c:1181

  /* Check the parameters */
  assert_param(IS_TIM_LIST3_PERIPH(TIMx));
  assert_param(IS_TIM_FORCED_ACTION(TIM_ForcedAction));

  tmpccmr2 = TIMx->CCMR2;
 8001800:	8b83      	ldrh	r3, [r0, #28]
C:\Users\Filip\Eclipse\Template\Debug/../STM32F4xx_StdPeriph_Driver/src/stm32f4xx_tim.c:1184

  /* Reset the OC1M Bits */
  tmpccmr2 &= (uint16_t)~TIM_CCMR2_OC3M;
 8001802:	f023 0370 	bic.w	r3, r3, #112	; 0x70
 8001806:	041b      	lsls	r3, r3, #16
 8001808:	0c1b      	lsrs	r3, r3, #16
C:\Users\Filip\Eclipse\Template\Debug/../STM32F4xx_StdPeriph_Driver/src/stm32f4xx_tim.c:1187

  /* Configure The Forced output Mode */
  tmpccmr2 |= TIM_ForcedAction;
 800180a:	4319      	orrs	r1, r3
C:\Users\Filip\Eclipse\Template\Debug/../STM32F4xx_StdPeriph_Driver/src/stm32f4xx_tim.c:1190

  /* Write to TIMx CCMR2 register */
  TIMx->CCMR2 = tmpccmr2;
 800180c:	8381      	strh	r1, [r0, #28]
 800180e:	4770      	bx	lr

08001810 <TIM_ForcedOC4Config>:
TIM_ForcedOC4Config():
C:\Users\Filip\Eclipse\Template\Debug/../STM32F4xx_StdPeriph_Driver/src/stm32f4xx_tim.c:1209
  uint16_t tmpccmr2 = 0;

  /* Check the parameters */
  assert_param(IS_TIM_LIST3_PERIPH(TIMx));
  assert_param(IS_TIM_FORCED_ACTION(TIM_ForcedAction));
  tmpccmr2 = TIMx->CCMR2;
 8001810:	8b83      	ldrh	r3, [r0, #28]
C:\Users\Filip\Eclipse\Template\Debug/../STM32F4xx_StdPeriph_Driver/src/stm32f4xx_tim.c:1212

  /* Reset the OC2M Bits */
  tmpccmr2 &= (uint16_t)~TIM_CCMR2_OC4M;
 8001812:	f423 43e0 	bic.w	r3, r3, #28672	; 0x7000
 8001816:	041b      	lsls	r3, r3, #16
 8001818:	0c1b      	lsrs	r3, r3, #16
C:\Users\Filip\Eclipse\Template\Debug/../STM32F4xx_StdPeriph_Driver/src/stm32f4xx_tim.c:1215

  /* Configure The Forced output Mode */
  tmpccmr2 |= (uint16_t)(TIM_ForcedAction << 8);
 800181a:	0209      	lsls	r1, r1, #8
 800181c:	b289      	uxth	r1, r1
 800181e:	430b      	orrs	r3, r1
C:\Users\Filip\Eclipse\Template\Debug/../STM32F4xx_StdPeriph_Driver/src/stm32f4xx_tim.c:1218

  /* Write to TIMx CCMR2 register */
  TIMx->CCMR2 = tmpccmr2;
 8001820:	8383      	strh	r3, [r0, #28]
 8001822:	4770      	bx	lr

08001824 <TIM_OC1PreloadConfig>:
TIM_OC1PreloadConfig():
C:\Users\Filip\Eclipse\Template\Debug/../STM32F4xx_StdPeriph_Driver/src/stm32f4xx_tim.c:1238

  /* Check the parameters */
  assert_param(IS_TIM_LIST1_PERIPH(TIMx));
  assert_param(IS_TIM_OCPRELOAD_STATE(TIM_OCPreload));

  tmpccmr1 = TIMx->CCMR1;
 8001824:	8b03      	ldrh	r3, [r0, #24]
C:\Users\Filip\Eclipse\Template\Debug/../STM32F4xx_StdPeriph_Driver/src/stm32f4xx_tim.c:1241

  /* Reset the OC1PE Bit */
  tmpccmr1 &= (uint16_t)(~TIM_CCMR1_OC1PE);
 8001826:	f023 0308 	bic.w	r3, r3, #8
 800182a:	041b      	lsls	r3, r3, #16
 800182c:	0c1b      	lsrs	r3, r3, #16
C:\Users\Filip\Eclipse\Template\Debug/../STM32F4xx_StdPeriph_Driver/src/stm32f4xx_tim.c:1244

  /* Enable or Disable the Output Compare Preload feature */
  tmpccmr1 |= TIM_OCPreload;
 800182e:	4319      	orrs	r1, r3
C:\Users\Filip\Eclipse\Template\Debug/../STM32F4xx_StdPeriph_Driver/src/stm32f4xx_tim.c:1247

  /* Write to TIMx CCMR1 register */
  TIMx->CCMR1 = tmpccmr1;
 8001830:	8301      	strh	r1, [r0, #24]
 8001832:	4770      	bx	lr

08001834 <TIM_OC2PreloadConfig>:
TIM_OC2PreloadConfig():
C:\Users\Filip\Eclipse\Template\Debug/../STM32F4xx_StdPeriph_Driver/src/stm32f4xx_tim.c:1268

  /* Check the parameters */
  assert_param(IS_TIM_LIST2_PERIPH(TIMx));
  assert_param(IS_TIM_OCPRELOAD_STATE(TIM_OCPreload));

  tmpccmr1 = TIMx->CCMR1;
 8001834:	8b03      	ldrh	r3, [r0, #24]
C:\Users\Filip\Eclipse\Template\Debug/../STM32F4xx_StdPeriph_Driver/src/stm32f4xx_tim.c:1271

  /* Reset the OC2PE Bit */
  tmpccmr1 &= (uint16_t)(~TIM_CCMR1_OC2PE);
 8001836:	f423 6300 	bic.w	r3, r3, #2048	; 0x800
 800183a:	041b      	lsls	r3, r3, #16
 800183c:	0c1b      	lsrs	r3, r3, #16
C:\Users\Filip\Eclipse\Template\Debug/../STM32F4xx_StdPeriph_Driver/src/stm32f4xx_tim.c:1274

  /* Enable or Disable the Output Compare Preload feature */
  tmpccmr1 |= (uint16_t)(TIM_OCPreload << 8);
 800183e:	0209      	lsls	r1, r1, #8
 8001840:	b289      	uxth	r1, r1
 8001842:	430b      	orrs	r3, r1
C:\Users\Filip\Eclipse\Template\Debug/../STM32F4xx_StdPeriph_Driver/src/stm32f4xx_tim.c:1277

  /* Write to TIMx CCMR1 register */
  TIMx->CCMR1 = tmpccmr1;
 8001844:	8303      	strh	r3, [r0, #24]
 8001846:	4770      	bx	lr

08001848 <TIM_OC3PreloadConfig>:
TIM_OC3PreloadConfig():
C:\Users\Filip\Eclipse\Template\Debug/../STM32F4xx_StdPeriph_Driver/src/stm32f4xx_tim.c:1297

  /* Check the parameters */
  assert_param(IS_TIM_LIST3_PERIPH(TIMx));
  assert_param(IS_TIM_OCPRELOAD_STATE(TIM_OCPreload));

  tmpccmr2 = TIMx->CCMR2;
 8001848:	8b83      	ldrh	r3, [r0, #28]
C:\Users\Filip\Eclipse\Template\Debug/../STM32F4xx_StdPeriph_Driver/src/stm32f4xx_tim.c:1300

  /* Reset the OC3PE Bit */
  tmpccmr2 &= (uint16_t)(~TIM_CCMR2_OC3PE);
 800184a:	f023 0308 	bic.w	r3, r3, #8
 800184e:	041b      	lsls	r3, r3, #16
 8001850:	0c1b      	lsrs	r3, r3, #16
C:\Users\Filip\Eclipse\Template\Debug/../STM32F4xx_StdPeriph_Driver/src/stm32f4xx_tim.c:1303

  /* Enable or Disable the Output Compare Preload feature */
  tmpccmr2 |= TIM_OCPreload;
 8001852:	4319      	orrs	r1, r3
C:\Users\Filip\Eclipse\Template\Debug/../STM32F4xx_StdPeriph_Driver/src/stm32f4xx_tim.c:1306

  /* Write to TIMx CCMR2 register */
  TIMx->CCMR2 = tmpccmr2;
 8001854:	8381      	strh	r1, [r0, #28]
 8001856:	4770      	bx	lr

08001858 <TIM_OC4PreloadConfig>:
TIM_OC4PreloadConfig():
C:\Users\Filip\Eclipse\Template\Debug/../STM32F4xx_StdPeriph_Driver/src/stm32f4xx_tim.c:1326

  /* Check the parameters */
  assert_param(IS_TIM_LIST3_PERIPH(TIMx));
  assert_param(IS_TIM_OCPRELOAD_STATE(TIM_OCPreload));

  tmpccmr2 = TIMx->CCMR2;
 8001858:	8b83      	ldrh	r3, [r0, #28]
C:\Users\Filip\Eclipse\Template\Debug/../STM32F4xx_StdPeriph_Driver/src/stm32f4xx_tim.c:1329

  /* Reset the OC4PE Bit */
  tmpccmr2 &= (uint16_t)(~TIM_CCMR2_OC4PE);
 800185a:	f423 6300 	bic.w	r3, r3, #2048	; 0x800
 800185e:	041b      	lsls	r3, r3, #16
 8001860:	0c1b      	lsrs	r3, r3, #16
C:\Users\Filip\Eclipse\Template\Debug/../STM32F4xx_StdPeriph_Driver/src/stm32f4xx_tim.c:1332

  /* Enable or Disable the Output Compare Preload feature */
  tmpccmr2 |= (uint16_t)(TIM_OCPreload << 8);
 8001862:	0209      	lsls	r1, r1, #8
 8001864:	b289      	uxth	r1, r1
 8001866:	430b      	orrs	r3, r1
C:\Users\Filip\Eclipse\Template\Debug/../STM32F4xx_StdPeriph_Driver/src/stm32f4xx_tim.c:1335

  /* Write to TIMx CCMR2 register */
  TIMx->CCMR2 = tmpccmr2;
 8001868:	8383      	strh	r3, [r0, #28]
 800186a:	4770      	bx	lr

0800186c <TIM_OC1FastConfig>:
TIM_OC1FastConfig():
C:\Users\Filip\Eclipse\Template\Debug/../STM32F4xx_StdPeriph_Driver/src/stm32f4xx_tim.c:1356
  /* Check the parameters */
  assert_param(IS_TIM_LIST1_PERIPH(TIMx));
  assert_param(IS_TIM_OCFAST_STATE(TIM_OCFast));

  /* Get the TIMx CCMR1 register value */
  tmpccmr1 = TIMx->CCMR1;
 800186c:	8b03      	ldrh	r3, [r0, #24]
C:\Users\Filip\Eclipse\Template\Debug/../STM32F4xx_StdPeriph_Driver/src/stm32f4xx_tim.c:1359

  /* Reset the OC1FE Bit */
  tmpccmr1 &= (uint16_t)~TIM_CCMR1_OC1FE;
 800186e:	f023 0304 	bic.w	r3, r3, #4
 8001872:	041b      	lsls	r3, r3, #16
 8001874:	0c1b      	lsrs	r3, r3, #16
C:\Users\Filip\Eclipse\Template\Debug/../STM32F4xx_StdPeriph_Driver/src/stm32f4xx_tim.c:1362

  /* Enable or Disable the Output Compare Fast Bit */
  tmpccmr1 |= TIM_OCFast;
 8001876:	4319      	orrs	r1, r3
C:\Users\Filip\Eclipse\Template\Debug/../STM32F4xx_StdPeriph_Driver/src/stm32f4xx_tim.c:1365

  /* Write to TIMx CCMR1 */
  TIMx->CCMR1 = tmpccmr1;
 8001878:	8301      	strh	r1, [r0, #24]
 800187a:	4770      	bx	lr

0800187c <TIM_OC2FastConfig>:
TIM_OC2FastConfig():
C:\Users\Filip\Eclipse\Template\Debug/../STM32F4xx_StdPeriph_Driver/src/stm32f4xx_tim.c:1387
  /* Check the parameters */
  assert_param(IS_TIM_LIST2_PERIPH(TIMx));
  assert_param(IS_TIM_OCFAST_STATE(TIM_OCFast));

  /* Get the TIMx CCMR1 register value */
  tmpccmr1 = TIMx->CCMR1;
 800187c:	8b03      	ldrh	r3, [r0, #24]
C:\Users\Filip\Eclipse\Template\Debug/../STM32F4xx_StdPeriph_Driver/src/stm32f4xx_tim.c:1390

  /* Reset the OC2FE Bit */
  tmpccmr1 &= (uint16_t)(~TIM_CCMR1_OC2FE);
 800187e:	f423 6380 	bic.w	r3, r3, #1024	; 0x400
 8001882:	041b      	lsls	r3, r3, #16
 8001884:	0c1b      	lsrs	r3, r3, #16
C:\Users\Filip\Eclipse\Template\Debug/../STM32F4xx_StdPeriph_Driver/src/stm32f4xx_tim.c:1393

  /* Enable or Disable the Output Compare Fast Bit */
  tmpccmr1 |= (uint16_t)(TIM_OCFast << 8);
 8001886:	0209      	lsls	r1, r1, #8
 8001888:	b289      	uxth	r1, r1
 800188a:	430b      	orrs	r3, r1
C:\Users\Filip\Eclipse\Template\Debug/../STM32F4xx_StdPeriph_Driver/src/stm32f4xx_tim.c:1396

  /* Write to TIMx CCMR1 */
  TIMx->CCMR1 = tmpccmr1;
 800188c:	8303      	strh	r3, [r0, #24]
 800188e:	4770      	bx	lr

08001890 <TIM_OC3FastConfig>:
TIM_OC3FastConfig():
C:\Users\Filip\Eclipse\Template\Debug/../STM32F4xx_StdPeriph_Driver/src/stm32f4xx_tim.c:1417
  /* Check the parameters */
  assert_param(IS_TIM_LIST3_PERIPH(TIMx));
  assert_param(IS_TIM_OCFAST_STATE(TIM_OCFast));

  /* Get the TIMx CCMR2 register value */
  tmpccmr2 = TIMx->CCMR2;
 8001890:	8b83      	ldrh	r3, [r0, #28]
C:\Users\Filip\Eclipse\Template\Debug/../STM32F4xx_StdPeriph_Driver/src/stm32f4xx_tim.c:1420

  /* Reset the OC3FE Bit */
  tmpccmr2 &= (uint16_t)~TIM_CCMR2_OC3FE;
 8001892:	f023 0304 	bic.w	r3, r3, #4
 8001896:	041b      	lsls	r3, r3, #16
 8001898:	0c1b      	lsrs	r3, r3, #16
C:\Users\Filip\Eclipse\Template\Debug/../STM32F4xx_StdPeriph_Driver/src/stm32f4xx_tim.c:1423

  /* Enable or Disable the Output Compare Fast Bit */
  tmpccmr2 |= TIM_OCFast;
 800189a:	4319      	orrs	r1, r3
C:\Users\Filip\Eclipse\Template\Debug/../STM32F4xx_StdPeriph_Driver/src/stm32f4xx_tim.c:1426

  /* Write to TIMx CCMR2 */
  TIMx->CCMR2 = tmpccmr2;
 800189c:	8381      	strh	r1, [r0, #28]
 800189e:	4770      	bx	lr

080018a0 <TIM_OC4FastConfig>:
TIM_OC4FastConfig():
C:\Users\Filip\Eclipse\Template\Debug/../STM32F4xx_StdPeriph_Driver/src/stm32f4xx_tim.c:1447
  /* Check the parameters */
  assert_param(IS_TIM_LIST3_PERIPH(TIMx));
  assert_param(IS_TIM_OCFAST_STATE(TIM_OCFast));

  /* Get the TIMx CCMR2 register value */
  tmpccmr2 = TIMx->CCMR2;
 80018a0:	8b83      	ldrh	r3, [r0, #28]
C:\Users\Filip\Eclipse\Template\Debug/../STM32F4xx_StdPeriph_Driver/src/stm32f4xx_tim.c:1450

  /* Reset the OC4FE Bit */
  tmpccmr2 &= (uint16_t)(~TIM_CCMR2_OC4FE);
 80018a2:	f423 6380 	bic.w	r3, r3, #1024	; 0x400
 80018a6:	041b      	lsls	r3, r3, #16
 80018a8:	0c1b      	lsrs	r3, r3, #16
C:\Users\Filip\Eclipse\Template\Debug/../STM32F4xx_StdPeriph_Driver/src/stm32f4xx_tim.c:1453

  /* Enable or Disable the Output Compare Fast Bit */
  tmpccmr2 |= (uint16_t)(TIM_OCFast << 8);
 80018aa:	0209      	lsls	r1, r1, #8
 80018ac:	b289      	uxth	r1, r1
 80018ae:	430b      	orrs	r3, r1
C:\Users\Filip\Eclipse\Template\Debug/../STM32F4xx_StdPeriph_Driver/src/stm32f4xx_tim.c:1456

  /* Write to TIMx CCMR2 */
  TIMx->CCMR2 = tmpccmr2;
 80018b0:	8383      	strh	r3, [r0, #28]
 80018b2:	4770      	bx	lr

080018b4 <TIM_ClearOC1Ref>:
TIM_ClearOC1Ref():
C:\Users\Filip\Eclipse\Template\Debug/../STM32F4xx_StdPeriph_Driver/src/stm32f4xx_tim.c:1476

  /* Check the parameters */
  assert_param(IS_TIM_LIST1_PERIPH(TIMx));
  assert_param(IS_TIM_OCCLEAR_STATE(TIM_OCClear));

  tmpccmr1 = TIMx->CCMR1;
 80018b4:	8b03      	ldrh	r3, [r0, #24]
C:\Users\Filip\Eclipse\Template\Debug/../STM32F4xx_StdPeriph_Driver/src/stm32f4xx_tim.c:1479

  /* Reset the OC1CE Bit */
  tmpccmr1 &= (uint16_t)~TIM_CCMR1_OC1CE;
 80018b6:	f023 0380 	bic.w	r3, r3, #128	; 0x80
 80018ba:	041b      	lsls	r3, r3, #16
 80018bc:	0c1b      	lsrs	r3, r3, #16
C:\Users\Filip\Eclipse\Template\Debug/../STM32F4xx_StdPeriph_Driver/src/stm32f4xx_tim.c:1482

  /* Enable or Disable the Output Compare Clear Bit */
  tmpccmr1 |= TIM_OCClear;
 80018be:	4319      	orrs	r1, r3
C:\Users\Filip\Eclipse\Template\Debug/../STM32F4xx_StdPeriph_Driver/src/stm32f4xx_tim.c:1485

  /* Write to TIMx CCMR1 register */
  TIMx->CCMR1 = tmpccmr1;
 80018c0:	8301      	strh	r1, [r0, #24]
 80018c2:	4770      	bx	lr

080018c4 <TIM_ClearOC2Ref>:
TIM_ClearOC2Ref():
C:\Users\Filip\Eclipse\Template\Debug/../STM32F4xx_StdPeriph_Driver/src/stm32f4xx_tim.c:1506

  /* Check the parameters */
  assert_param(IS_TIM_LIST2_PERIPH(TIMx));
  assert_param(IS_TIM_OCCLEAR_STATE(TIM_OCClear));

  tmpccmr1 = TIMx->CCMR1;
 80018c4:	8b03      	ldrh	r3, [r0, #24]
C:\Users\Filip\Eclipse\Template\Debug/../STM32F4xx_StdPeriph_Driver/src/stm32f4xx_tim.c:1509

  /* Reset the OC2CE Bit */
  tmpccmr1 &= (uint16_t)~TIM_CCMR1_OC2CE;
 80018c6:	f3c3 030e 	ubfx	r3, r3, #0, #15
C:\Users\Filip\Eclipse\Template\Debug/../STM32F4xx_StdPeriph_Driver/src/stm32f4xx_tim.c:1512

  /* Enable or Disable the Output Compare Clear Bit */
  tmpccmr1 |= (uint16_t)(TIM_OCClear << 8);
 80018ca:	0209      	lsls	r1, r1, #8
 80018cc:	b289      	uxth	r1, r1
 80018ce:	430b      	orrs	r3, r1
C:\Users\Filip\Eclipse\Template\Debug/../STM32F4xx_StdPeriph_Driver/src/stm32f4xx_tim.c:1515

  /* Write to TIMx CCMR1 register */
  TIMx->CCMR1 = tmpccmr1;
 80018d0:	8303      	strh	r3, [r0, #24]
 80018d2:	4770      	bx	lr

080018d4 <TIM_ClearOC3Ref>:
TIM_ClearOC3Ref():
C:\Users\Filip\Eclipse\Template\Debug/../STM32F4xx_StdPeriph_Driver/src/stm32f4xx_tim.c:1535

  /* Check the parameters */
  assert_param(IS_TIM_LIST3_PERIPH(TIMx));
  assert_param(IS_TIM_OCCLEAR_STATE(TIM_OCClear));

  tmpccmr2 = TIMx->CCMR2;
 80018d4:	8b83      	ldrh	r3, [r0, #28]
C:\Users\Filip\Eclipse\Template\Debug/../STM32F4xx_StdPeriph_Driver/src/stm32f4xx_tim.c:1538

  /* Reset the OC3CE Bit */
  tmpccmr2 &= (uint16_t)~TIM_CCMR2_OC3CE;
 80018d6:	f023 0380 	bic.w	r3, r3, #128	; 0x80
 80018da:	041b      	lsls	r3, r3, #16
 80018dc:	0c1b      	lsrs	r3, r3, #16
C:\Users\Filip\Eclipse\Template\Debug/../STM32F4xx_StdPeriph_Driver/src/stm32f4xx_tim.c:1541

  /* Enable or Disable the Output Compare Clear Bit */
  tmpccmr2 |= TIM_OCClear;
 80018de:	4319      	orrs	r1, r3
C:\Users\Filip\Eclipse\Template\Debug/../STM32F4xx_StdPeriph_Driver/src/stm32f4xx_tim.c:1544

  /* Write to TIMx CCMR2 register */
  TIMx->CCMR2 = tmpccmr2;
 80018e0:	8381      	strh	r1, [r0, #28]
 80018e2:	4770      	bx	lr

080018e4 <TIM_ClearOC4Ref>:
TIM_ClearOC4Ref():
C:\Users\Filip\Eclipse\Template\Debug/../STM32F4xx_StdPeriph_Driver/src/stm32f4xx_tim.c:1564

  /* Check the parameters */
  assert_param(IS_TIM_LIST3_PERIPH(TIMx));
  assert_param(IS_TIM_OCCLEAR_STATE(TIM_OCClear));

  tmpccmr2 = TIMx->CCMR2;
 80018e4:	8b83      	ldrh	r3, [r0, #28]
C:\Users\Filip\Eclipse\Template\Debug/../STM32F4xx_StdPeriph_Driver/src/stm32f4xx_tim.c:1567

  /* Reset the OC4CE Bit */
  tmpccmr2 &= (uint16_t)~TIM_CCMR2_OC4CE;
 80018e6:	f3c3 030e 	ubfx	r3, r3, #0, #15
C:\Users\Filip\Eclipse\Template\Debug/../STM32F4xx_StdPeriph_Driver/src/stm32f4xx_tim.c:1570

  /* Enable or Disable the Output Compare Clear Bit */
  tmpccmr2 |= (uint16_t)(TIM_OCClear << 8);
 80018ea:	0209      	lsls	r1, r1, #8
 80018ec:	b289      	uxth	r1, r1
 80018ee:	430b      	orrs	r3, r1
C:\Users\Filip\Eclipse\Template\Debug/../STM32F4xx_StdPeriph_Driver/src/stm32f4xx_tim.c:1573

  /* Write to TIMx CCMR2 register */
  TIMx->CCMR2 = tmpccmr2;
 80018f0:	8383      	strh	r3, [r0, #28]
 80018f2:	4770      	bx	lr

080018f4 <TIM_OC1PolarityConfig>:
TIM_OC1PolarityConfig():
C:\Users\Filip\Eclipse\Template\Debug/../STM32F4xx_StdPeriph_Driver/src/stm32f4xx_tim.c:1593

  /* Check the parameters */
  assert_param(IS_TIM_LIST1_PERIPH(TIMx));
  assert_param(IS_TIM_OC_POLARITY(TIM_OCPolarity));

  tmpccer = TIMx->CCER;
 80018f4:	8c03      	ldrh	r3, [r0, #32]
C:\Users\Filip\Eclipse\Template\Debug/../STM32F4xx_StdPeriph_Driver/src/stm32f4xx_tim.c:1596

  /* Set or Reset the CC1P Bit */
  tmpccer &= (uint16_t)(~TIM_CCER_CC1P);
 80018f6:	f023 0302 	bic.w	r3, r3, #2
 80018fa:	041b      	lsls	r3, r3, #16
 80018fc:	0c1b      	lsrs	r3, r3, #16
C:\Users\Filip\Eclipse\Template\Debug/../STM32F4xx_StdPeriph_Driver/src/stm32f4xx_tim.c:1597
  tmpccer |= TIM_OCPolarity;
 80018fe:	4319      	orrs	r1, r3
C:\Users\Filip\Eclipse\Template\Debug/../STM32F4xx_StdPeriph_Driver/src/stm32f4xx_tim.c:1600

  /* Write to TIMx CCER register */
  TIMx->CCER = tmpccer;
 8001900:	8401      	strh	r1, [r0, #32]
 8001902:	4770      	bx	lr

08001904 <TIM_OC1NPolarityConfig>:
TIM_OC1NPolarityConfig():
C:\Users\Filip\Eclipse\Template\Debug/../STM32F4xx_StdPeriph_Driver/src/stm32f4xx_tim.c:1619
  uint16_t tmpccer = 0;
  /* Check the parameters */
  assert_param(IS_TIM_LIST4_PERIPH(TIMx));
  assert_param(IS_TIM_OCN_POLARITY(TIM_OCNPolarity));
   
  tmpccer = TIMx->CCER;
 8001904:	8c03      	ldrh	r3, [r0, #32]
C:\Users\Filip\Eclipse\Template\Debug/../STM32F4xx_StdPeriph_Driver/src/stm32f4xx_tim.c:1622

  /* Set or Reset the CC1NP Bit */
  tmpccer &= (uint16_t)~TIM_CCER_CC1NP;
 8001906:	f023 0308 	bic.w	r3, r3, #8
 800190a:	041b      	lsls	r3, r3, #16
 800190c:	0c1b      	lsrs	r3, r3, #16
C:\Users\Filip\Eclipse\Template\Debug/../STM32F4xx_StdPeriph_Driver/src/stm32f4xx_tim.c:1623
  tmpccer |= TIM_OCNPolarity;
 800190e:	4319      	orrs	r1, r3
C:\Users\Filip\Eclipse\Template\Debug/../STM32F4xx_StdPeriph_Driver/src/stm32f4xx_tim.c:1626

  /* Write to TIMx CCER register */
  TIMx->CCER = tmpccer;
 8001910:	8401      	strh	r1, [r0, #32]
 8001912:	4770      	bx	lr

08001914 <TIM_OC2PolarityConfig>:
TIM_OC2PolarityConfig():
C:\Users\Filip\Eclipse\Template\Debug/../STM32F4xx_StdPeriph_Driver/src/stm32f4xx_tim.c:1647

  /* Check the parameters */
  assert_param(IS_TIM_LIST2_PERIPH(TIMx));
  assert_param(IS_TIM_OC_POLARITY(TIM_OCPolarity));

  tmpccer = TIMx->CCER;
 8001914:	8c03      	ldrh	r3, [r0, #32]
C:\Users\Filip\Eclipse\Template\Debug/../STM32F4xx_StdPeriph_Driver/src/stm32f4xx_tim.c:1650

  /* Set or Reset the CC2P Bit */
  tmpccer &= (uint16_t)(~TIM_CCER_CC2P);
 8001916:	f023 0320 	bic.w	r3, r3, #32
 800191a:	041b      	lsls	r3, r3, #16
 800191c:	0c1b      	lsrs	r3, r3, #16
C:\Users\Filip\Eclipse\Template\Debug/../STM32F4xx_StdPeriph_Driver/src/stm32f4xx_tim.c:1651
  tmpccer |= (uint16_t)(TIM_OCPolarity << 4);
 800191e:	0109      	lsls	r1, r1, #4
 8001920:	b289      	uxth	r1, r1
 8001922:	430b      	orrs	r3, r1
C:\Users\Filip\Eclipse\Template\Debug/../STM32F4xx_StdPeriph_Driver/src/stm32f4xx_tim.c:1654

  /* Write to TIMx CCER register */
  TIMx->CCER = tmpccer;
 8001924:	8403      	strh	r3, [r0, #32]
 8001926:	4770      	bx	lr

08001928 <TIM_OC2NPolarityConfig>:
TIM_OC2NPolarityConfig():
C:\Users\Filip\Eclipse\Template\Debug/../STM32F4xx_StdPeriph_Driver/src/stm32f4xx_tim.c:1674

  /* Check the parameters */
  assert_param(IS_TIM_LIST4_PERIPH(TIMx));
  assert_param(IS_TIM_OCN_POLARITY(TIM_OCNPolarity));
  
  tmpccer = TIMx->CCER;
 8001928:	8c03      	ldrh	r3, [r0, #32]
C:\Users\Filip\Eclipse\Template\Debug/../STM32F4xx_StdPeriph_Driver/src/stm32f4xx_tim.c:1677

  /* Set or Reset the CC2NP Bit */
  tmpccer &= (uint16_t)~TIM_CCER_CC2NP;
 800192a:	f023 0380 	bic.w	r3, r3, #128	; 0x80
 800192e:	041b      	lsls	r3, r3, #16
 8001930:	0c1b      	lsrs	r3, r3, #16
C:\Users\Filip\Eclipse\Template\Debug/../STM32F4xx_StdPeriph_Driver/src/stm32f4xx_tim.c:1678
  tmpccer |= (uint16_t)(TIM_OCNPolarity << 4);
 8001932:	0109      	lsls	r1, r1, #4
 8001934:	b289      	uxth	r1, r1
 8001936:	430b      	orrs	r3, r1
C:\Users\Filip\Eclipse\Template\Debug/../STM32F4xx_StdPeriph_Driver/src/stm32f4xx_tim.c:1681

  /* Write to TIMx CCER register */
  TIMx->CCER = tmpccer;
 8001938:	8403      	strh	r3, [r0, #32]
 800193a:	4770      	bx	lr

0800193c <TIM_OC3PolarityConfig>:
TIM_OC3PolarityConfig():
C:\Users\Filip\Eclipse\Template\Debug/../STM32F4xx_StdPeriph_Driver/src/stm32f4xx_tim.c:1701

  /* Check the parameters */
  assert_param(IS_TIM_LIST3_PERIPH(TIMx));
  assert_param(IS_TIM_OC_POLARITY(TIM_OCPolarity));

  tmpccer = TIMx->CCER;
 800193c:	8c03      	ldrh	r3, [r0, #32]
C:\Users\Filip\Eclipse\Template\Debug/../STM32F4xx_StdPeriph_Driver/src/stm32f4xx_tim.c:1704

  /* Set or Reset the CC3P Bit */
  tmpccer &= (uint16_t)~TIM_CCER_CC3P;
 800193e:	f423 7300 	bic.w	r3, r3, #512	; 0x200
 8001942:	041b      	lsls	r3, r3, #16
 8001944:	0c1b      	lsrs	r3, r3, #16
C:\Users\Filip\Eclipse\Template\Debug/../STM32F4xx_StdPeriph_Driver/src/stm32f4xx_tim.c:1705
  tmpccer |= (uint16_t)(TIM_OCPolarity << 8);
 8001946:	0209      	lsls	r1, r1, #8
 8001948:	b289      	uxth	r1, r1
 800194a:	430b      	orrs	r3, r1
C:\Users\Filip\Eclipse\Template\Debug/../STM32F4xx_StdPeriph_Driver/src/stm32f4xx_tim.c:1708

  /* Write to TIMx CCER register */
  TIMx->CCER = tmpccer;
 800194c:	8403      	strh	r3, [r0, #32]
 800194e:	4770      	bx	lr

08001950 <TIM_OC3NPolarityConfig>:
TIM_OC3NPolarityConfig():
C:\Users\Filip\Eclipse\Template\Debug/../STM32F4xx_StdPeriph_Driver/src/stm32f4xx_tim.c:1728
 
  /* Check the parameters */
  assert_param(IS_TIM_LIST4_PERIPH(TIMx));
  assert_param(IS_TIM_OCN_POLARITY(TIM_OCNPolarity));
    
  tmpccer = TIMx->CCER;
 8001950:	8c03      	ldrh	r3, [r0, #32]
C:\Users\Filip\Eclipse\Template\Debug/../STM32F4xx_StdPeriph_Driver/src/stm32f4xx_tim.c:1731

  /* Set or Reset the CC3NP Bit */
  tmpccer &= (uint16_t)~TIM_CCER_CC3NP;
 8001952:	f423 6300 	bic.w	r3, r3, #2048	; 0x800
 8001956:	041b      	lsls	r3, r3, #16
 8001958:	0c1b      	lsrs	r3, r3, #16
C:\Users\Filip\Eclipse\Template\Debug/../STM32F4xx_StdPeriph_Driver/src/stm32f4xx_tim.c:1732
  tmpccer |= (uint16_t)(TIM_OCNPolarity << 8);
 800195a:	0209      	lsls	r1, r1, #8
 800195c:	b289      	uxth	r1, r1
 800195e:	430b      	orrs	r3, r1
C:\Users\Filip\Eclipse\Template\Debug/../STM32F4xx_StdPeriph_Driver/src/stm32f4xx_tim.c:1735

  /* Write to TIMx CCER register */
  TIMx->CCER = tmpccer;
 8001960:	8403      	strh	r3, [r0, #32]
 8001962:	4770      	bx	lr

08001964 <TIM_OC4PolarityConfig>:
TIM_OC4PolarityConfig():
C:\Users\Filip\Eclipse\Template\Debug/../STM32F4xx_StdPeriph_Driver/src/stm32f4xx_tim.c:1755

  /* Check the parameters */
  assert_param(IS_TIM_LIST3_PERIPH(TIMx));
  assert_param(IS_TIM_OC_POLARITY(TIM_OCPolarity));

  tmpccer = TIMx->CCER;
 8001964:	8c03      	ldrh	r3, [r0, #32]
C:\Users\Filip\Eclipse\Template\Debug/../STM32F4xx_StdPeriph_Driver/src/stm32f4xx_tim.c:1758

  /* Set or Reset the CC4P Bit */
  tmpccer &= (uint16_t)~TIM_CCER_CC4P;
 8001966:	f423 5300 	bic.w	r3, r3, #8192	; 0x2000
 800196a:	041b      	lsls	r3, r3, #16
 800196c:	0c1b      	lsrs	r3, r3, #16
C:\Users\Filip\Eclipse\Template\Debug/../STM32F4xx_StdPeriph_Driver/src/stm32f4xx_tim.c:1759
  tmpccer |= (uint16_t)(TIM_OCPolarity << 12);
 800196e:	0309      	lsls	r1, r1, #12
 8001970:	b289      	uxth	r1, r1
 8001972:	430b      	orrs	r3, r1
C:\Users\Filip\Eclipse\Template\Debug/../STM32F4xx_StdPeriph_Driver/src/stm32f4xx_tim.c:1762

  /* Write to TIMx CCER register */
  TIMx->CCER = tmpccer;
 8001974:	8403      	strh	r3, [r0, #32]
 8001976:	4770      	bx	lr

08001978 <TIM_CCxCmd>:
TIM_CCxCmd():
C:\Users\Filip\Eclipse\Template\Debug/../STM32F4xx_StdPeriph_Driver/src/stm32f4xx_tim.c:1779
  * @param  TIM_CCx: specifies the TIM Channel CCxE bit new state.
  *          This parameter can be: TIM_CCx_Enable or TIM_CCx_Disable. 
  * @retval None
  */
void TIM_CCxCmd(TIM_TypeDef* TIMx, uint16_t TIM_Channel, uint16_t TIM_CCx)
{
 8001978:	b410      	push	{r4}
C:\Users\Filip\Eclipse\Template\Debug/../STM32F4xx_StdPeriph_Driver/src/stm32f4xx_tim.c:1787
  /* Check the parameters */
  assert_param(IS_TIM_LIST1_PERIPH(TIMx)); 
  assert_param(IS_TIM_CHANNEL(TIM_Channel));
  assert_param(IS_TIM_CCX(TIM_CCx));

  tmp = CCER_CCE_SET << TIM_Channel;
 800197a:	2301      	movs	r3, #1
 800197c:	408b      	lsls	r3, r1
C:\Users\Filip\Eclipse\Template\Debug/../STM32F4xx_StdPeriph_Driver/src/stm32f4xx_tim.c:1790

  /* Reset the CCxE Bit */
  TIMx->CCER &= (uint16_t)~ tmp;
 800197e:	8c04      	ldrh	r4, [r0, #32]
 8001980:	43db      	mvns	r3, r3
 8001982:	b29b      	uxth	r3, r3
 8001984:	4023      	ands	r3, r4
 8001986:	8403      	strh	r3, [r0, #32]
C:\Users\Filip\Eclipse\Template\Debug/../STM32F4xx_StdPeriph_Driver/src/stm32f4xx_tim.c:1793

  /* Set or reset the CCxE Bit */ 
  TIMx->CCER |=  (uint16_t)(TIM_CCx << TIM_Channel);
 8001988:	8c03      	ldrh	r3, [r0, #32]
 800198a:	408a      	lsls	r2, r1
 800198c:	4313      	orrs	r3, r2
 800198e:	b29b      	uxth	r3, r3
 8001990:	8403      	strh	r3, [r0, #32]
C:\Users\Filip\Eclipse\Template\Debug/../STM32F4xx_StdPeriph_Driver/src/stm32f4xx_tim.c:1794
}
 8001992:	f85d 4b04 	ldr.w	r4, [sp], #4
 8001996:	4770      	bx	lr

08001998 <TIM_CCxNCmd>:
TIM_CCxNCmd():
C:\Users\Filip\Eclipse\Template\Debug/../STM32F4xx_StdPeriph_Driver/src/stm32f4xx_tim.c:1809
  * @param  TIM_CCxN: specifies the TIM Channel CCxNE bit new state.
  *          This parameter can be: TIM_CCxN_Enable or TIM_CCxN_Disable. 
  * @retval None
  */
void TIM_CCxNCmd(TIM_TypeDef* TIMx, uint16_t TIM_Channel, uint16_t TIM_CCxN)
{
 8001998:	b410      	push	{r4}
C:\Users\Filip\Eclipse\Template\Debug/../STM32F4xx_StdPeriph_Driver/src/stm32f4xx_tim.c:1817
  /* Check the parameters */
  assert_param(IS_TIM_LIST4_PERIPH(TIMx));
  assert_param(IS_TIM_COMPLEMENTARY_CHANNEL(TIM_Channel));
  assert_param(IS_TIM_CCXN(TIM_CCxN));

  tmp = CCER_CCNE_SET << TIM_Channel;
 800199a:	2304      	movs	r3, #4
 800199c:	408b      	lsls	r3, r1
C:\Users\Filip\Eclipse\Template\Debug/../STM32F4xx_StdPeriph_Driver/src/stm32f4xx_tim.c:1820

  /* Reset the CCxNE Bit */
  TIMx->CCER &= (uint16_t) ~tmp;
 800199e:	8c04      	ldrh	r4, [r0, #32]
 80019a0:	43db      	mvns	r3, r3
 80019a2:	b29b      	uxth	r3, r3
 80019a4:	4023      	ands	r3, r4
 80019a6:	8403      	strh	r3, [r0, #32]
C:\Users\Filip\Eclipse\Template\Debug/../STM32F4xx_StdPeriph_Driver/src/stm32f4xx_tim.c:1823

  /* Set or reset the CCxNE Bit */ 
  TIMx->CCER |=  (uint16_t)(TIM_CCxN << TIM_Channel);
 80019a8:	8c03      	ldrh	r3, [r0, #32]
 80019aa:	408a      	lsls	r2, r1
 80019ac:	4313      	orrs	r3, r2
 80019ae:	b29b      	uxth	r3, r3
 80019b0:	8403      	strh	r3, [r0, #32]
C:\Users\Filip\Eclipse\Template\Debug/../STM32F4xx_StdPeriph_Driver/src/stm32f4xx_tim.c:1824
}
 80019b2:	f85d 4b04 	ldr.w	r4, [sp], #4
 80019b6:	4770      	bx	lr

080019b8 <TIM_ICStructInit>:
TIM_ICStructInit():
C:\Users\Filip\Eclipse\Template\Debug/../STM32F4xx_StdPeriph_Driver/src/stm32f4xx_tim.c:1949
  * @retval None
  */
void TIM_ICStructInit(TIM_ICInitTypeDef* TIM_ICInitStruct)
{
  /* Set the default configuration */
  TIM_ICInitStruct->TIM_Channel = TIM_Channel_1;
 80019b8:	2300      	movs	r3, #0
 80019ba:	8003      	strh	r3, [r0, #0]
C:\Users\Filip\Eclipse\Template\Debug/../STM32F4xx_StdPeriph_Driver/src/stm32f4xx_tim.c:1950
  TIM_ICInitStruct->TIM_ICPolarity = TIM_ICPolarity_Rising;
 80019bc:	8043      	strh	r3, [r0, #2]
C:\Users\Filip\Eclipse\Template\Debug/../STM32F4xx_StdPeriph_Driver/src/stm32f4xx_tim.c:1951
  TIM_ICInitStruct->TIM_ICSelection = TIM_ICSelection_DirectTI;
 80019be:	2201      	movs	r2, #1
 80019c0:	8082      	strh	r2, [r0, #4]
C:\Users\Filip\Eclipse\Template\Debug/../STM32F4xx_StdPeriph_Driver/src/stm32f4xx_tim.c:1952
  TIM_ICInitStruct->TIM_ICPrescaler = TIM_ICPSC_DIV1;
 80019c2:	80c3      	strh	r3, [r0, #6]
C:\Users\Filip\Eclipse\Template\Debug/../STM32F4xx_StdPeriph_Driver/src/stm32f4xx_tim.c:1953
  TIM_ICInitStruct->TIM_ICFilter = 0x00;
 80019c4:	8103      	strh	r3, [r0, #8]
 80019c6:	4770      	bx	lr

080019c8 <TIM_GetCapture1>:
TIM_GetCapture1():
C:\Users\Filip\Eclipse\Template\Debug/../STM32F4xx_StdPeriph_Driver/src/stm32f4xx_tim.c:2028
{
  /* Check the parameters */
  assert_param(IS_TIM_LIST1_PERIPH(TIMx));

  /* Get the Capture 1 Register value */
  return TIMx->CCR1;
 80019c8:	6b40      	ldr	r0, [r0, #52]	; 0x34
C:\Users\Filip\Eclipse\Template\Debug/../STM32F4xx_StdPeriph_Driver/src/stm32f4xx_tim.c:2029
}
 80019ca:	4770      	bx	lr

080019cc <TIM_GetCapture2>:
TIM_GetCapture2():
C:\Users\Filip\Eclipse\Template\Debug/../STM32F4xx_StdPeriph_Driver/src/stm32f4xx_tim.c:2043
{
  /* Check the parameters */
  assert_param(IS_TIM_LIST2_PERIPH(TIMx));

  /* Get the Capture 2 Register value */
  return TIMx->CCR2;
 80019cc:	6b80      	ldr	r0, [r0, #56]	; 0x38
C:\Users\Filip\Eclipse\Template\Debug/../STM32F4xx_StdPeriph_Driver/src/stm32f4xx_tim.c:2044
}
 80019ce:	4770      	bx	lr

080019d0 <TIM_GetCapture3>:
TIM_GetCapture3():
C:\Users\Filip\Eclipse\Template\Debug/../STM32F4xx_StdPeriph_Driver/src/stm32f4xx_tim.c:2057
{
  /* Check the parameters */
  assert_param(IS_TIM_LIST3_PERIPH(TIMx)); 

  /* Get the Capture 3 Register value */
  return TIMx->CCR3;
 80019d0:	6bc0      	ldr	r0, [r0, #60]	; 0x3c
C:\Users\Filip\Eclipse\Template\Debug/../STM32F4xx_StdPeriph_Driver/src/stm32f4xx_tim.c:2058
}
 80019d2:	4770      	bx	lr

080019d4 <TIM_GetCapture4>:
TIM_GetCapture4():
C:\Users\Filip\Eclipse\Template\Debug/../STM32F4xx_StdPeriph_Driver/src/stm32f4xx_tim.c:2071
{
  /* Check the parameters */
  assert_param(IS_TIM_LIST3_PERIPH(TIMx));

  /* Get the Capture 4 Register value */
  return TIMx->CCR4;
 80019d4:	6c00      	ldr	r0, [r0, #64]	; 0x40
C:\Users\Filip\Eclipse\Template\Debug/../STM32F4xx_StdPeriph_Driver/src/stm32f4xx_tim.c:2072
}
 80019d6:	4770      	bx	lr

080019d8 <TIM_SetIC1Prescaler>:
TIM_SetIC1Prescaler():
C:\Users\Filip\Eclipse\Template\Debug/../STM32F4xx_StdPeriph_Driver/src/stm32f4xx_tim.c:2092
  /* Check the parameters */
  assert_param(IS_TIM_LIST1_PERIPH(TIMx));
  assert_param(IS_TIM_IC_PRESCALER(TIM_ICPSC));

  /* Reset the IC1PSC Bits */
  TIMx->CCMR1 &= (uint16_t)~TIM_CCMR1_IC1PSC;
 80019d8:	8b03      	ldrh	r3, [r0, #24]
 80019da:	f023 030c 	bic.w	r3, r3, #12
 80019de:	041b      	lsls	r3, r3, #16
 80019e0:	0c1b      	lsrs	r3, r3, #16
 80019e2:	8303      	strh	r3, [r0, #24]
C:\Users\Filip\Eclipse\Template\Debug/../STM32F4xx_StdPeriph_Driver/src/stm32f4xx_tim.c:2095

  /* Set the IC1PSC value */
  TIMx->CCMR1 |= TIM_ICPSC;
 80019e4:	8b03      	ldrh	r3, [r0, #24]
 80019e6:	b29b      	uxth	r3, r3
 80019e8:	4319      	orrs	r1, r3
 80019ea:	8301      	strh	r1, [r0, #24]
 80019ec:	4770      	bx	lr
 80019ee:	bf00      	nop

080019f0 <TIM_SetIC2Prescaler>:
TIM_SetIC2Prescaler():
C:\Users\Filip\Eclipse\Template\Debug/../STM32F4xx_StdPeriph_Driver/src/stm32f4xx_tim.c:2117
  /* Check the parameters */
  assert_param(IS_TIM_LIST2_PERIPH(TIMx));
  assert_param(IS_TIM_IC_PRESCALER(TIM_ICPSC));

  /* Reset the IC2PSC Bits */
  TIMx->CCMR1 &= (uint16_t)~TIM_CCMR1_IC2PSC;
 80019f0:	8b03      	ldrh	r3, [r0, #24]
 80019f2:	f423 6340 	bic.w	r3, r3, #3072	; 0xc00
 80019f6:	041b      	lsls	r3, r3, #16
 80019f8:	0c1b      	lsrs	r3, r3, #16
 80019fa:	8303      	strh	r3, [r0, #24]
C:\Users\Filip\Eclipse\Template\Debug/../STM32F4xx_StdPeriph_Driver/src/stm32f4xx_tim.c:2120

  /* Set the IC2PSC value */
  TIMx->CCMR1 |= (uint16_t)(TIM_ICPSC << 8);
 80019fc:	8b03      	ldrh	r3, [r0, #24]
 80019fe:	b29b      	uxth	r3, r3
 8001a00:	0209      	lsls	r1, r1, #8
 8001a02:	b289      	uxth	r1, r1
 8001a04:	430b      	orrs	r3, r1
 8001a06:	8303      	strh	r3, [r0, #24]
 8001a08:	4770      	bx	lr
 8001a0a:	bf00      	nop

08001a0c <TIM_PWMIConfig>:
TIM_PWMIConfig():
C:\Users\Filip\Eclipse\Template\Debug/../STM32F4xx_StdPeriph_Driver/src/stm32f4xx_tim.c:1966
  * @param  TIM_ICInitStruct: pointer to a TIM_ICInitTypeDef structure that contains
  *         the configuration information for the specified TIM peripheral.
  * @retval None
  */
void TIM_PWMIConfig(TIM_TypeDef* TIMx, TIM_ICInitTypeDef* TIM_ICInitStruct)
{
 8001a0c:	b5f8      	push	{r3, r4, r5, r6, r7, lr}
 8001a0e:	4605      	mov	r5, r0
 8001a10:	460c      	mov	r4, r1
C:\Users\Filip\Eclipse\Template\Debug/../STM32F4xx_StdPeriph_Driver/src/stm32f4xx_tim.c:1974

  /* Check the parameters */
  assert_param(IS_TIM_LIST2_PERIPH(TIMx));

  /* Select the Opposite Input Polarity */
  if (TIM_ICInitStruct->TIM_ICPolarity == TIM_ICPolarity_Rising)
 8001a12:	8849      	ldrh	r1, [r1, #2]
C:\Users\Filip\Eclipse\Template\Debug/../STM32F4xx_StdPeriph_Driver/src/stm32f4xx_tim.c:1976
  {
    icoppositepolarity = TIM_ICPolarity_Falling;
 8001a14:	2900      	cmp	r1, #0
 8001a16:	bf14      	ite	ne
 8001a18:	2700      	movne	r7, #0
 8001a1a:	2702      	moveq	r7, #2
C:\Users\Filip\Eclipse\Template\Debug/../STM32F4xx_StdPeriph_Driver/src/stm32f4xx_tim.c:1983
  else
  {
    icoppositepolarity = TIM_ICPolarity_Rising;
  }
  /* Select the Opposite Input */
  if (TIM_ICInitStruct->TIM_ICSelection == TIM_ICSelection_DirectTI)
 8001a1c:	88a3      	ldrh	r3, [r4, #4]
C:\Users\Filip\Eclipse\Template\Debug/../STM32F4xx_StdPeriph_Driver/src/stm32f4xx_tim.c:1985
  {
    icoppositeselection = TIM_ICSelection_IndirectTI;
 8001a1e:	2b01      	cmp	r3, #1
 8001a20:	bf14      	ite	ne
 8001a22:	2601      	movne	r6, #1
 8001a24:	2602      	moveq	r6, #2
C:\Users\Filip\Eclipse\Template\Debug/../STM32F4xx_StdPeriph_Driver/src/stm32f4xx_tim.c:1991
  }
  else
  {
    icoppositeselection = TIM_ICSelection_DirectTI;
  }
  if (TIM_ICInitStruct->TIM_Channel == TIM_Channel_1)
 8001a26:	8822      	ldrh	r2, [r4, #0]
 8001a28:	b992      	cbnz	r2, 8001a50 <TIM_PWMIConfig+0x44>
C:\Users\Filip\Eclipse\Template\Debug/../STM32F4xx_StdPeriph_Driver/src/stm32f4xx_tim.c:1994
  {
    /* TI1 Configuration */
    TI1_Config(TIMx, TIM_ICInitStruct->TIM_ICPolarity, TIM_ICInitStruct->TIM_ICSelection,
 8001a2a:	461a      	mov	r2, r3
 8001a2c:	8923      	ldrh	r3, [r4, #8]
 8001a2e:	f7ff fbaf 	bl	8001190 <TI1_Config>
C:\Users\Filip\Eclipse\Template\Debug/../STM32F4xx_StdPeriph_Driver/src/stm32f4xx_tim.c:1997
               TIM_ICInitStruct->TIM_ICFilter);
    /* Set the Input Capture Prescaler value */
    TIM_SetIC1Prescaler(TIMx, TIM_ICInitStruct->TIM_ICPrescaler);
 8001a32:	4628      	mov	r0, r5
 8001a34:	88e1      	ldrh	r1, [r4, #6]
 8001a36:	f7ff ffcf 	bl	80019d8 <TIM_SetIC1Prescaler>
C:\Users\Filip\Eclipse\Template\Debug/../STM32F4xx_StdPeriph_Driver/src/stm32f4xx_tim.c:1999
    /* TI2 Configuration */
    TI2_Config(TIMx, icoppositepolarity, icoppositeselection, TIM_ICInitStruct->TIM_ICFilter);
 8001a3a:	4628      	mov	r0, r5
 8001a3c:	4639      	mov	r1, r7
 8001a3e:	4632      	mov	r2, r6
 8001a40:	8923      	ldrh	r3, [r4, #8]
 8001a42:	f7ff fbc1 	bl	80011c8 <TI2_Config>
C:\Users\Filip\Eclipse\Template\Debug/../STM32F4xx_StdPeriph_Driver/src/stm32f4xx_tim.c:2001
    /* Set the Input Capture Prescaler value */
    TIM_SetIC2Prescaler(TIMx, TIM_ICInitStruct->TIM_ICPrescaler);
 8001a46:	4628      	mov	r0, r5
 8001a48:	88e1      	ldrh	r1, [r4, #6]
 8001a4a:	f7ff ffd1 	bl	80019f0 <TIM_SetIC2Prescaler>
 8001a4e:	bdf8      	pop	{r3, r4, r5, r6, r7, pc}
C:\Users\Filip\Eclipse\Template\Debug/../STM32F4xx_StdPeriph_Driver/src/stm32f4xx_tim.c:2006
  }
  else
  { 
    /* TI2 Configuration */
    TI2_Config(TIMx, TIM_ICInitStruct->TIM_ICPolarity, TIM_ICInitStruct->TIM_ICSelection,
 8001a50:	461a      	mov	r2, r3
 8001a52:	8923      	ldrh	r3, [r4, #8]
 8001a54:	f7ff fbb8 	bl	80011c8 <TI2_Config>
C:\Users\Filip\Eclipse\Template\Debug/../STM32F4xx_StdPeriph_Driver/src/stm32f4xx_tim.c:2009
               TIM_ICInitStruct->TIM_ICFilter);
    /* Set the Input Capture Prescaler value */
    TIM_SetIC2Prescaler(TIMx, TIM_ICInitStruct->TIM_ICPrescaler);
 8001a58:	4628      	mov	r0, r5
 8001a5a:	88e1      	ldrh	r1, [r4, #6]
 8001a5c:	f7ff ffc8 	bl	80019f0 <TIM_SetIC2Prescaler>
C:\Users\Filip\Eclipse\Template\Debug/../STM32F4xx_StdPeriph_Driver/src/stm32f4xx_tim.c:2011
    /* TI1 Configuration */
    TI1_Config(TIMx, icoppositepolarity, icoppositeselection, TIM_ICInitStruct->TIM_ICFilter);
 8001a60:	4628      	mov	r0, r5
 8001a62:	4639      	mov	r1, r7
 8001a64:	4632      	mov	r2, r6
 8001a66:	8923      	ldrh	r3, [r4, #8]
 8001a68:	f7ff fb92 	bl	8001190 <TI1_Config>
C:\Users\Filip\Eclipse\Template\Debug/../STM32F4xx_StdPeriph_Driver/src/stm32f4xx_tim.c:2013
    /* Set the Input Capture Prescaler value */
    TIM_SetIC1Prescaler(TIMx, TIM_ICInitStruct->TIM_ICPrescaler);
 8001a6c:	4628      	mov	r0, r5
 8001a6e:	88e1      	ldrh	r1, [r4, #6]
 8001a70:	f7ff ffb2 	bl	80019d8 <TIM_SetIC1Prescaler>
 8001a74:	bdf8      	pop	{r3, r4, r5, r6, r7, pc}
 8001a76:	bf00      	nop

08001a78 <TIM_SetIC3Prescaler>:
TIM_SetIC3Prescaler():
C:\Users\Filip\Eclipse\Template\Debug/../STM32F4xx_StdPeriph_Driver/src/stm32f4xx_tim.c:2141
  /* Check the parameters */
  assert_param(IS_TIM_LIST3_PERIPH(TIMx));
  assert_param(IS_TIM_IC_PRESCALER(TIM_ICPSC));

  /* Reset the IC3PSC Bits */
  TIMx->CCMR2 &= (uint16_t)~TIM_CCMR2_IC3PSC;
 8001a78:	8b83      	ldrh	r3, [r0, #28]
 8001a7a:	f023 030c 	bic.w	r3, r3, #12
 8001a7e:	041b      	lsls	r3, r3, #16
 8001a80:	0c1b      	lsrs	r3, r3, #16
 8001a82:	8383      	strh	r3, [r0, #28]
C:\Users\Filip\Eclipse\Template\Debug/../STM32F4xx_StdPeriph_Driver/src/stm32f4xx_tim.c:2144

  /* Set the IC3PSC value */
  TIMx->CCMR2 |= TIM_ICPSC;
 8001a84:	8b83      	ldrh	r3, [r0, #28]
 8001a86:	b29b      	uxth	r3, r3
 8001a88:	4319      	orrs	r1, r3
 8001a8a:	8381      	strh	r1, [r0, #28]
 8001a8c:	4770      	bx	lr
 8001a8e:	bf00      	nop

08001a90 <TIM_SetIC4Prescaler>:
TIM_SetIC4Prescaler():
C:\Users\Filip\Eclipse\Template\Debug/../STM32F4xx_StdPeriph_Driver/src/stm32f4xx_tim.c:2165
  /* Check the parameters */
  assert_param(IS_TIM_LIST3_PERIPH(TIMx));
  assert_param(IS_TIM_IC_PRESCALER(TIM_ICPSC));

  /* Reset the IC4PSC Bits */
  TIMx->CCMR2 &= (uint16_t)~TIM_CCMR2_IC4PSC;
 8001a90:	8b83      	ldrh	r3, [r0, #28]
 8001a92:	f423 6340 	bic.w	r3, r3, #3072	; 0xc00
 8001a96:	041b      	lsls	r3, r3, #16
 8001a98:	0c1b      	lsrs	r3, r3, #16
 8001a9a:	8383      	strh	r3, [r0, #28]
C:\Users\Filip\Eclipse\Template\Debug/../STM32F4xx_StdPeriph_Driver/src/stm32f4xx_tim.c:2168

  /* Set the IC4PSC value */
  TIMx->CCMR2 |= (uint16_t)(TIM_ICPSC << 8);
 8001a9c:	8b83      	ldrh	r3, [r0, #28]
 8001a9e:	b29b      	uxth	r3, r3
 8001aa0:	0209      	lsls	r1, r1, #8
 8001aa2:	b289      	uxth	r1, r1
 8001aa4:	430b      	orrs	r3, r1
 8001aa6:	8383      	strh	r3, [r0, #28]
 8001aa8:	4770      	bx	lr
 8001aaa:	bf00      	nop

08001aac <TIM_ICInit>:
TIM_ICInit():
C:\Users\Filip\Eclipse\Template\Debug/../STM32F4xx_StdPeriph_Driver/src/stm32f4xx_tim.c:1891
  * @param  TIM_ICInitStruct: pointer to a TIM_ICInitTypeDef structure that contains
  *         the configuration information for the specified TIM peripheral.
  * @retval None
  */
void TIM_ICInit(TIM_TypeDef* TIMx, TIM_ICInitTypeDef* TIM_ICInitStruct)
{
 8001aac:	b538      	push	{r3, r4, r5, lr}
 8001aae:	4605      	mov	r5, r0
 8001ab0:	460c      	mov	r4, r1
C:\Users\Filip\Eclipse\Template\Debug/../STM32F4xx_StdPeriph_Driver/src/stm32f4xx_tim.c:1899
  assert_param(IS_TIM_IC_POLARITY(TIM_ICInitStruct->TIM_ICPolarity));
  assert_param(IS_TIM_IC_SELECTION(TIM_ICInitStruct->TIM_ICSelection));
  assert_param(IS_TIM_IC_PRESCALER(TIM_ICInitStruct->TIM_ICPrescaler));
  assert_param(IS_TIM_IC_FILTER(TIM_ICInitStruct->TIM_ICFilter));
  
  if (TIM_ICInitStruct->TIM_Channel == TIM_Channel_1)
 8001ab2:	880b      	ldrh	r3, [r1, #0]
 8001ab4:	b94b      	cbnz	r3, 8001aca <TIM_ICInit+0x1e>
C:\Users\Filip\Eclipse\Template\Debug/../STM32F4xx_StdPeriph_Driver/src/stm32f4xx_tim.c:1902
  {
    /* TI1 Configuration */
    TI1_Config(TIMx, TIM_ICInitStruct->TIM_ICPolarity,
 8001ab6:	8849      	ldrh	r1, [r1, #2]
 8001ab8:	88a2      	ldrh	r2, [r4, #4]
 8001aba:	8923      	ldrh	r3, [r4, #8]
 8001abc:	f7ff fb68 	bl	8001190 <TI1_Config>
C:\Users\Filip\Eclipse\Template\Debug/../STM32F4xx_StdPeriph_Driver/src/stm32f4xx_tim.c:1906
               TIM_ICInitStruct->TIM_ICSelection,
               TIM_ICInitStruct->TIM_ICFilter);
    /* Set the Input Capture Prescaler value */
    TIM_SetIC1Prescaler(TIMx, TIM_ICInitStruct->TIM_ICPrescaler);
 8001ac0:	4628      	mov	r0, r5
 8001ac2:	88e1      	ldrh	r1, [r4, #6]
 8001ac4:	f7ff ff88 	bl	80019d8 <TIM_SetIC1Prescaler>
 8001ac8:	bd38      	pop	{r3, r4, r5, pc}
C:\Users\Filip\Eclipse\Template\Debug/../STM32F4xx_StdPeriph_Driver/src/stm32f4xx_tim.c:1908
  }
  else if (TIM_ICInitStruct->TIM_Channel == TIM_Channel_2)
 8001aca:	2b04      	cmp	r3, #4
 8001acc:	d109      	bne.n	8001ae2 <TIM_ICInit+0x36>
C:\Users\Filip\Eclipse\Template\Debug/../STM32F4xx_StdPeriph_Driver/src/stm32f4xx_tim.c:1912
  {
    /* TI2 Configuration */
    assert_param(IS_TIM_LIST2_PERIPH(TIMx));
    TI2_Config(TIMx, TIM_ICInitStruct->TIM_ICPolarity,
 8001ace:	8849      	ldrh	r1, [r1, #2]
 8001ad0:	88a2      	ldrh	r2, [r4, #4]
 8001ad2:	8923      	ldrh	r3, [r4, #8]
 8001ad4:	f7ff fb78 	bl	80011c8 <TI2_Config>
C:\Users\Filip\Eclipse\Template\Debug/../STM32F4xx_StdPeriph_Driver/src/stm32f4xx_tim.c:1916
               TIM_ICInitStruct->TIM_ICSelection,
               TIM_ICInitStruct->TIM_ICFilter);
    /* Set the Input Capture Prescaler value */
    TIM_SetIC2Prescaler(TIMx, TIM_ICInitStruct->TIM_ICPrescaler);
 8001ad8:	4628      	mov	r0, r5
 8001ada:	88e1      	ldrh	r1, [r4, #6]
 8001adc:	f7ff ff88 	bl	80019f0 <TIM_SetIC2Prescaler>
 8001ae0:	bd38      	pop	{r3, r4, r5, pc}
C:\Users\Filip\Eclipse\Template\Debug/../STM32F4xx_StdPeriph_Driver/src/stm32f4xx_tim.c:1918
  }
  else if (TIM_ICInitStruct->TIM_Channel == TIM_Channel_3)
 8001ae2:	2b08      	cmp	r3, #8
 8001ae4:	d109      	bne.n	8001afa <TIM_ICInit+0x4e>
C:\Users\Filip\Eclipse\Template\Debug/../STM32F4xx_StdPeriph_Driver/src/stm32f4xx_tim.c:1922
  {
    /* TI3 Configuration */
    assert_param(IS_TIM_LIST3_PERIPH(TIMx));
    TI3_Config(TIMx,  TIM_ICInitStruct->TIM_ICPolarity,
 8001ae6:	8849      	ldrh	r1, [r1, #2]
 8001ae8:	88a2      	ldrh	r2, [r4, #4]
 8001aea:	8923      	ldrh	r3, [r4, #8]
 8001aec:	f7ff fb8c 	bl	8001208 <TI3_Config>
C:\Users\Filip\Eclipse\Template\Debug/../STM32F4xx_StdPeriph_Driver/src/stm32f4xx_tim.c:1926
               TIM_ICInitStruct->TIM_ICSelection,
               TIM_ICInitStruct->TIM_ICFilter);
    /* Set the Input Capture Prescaler value */
    TIM_SetIC3Prescaler(TIMx, TIM_ICInitStruct->TIM_ICPrescaler);
 8001af0:	4628      	mov	r0, r5
 8001af2:	88e1      	ldrh	r1, [r4, #6]
 8001af4:	f7ff ffc0 	bl	8001a78 <TIM_SetIC3Prescaler>
 8001af8:	bd38      	pop	{r3, r4, r5, pc}
C:\Users\Filip\Eclipse\Template\Debug/../STM32F4xx_StdPeriph_Driver/src/stm32f4xx_tim.c:1932
  }
  else
  {
    /* TI4 Configuration */
    assert_param(IS_TIM_LIST3_PERIPH(TIMx));
    TI4_Config(TIMx, TIM_ICInitStruct->TIM_ICPolarity,
 8001afa:	8849      	ldrh	r1, [r1, #2]
 8001afc:	88a2      	ldrh	r2, [r4, #4]
 8001afe:	8923      	ldrh	r3, [r4, #8]
 8001b00:	f7ff fba0 	bl	8001244 <TI4_Config>
C:\Users\Filip\Eclipse\Template\Debug/../STM32F4xx_StdPeriph_Driver/src/stm32f4xx_tim.c:1936
               TIM_ICInitStruct->TIM_ICSelection,
               TIM_ICInitStruct->TIM_ICFilter);
    /* Set the Input Capture Prescaler value */
    TIM_SetIC4Prescaler(TIMx, TIM_ICInitStruct->TIM_ICPrescaler);
 8001b04:	4628      	mov	r0, r5
 8001b06:	88e1      	ldrh	r1, [r4, #6]
 8001b08:	f7ff ffc2 	bl	8001a90 <TIM_SetIC4Prescaler>
 8001b0c:	bd38      	pop	{r3, r4, r5, pc}
 8001b0e:	bf00      	nop

08001b10 <TIM_BDTRConfig>:
TIM_BDTRConfig():
C:\Users\Filip\Eclipse\Template\Debug/../STM32F4xx_StdPeriph_Driver/src/stm32f4xx_tim.c:2212
  * @param  TIM_BDTRInitStruct: pointer to a TIM_BDTRInitTypeDef structure that
  *         contains the BDTR Register configuration  information for the TIM peripheral.
  * @retval None
  */
void TIM_BDTRConfig(TIM_TypeDef* TIMx, TIM_BDTRInitTypeDef *TIM_BDTRInitStruct)
{
 8001b10:	b4f0      	push	{r4, r5, r6, r7}
C:\Users\Filip\Eclipse\Template\Debug/../STM32F4xx_StdPeriph_Driver/src/stm32f4xx_tim.c:2224
  assert_param(IS_TIM_BREAK_POLARITY(TIM_BDTRInitStruct->TIM_BreakPolarity));
  assert_param(IS_TIM_AUTOMATIC_OUTPUT_STATE(TIM_BDTRInitStruct->TIM_AutomaticOutput));

  /* Set the Lock level, the Break enable Bit and the Polarity, the OSSR State,
     the OSSI State, the dead time value and the Automatic Output Enable Bit */
  TIMx->BDTR = (uint32_t)TIM_BDTRInitStruct->TIM_OSSRState | TIM_BDTRInitStruct->TIM_OSSIState |
 8001b12:	f8b1 c000 	ldrh.w	ip, [r1]
 8001b16:	884b      	ldrh	r3, [r1, #2]
C:\Users\Filip\Eclipse\Template\Debug/../STM32F4xx_StdPeriph_Driver/src/stm32f4xx_tim.c:2225
             TIM_BDTRInitStruct->TIM_LOCKLevel | TIM_BDTRInitStruct->TIM_DeadTime |
 8001b18:	888f      	ldrh	r7, [r1, #4]
 8001b1a:	88ce      	ldrh	r6, [r1, #6]
C:\Users\Filip\Eclipse\Template\Debug/../STM32F4xx_StdPeriph_Driver/src/stm32f4xx_tim.c:2226
             TIM_BDTRInitStruct->TIM_Break | TIM_BDTRInitStruct->TIM_BreakPolarity |
 8001b1c:	890d      	ldrh	r5, [r1, #8]
 8001b1e:	894c      	ldrh	r4, [r1, #10]
C:\Users\Filip\Eclipse\Template\Debug/../STM32F4xx_StdPeriph_Driver/src/stm32f4xx_tim.c:2227
             TIM_BDTRInitStruct->TIM_AutomaticOutput;
 8001b20:	898a      	ldrh	r2, [r1, #12]
C:\Users\Filip\Eclipse\Template\Debug/../STM32F4xx_StdPeriph_Driver/src/stm32f4xx_tim.c:2224
  assert_param(IS_TIM_BREAK_POLARITY(TIM_BDTRInitStruct->TIM_BreakPolarity));
  assert_param(IS_TIM_AUTOMATIC_OUTPUT_STATE(TIM_BDTRInitStruct->TIM_AutomaticOutput));

  /* Set the Lock level, the Break enable Bit and the Polarity, the OSSR State,
     the OSSI State, the dead time value and the Automatic Output Enable Bit */
  TIMx->BDTR = (uint32_t)TIM_BDTRInitStruct->TIM_OSSRState | TIM_BDTRInitStruct->TIM_OSSIState |
 8001b22:	ea4c 0303 	orr.w	r3, ip, r3
 8001b26:	433b      	orrs	r3, r7
 8001b28:	4333      	orrs	r3, r6
 8001b2a:	432b      	orrs	r3, r5
 8001b2c:	4323      	orrs	r3, r4
 8001b2e:	4313      	orrs	r3, r2
 8001b30:	f8a0 3044 	strh.w	r3, [r0, #68]	; 0x44
C:\Users\Filip\Eclipse\Template\Debug/../STM32F4xx_StdPeriph_Driver/src/stm32f4xx_tim.c:2228
             TIM_BDTRInitStruct->TIM_LOCKLevel | TIM_BDTRInitStruct->TIM_DeadTime |
             TIM_BDTRInitStruct->TIM_Break | TIM_BDTRInitStruct->TIM_BreakPolarity |
             TIM_BDTRInitStruct->TIM_AutomaticOutput;
}
 8001b34:	bcf0      	pop	{r4, r5, r6, r7}
 8001b36:	4770      	bx	lr

08001b38 <TIM_BDTRStructInit>:
TIM_BDTRStructInit():
C:\Users\Filip\Eclipse\Template\Debug/../STM32F4xx_StdPeriph_Driver/src/stm32f4xx_tim.c:2239
  * @retval None
  */
void TIM_BDTRStructInit(TIM_BDTRInitTypeDef* TIM_BDTRInitStruct)
{
  /* Set the default configuration */
  TIM_BDTRInitStruct->TIM_OSSRState = TIM_OSSRState_Disable;
 8001b38:	2300      	movs	r3, #0
 8001b3a:	8003      	strh	r3, [r0, #0]
C:\Users\Filip\Eclipse\Template\Debug/../STM32F4xx_StdPeriph_Driver/src/stm32f4xx_tim.c:2240
  TIM_BDTRInitStruct->TIM_OSSIState = TIM_OSSIState_Disable;
 8001b3c:	8043      	strh	r3, [r0, #2]
C:\Users\Filip\Eclipse\Template\Debug/../STM32F4xx_StdPeriph_Driver/src/stm32f4xx_tim.c:2241
  TIM_BDTRInitStruct->TIM_LOCKLevel = TIM_LOCKLevel_OFF;
 8001b3e:	8083      	strh	r3, [r0, #4]
C:\Users\Filip\Eclipse\Template\Debug/../STM32F4xx_StdPeriph_Driver/src/stm32f4xx_tim.c:2242
  TIM_BDTRInitStruct->TIM_DeadTime = 0x00;
 8001b40:	80c3      	strh	r3, [r0, #6]
C:\Users\Filip\Eclipse\Template\Debug/../STM32F4xx_StdPeriph_Driver/src/stm32f4xx_tim.c:2243
  TIM_BDTRInitStruct->TIM_Break = TIM_Break_Disable;
 8001b42:	8103      	strh	r3, [r0, #8]
C:\Users\Filip\Eclipse\Template\Debug/../STM32F4xx_StdPeriph_Driver/src/stm32f4xx_tim.c:2244
  TIM_BDTRInitStruct->TIM_BreakPolarity = TIM_BreakPolarity_Low;
 8001b44:	8143      	strh	r3, [r0, #10]
C:\Users\Filip\Eclipse\Template\Debug/../STM32F4xx_StdPeriph_Driver/src/stm32f4xx_tim.c:2245
  TIM_BDTRInitStruct->TIM_AutomaticOutput = TIM_AutomaticOutput_Disable;
 8001b46:	8183      	strh	r3, [r0, #12]
 8001b48:	4770      	bx	lr
 8001b4a:	bf00      	nop

08001b4c <TIM_CtrlPWMOutputs>:
TIM_CtrlPWMOutputs():
C:\Users\Filip\Eclipse\Template\Debug/../STM32F4xx_StdPeriph_Driver/src/stm32f4xx_tim.c:2261
{
  /* Check the parameters */
  assert_param(IS_TIM_LIST4_PERIPH(TIMx));
  assert_param(IS_FUNCTIONAL_STATE(NewState));

  if (NewState != DISABLE)
 8001b4c:	b149      	cbz	r1, 8001b62 <TIM_CtrlPWMOutputs+0x16>
C:\Users\Filip\Eclipse\Template\Debug/../STM32F4xx_StdPeriph_Driver/src/stm32f4xx_tim.c:2264
  {
    /* Enable the TIM Main Output */
    TIMx->BDTR |= TIM_BDTR_MOE;
 8001b4e:	f8b0 3044 	ldrh.w	r3, [r0, #68]	; 0x44
 8001b52:	ea6f 4343 	mvn.w	r3, r3, lsl #17
 8001b56:	ea6f 4353 	mvn.w	r3, r3, lsr #17
 8001b5a:	b29b      	uxth	r3, r3
 8001b5c:	f8a0 3044 	strh.w	r3, [r0, #68]	; 0x44
 8001b60:	4770      	bx	lr
C:\Users\Filip\Eclipse\Template\Debug/../STM32F4xx_StdPeriph_Driver/src/stm32f4xx_tim.c:2269
  }
  else
  {
    /* Disable the TIM Main Output */
    TIMx->BDTR &= (uint16_t)~TIM_BDTR_MOE;
 8001b62:	f8b0 3044 	ldrh.w	r3, [r0, #68]	; 0x44
 8001b66:	f3c3 030e 	ubfx	r3, r3, #0, #15
 8001b6a:	f8a0 3044 	strh.w	r3, [r0, #68]	; 0x44
 8001b6e:	4770      	bx	lr

08001b70 <TIM_SelectCOM>:
TIM_SelectCOM():
C:\Users\Filip\Eclipse\Template\Debug/../STM32F4xx_StdPeriph_Driver/src/stm32f4xx_tim.c:2286
{
  /* Check the parameters */
  assert_param(IS_TIM_LIST4_PERIPH(TIMx));
  assert_param(IS_FUNCTIONAL_STATE(NewState));

  if (NewState != DISABLE)
 8001b70:	b129      	cbz	r1, 8001b7e <TIM_SelectCOM+0xe>
C:\Users\Filip\Eclipse\Template\Debug/../STM32F4xx_StdPeriph_Driver/src/stm32f4xx_tim.c:2289
  {
    /* Set the COM Bit */
    TIMx->CR2 |= TIM_CR2_CCUS;
 8001b72:	8883      	ldrh	r3, [r0, #4]
 8001b74:	b29b      	uxth	r3, r3
 8001b76:	f043 0304 	orr.w	r3, r3, #4
 8001b7a:	8083      	strh	r3, [r0, #4]
 8001b7c:	4770      	bx	lr
C:\Users\Filip\Eclipse\Template\Debug/../STM32F4xx_StdPeriph_Driver/src/stm32f4xx_tim.c:2294
  }
  else
  {
    /* Reset the COM Bit */
    TIMx->CR2 &= (uint16_t)~TIM_CR2_CCUS;
 8001b7e:	8883      	ldrh	r3, [r0, #4]
 8001b80:	f023 0304 	bic.w	r3, r3, #4
 8001b84:	041b      	lsls	r3, r3, #16
 8001b86:	0c1b      	lsrs	r3, r3, #16
 8001b88:	8083      	strh	r3, [r0, #4]
 8001b8a:	4770      	bx	lr

08001b8c <TIM_CCPreloadControl>:
TIM_CCPreloadControl():
C:\Users\Filip\Eclipse\Template\Debug/../STM32F4xx_StdPeriph_Driver/src/stm32f4xx_tim.c:2310
void TIM_CCPreloadControl(TIM_TypeDef* TIMx, FunctionalState NewState)
{ 
  /* Check the parameters */
  assert_param(IS_TIM_LIST4_PERIPH(TIMx));
  assert_param(IS_FUNCTIONAL_STATE(NewState));
  if (NewState != DISABLE)
 8001b8c:	b129      	cbz	r1, 8001b9a <TIM_CCPreloadControl+0xe>
C:\Users\Filip\Eclipse\Template\Debug/../STM32F4xx_StdPeriph_Driver/src/stm32f4xx_tim.c:2313
  {
    /* Set the CCPC Bit */
    TIMx->CR2 |= TIM_CR2_CCPC;
 8001b8e:	8883      	ldrh	r3, [r0, #4]
 8001b90:	b29b      	uxth	r3, r3
 8001b92:	f043 0301 	orr.w	r3, r3, #1
 8001b96:	8083      	strh	r3, [r0, #4]
 8001b98:	4770      	bx	lr
C:\Users\Filip\Eclipse\Template\Debug/../STM32F4xx_StdPeriph_Driver/src/stm32f4xx_tim.c:2318
  }
  else
  {
    /* Reset the CCPC Bit */
    TIMx->CR2 &= (uint16_t)~TIM_CR2_CCPC;
 8001b9a:	8883      	ldrh	r3, [r0, #4]
 8001b9c:	f023 0301 	bic.w	r3, r3, #1
 8001ba0:	041b      	lsls	r3, r3, #16
 8001ba2:	0c1b      	lsrs	r3, r3, #16
 8001ba4:	8083      	strh	r3, [r0, #4]
 8001ba6:	4770      	bx	lr

08001ba8 <TIM_ITConfig>:
TIM_ITConfig():
C:\Users\Filip\Eclipse\Template\Debug/../STM32F4xx_StdPeriph_Driver/src/stm32f4xx_tim.c:2369
  /* Check the parameters */
  assert_param(IS_TIM_ALL_PERIPH(TIMx));
  assert_param(IS_TIM_IT(TIM_IT));
  assert_param(IS_FUNCTIONAL_STATE(NewState));
  
  if (NewState != DISABLE)
 8001ba8:	b122      	cbz	r2, 8001bb4 <TIM_ITConfig+0xc>
C:\Users\Filip\Eclipse\Template\Debug/../STM32F4xx_StdPeriph_Driver/src/stm32f4xx_tim.c:2372
  {
    /* Enable the Interrupt sources */
    TIMx->DIER |= TIM_IT;
 8001baa:	8983      	ldrh	r3, [r0, #12]
 8001bac:	b29b      	uxth	r3, r3
 8001bae:	4319      	orrs	r1, r3
 8001bb0:	8181      	strh	r1, [r0, #12]
 8001bb2:	4770      	bx	lr
C:\Users\Filip\Eclipse\Template\Debug/../STM32F4xx_StdPeriph_Driver/src/stm32f4xx_tim.c:2377
  }
  else
  {
    /* Disable the Interrupt sources */
    TIMx->DIER &= (uint16_t)~TIM_IT;
 8001bb4:	8983      	ldrh	r3, [r0, #12]
 8001bb6:	43c9      	mvns	r1, r1
 8001bb8:	b289      	uxth	r1, r1
 8001bba:	4019      	ands	r1, r3
 8001bbc:	8181      	strh	r1, [r0, #12]
 8001bbe:	4770      	bx	lr

08001bc0 <TIM_GenerateEvent>:
TIM_GenerateEvent():
C:\Users\Filip\Eclipse\Template\Debug/../STM32F4xx_StdPeriph_Driver/src/stm32f4xx_tim.c:2407
  /* Check the parameters */
  assert_param(IS_TIM_ALL_PERIPH(TIMx));
  assert_param(IS_TIM_EVENT_SOURCE(TIM_EventSource));
 
  /* Set the event sources */
  TIMx->EGR = TIM_EventSource;
 8001bc0:	8281      	strh	r1, [r0, #20]
 8001bc2:	4770      	bx	lr

08001bc4 <TIM_GetFlagStatus>:
TIM_GetFlagStatus():
C:\Users\Filip\Eclipse\Template\Debug/../STM32F4xx_StdPeriph_Driver/src/stm32f4xx_tim.c:2441
  /* Check the parameters */
  assert_param(IS_TIM_ALL_PERIPH(TIMx));
  assert_param(IS_TIM_GET_FLAG(TIM_FLAG));

  
  if ((TIMx->SR & TIM_FLAG) != (uint16_t)RESET)
 8001bc4:	8a00      	ldrh	r0, [r0, #16]
 8001bc6:	4008      	ands	r0, r1
C:\Users\Filip\Eclipse\Template\Debug/../STM32F4xx_StdPeriph_Driver/src/stm32f4xx_tim.c:2450
  else
  {
    bitstatus = RESET;
  }
  return bitstatus;
}
 8001bc8:	3000      	adds	r0, #0
 8001bca:	bf18      	it	ne
 8001bcc:	2001      	movne	r0, #1
 8001bce:	4770      	bx	lr

08001bd0 <TIM_ClearFlag>:
TIM_ClearFlag():
C:\Users\Filip\Eclipse\Template\Debug/../STM32F4xx_StdPeriph_Driver/src/stm32f4xx_tim.c:2481
{  
  /* Check the parameters */
  assert_param(IS_TIM_ALL_PERIPH(TIMx));
   
  /* Clear the flags */
  TIMx->SR = (uint16_t)~TIM_FLAG;
 8001bd0:	43c9      	mvns	r1, r1
 8001bd2:	b289      	uxth	r1, r1
 8001bd4:	8201      	strh	r1, [r0, #16]
 8001bd6:	4770      	bx	lr

08001bd8 <TIM_GetITStatus>:
TIM_GetITStatus():
C:\Users\Filip\Eclipse\Template\Debug/../STM32F4xx_StdPeriph_Driver/src/stm32f4xx_tim.c:2511
  uint16_t itstatus = 0x0, itenable = 0x0;
  /* Check the parameters */
  assert_param(IS_TIM_ALL_PERIPH(TIMx));
  assert_param(IS_TIM_GET_IT(TIM_IT));
   
  itstatus = TIMx->SR & TIM_IT;
 8001bd8:	8a03      	ldrh	r3, [r0, #16]
C:\Users\Filip\Eclipse\Template\Debug/../STM32F4xx_StdPeriph_Driver/src/stm32f4xx_tim.c:2513
  
  itenable = TIMx->DIER & TIM_IT;
 8001bda:	8980      	ldrh	r0, [r0, #12]
 8001bdc:	4008      	ands	r0, r1
C:\Users\Filip\Eclipse\Template\Debug/../STM32F4xx_StdPeriph_Driver/src/stm32f4xx_tim.c:2514
  if ((itstatus != (uint16_t)RESET) && (itenable != (uint16_t)RESET))
 8001bde:	4219      	tst	r1, r3
 8001be0:	d003      	beq.n	8001bea <TIM_GetITStatus+0x12>
C:\Users\Filip\Eclipse\Template\Debug/../STM32F4xx_StdPeriph_Driver/src/stm32f4xx_tim.c:2520 (discriminator 1)
  {
    bitstatus = SET;
  }
  else
  {
    bitstatus = RESET;
 8001be2:	3000      	adds	r0, #0
 8001be4:	bf18      	it	ne
 8001be6:	2001      	movne	r0, #1
 8001be8:	4770      	bx	lr
C:\Users\Filip\Eclipse\Template\Debug/../STM32F4xx_StdPeriph_Driver/src/stm32f4xx_tim.c:2520
 8001bea:	2000      	movs	r0, #0
C:\Users\Filip\Eclipse\Template\Debug/../STM32F4xx_StdPeriph_Driver/src/stm32f4xx_tim.c:2523
  }
  return bitstatus;
}
 8001bec:	4770      	bx	lr
 8001bee:	bf00      	nop

08001bf0 <TIM_ClearITPendingBit>:
TIM_ClearITPendingBit():
C:\Users\Filip\Eclipse\Template\Debug/../STM32F4xx_StdPeriph_Driver/src/stm32f4xx_tim.c:2550
{
  /* Check the parameters */
  assert_param(IS_TIM_ALL_PERIPH(TIMx));

  /* Clear the IT pending Bit */
  TIMx->SR = (uint16_t)~TIM_IT;
 8001bf0:	43c9      	mvns	r1, r1
 8001bf2:	b289      	uxth	r1, r1
 8001bf4:	8201      	strh	r1, [r0, #16]
 8001bf6:	4770      	bx	lr

08001bf8 <TIM_DMAConfig>:
TIM_DMAConfig():
C:\Users\Filip\Eclipse\Template\Debug/../STM32F4xx_StdPeriph_Driver/src/stm32f4xx_tim.c:2589
  assert_param(IS_TIM_LIST3_PERIPH(TIMx));
  assert_param(IS_TIM_DMA_BASE(TIM_DMABase)); 
  assert_param(IS_TIM_DMA_LENGTH(TIM_DMABurstLength));

  /* Set the DMA Base and the DMA Burst Length */
  TIMx->DCR = TIM_DMABase | TIM_DMABurstLength;
 8001bf8:	430a      	orrs	r2, r1
 8001bfa:	f8a0 2048 	strh.w	r2, [r0, #72]	; 0x48
 8001bfe:	4770      	bx	lr

08001c00 <TIM_DMACmd>:
TIM_DMACmd():
C:\Users\Filip\Eclipse\Template\Debug/../STM32F4xx_StdPeriph_Driver/src/stm32f4xx_tim.c:2615
  /* Check the parameters */
  assert_param(IS_TIM_LIST5_PERIPH(TIMx)); 
  assert_param(IS_TIM_DMA_SOURCE(TIM_DMASource));
  assert_param(IS_FUNCTIONAL_STATE(NewState));
  
  if (NewState != DISABLE)
 8001c00:	b122      	cbz	r2, 8001c0c <TIM_DMACmd+0xc>
C:\Users\Filip\Eclipse\Template\Debug/../STM32F4xx_StdPeriph_Driver/src/stm32f4xx_tim.c:2618
  {
    /* Enable the DMA sources */
    TIMx->DIER |= TIM_DMASource; 
 8001c02:	8983      	ldrh	r3, [r0, #12]
 8001c04:	b29b      	uxth	r3, r3
 8001c06:	4319      	orrs	r1, r3
 8001c08:	8181      	strh	r1, [r0, #12]
 8001c0a:	4770      	bx	lr
C:\Users\Filip\Eclipse\Template\Debug/../STM32F4xx_StdPeriph_Driver/src/stm32f4xx_tim.c:2623
  }
  else
  {
    /* Disable the DMA sources */
    TIMx->DIER &= (uint16_t)~TIM_DMASource;
 8001c0c:	8983      	ldrh	r3, [r0, #12]
 8001c0e:	43c9      	mvns	r1, r1
 8001c10:	b289      	uxth	r1, r1
 8001c12:	4019      	ands	r1, r3
 8001c14:	8181      	strh	r1, [r0, #12]
 8001c16:	4770      	bx	lr

08001c18 <TIM_SelectCCDMA>:
TIM_SelectCCDMA():
C:\Users\Filip\Eclipse\Template\Debug/../STM32F4xx_StdPeriph_Driver/src/stm32f4xx_tim.c:2640
{
  /* Check the parameters */
  assert_param(IS_TIM_LIST3_PERIPH(TIMx));
  assert_param(IS_FUNCTIONAL_STATE(NewState));

  if (NewState != DISABLE)
 8001c18:	b129      	cbz	r1, 8001c26 <TIM_SelectCCDMA+0xe>
C:\Users\Filip\Eclipse\Template\Debug/../STM32F4xx_StdPeriph_Driver/src/stm32f4xx_tim.c:2643
  {
    /* Set the CCDS Bit */
    TIMx->CR2 |= TIM_CR2_CCDS;
 8001c1a:	8883      	ldrh	r3, [r0, #4]
 8001c1c:	b29b      	uxth	r3, r3
 8001c1e:	f043 0308 	orr.w	r3, r3, #8
 8001c22:	8083      	strh	r3, [r0, #4]
 8001c24:	4770      	bx	lr
C:\Users\Filip\Eclipse\Template\Debug/../STM32F4xx_StdPeriph_Driver/src/stm32f4xx_tim.c:2648
  }
  else
  {
    /* Reset the CCDS Bit */
    TIMx->CR2 &= (uint16_t)~TIM_CR2_CCDS;
 8001c26:	8883      	ldrh	r3, [r0, #4]
 8001c28:	f023 0308 	bic.w	r3, r3, #8
 8001c2c:	041b      	lsls	r3, r3, #16
 8001c2e:	0c1b      	lsrs	r3, r3, #16
 8001c30:	8083      	strh	r3, [r0, #4]
 8001c32:	4770      	bx	lr

08001c34 <TIM_InternalClockConfig>:
TIM_InternalClockConfig():
C:\Users\Filip\Eclipse\Template\Debug/../STM32F4xx_StdPeriph_Driver/src/stm32f4xx_tim.c:2679
{
  /* Check the parameters */
  assert_param(IS_TIM_LIST2_PERIPH(TIMx));

  /* Disable slave mode to clock the prescaler directly with the internal clock */
  TIMx->SMCR &=  (uint16_t)~TIM_SMCR_SMS;
 8001c34:	8903      	ldrh	r3, [r0, #8]
 8001c36:	f023 0307 	bic.w	r3, r3, #7
 8001c3a:	041b      	lsls	r3, r3, #16
 8001c3c:	0c1b      	lsrs	r3, r3, #16
 8001c3e:	8103      	strh	r3, [r0, #8]
 8001c40:	4770      	bx	lr
 8001c42:	bf00      	nop

08001c44 <TIM_SelectInputTrigger>:
TIM_SelectInputTrigger():
C:\Users\Filip\Eclipse\Template\Debug/../STM32F4xx_StdPeriph_Driver/src/stm32f4xx_tim.c:2888
  /* Check the parameters */
  assert_param(IS_TIM_LIST1_PERIPH(TIMx)); 
  assert_param(IS_TIM_TRIGGER_SELECTION(TIM_InputTriggerSource));

  /* Get the TIMx SMCR register value */
  tmpsmcr = TIMx->SMCR;
 8001c44:	8903      	ldrh	r3, [r0, #8]
C:\Users\Filip\Eclipse\Template\Debug/../STM32F4xx_StdPeriph_Driver/src/stm32f4xx_tim.c:2891

  /* Reset the TS Bits */
  tmpsmcr &= (uint16_t)~TIM_SMCR_TS;
 8001c46:	f023 0370 	bic.w	r3, r3, #112	; 0x70
 8001c4a:	041b      	lsls	r3, r3, #16
 8001c4c:	0c1b      	lsrs	r3, r3, #16
C:\Users\Filip\Eclipse\Template\Debug/../STM32F4xx_StdPeriph_Driver/src/stm32f4xx_tim.c:2894

  /* Set the Input Trigger source */
  tmpsmcr |= TIM_InputTriggerSource;
 8001c4e:	4319      	orrs	r1, r3
C:\Users\Filip\Eclipse\Template\Debug/../STM32F4xx_StdPeriph_Driver/src/stm32f4xx_tim.c:2897

  /* Write to TIMx SMCR */
  TIMx->SMCR = tmpsmcr;
 8001c50:	8101      	strh	r1, [r0, #8]
 8001c52:	4770      	bx	lr

08001c54 <TIM_ITRxExternalClockConfig>:
TIM_ITRxExternalClockConfig():
C:\Users\Filip\Eclipse\Template\Debug/../STM32F4xx_StdPeriph_Driver/src/stm32f4xx_tim.c:2695
  *            @arg TIM_TS_ITR2: Internal Trigger 2
  *            @arg TIM_TS_ITR3: Internal Trigger 3
  * @retval None
  */
void TIM_ITRxExternalClockConfig(TIM_TypeDef* TIMx, uint16_t TIM_InputTriggerSource)
{
 8001c54:	b510      	push	{r4, lr}
 8001c56:	4604      	mov	r4, r0
C:\Users\Filip\Eclipse\Template\Debug/../STM32F4xx_StdPeriph_Driver/src/stm32f4xx_tim.c:2701
  /* Check the parameters */
  assert_param(IS_TIM_LIST2_PERIPH(TIMx));
  assert_param(IS_TIM_INTERNAL_TRIGGER_SELECTION(TIM_InputTriggerSource));

  /* Select the Internal Trigger */
  TIM_SelectInputTrigger(TIMx, TIM_InputTriggerSource);
 8001c58:	f7ff fff4 	bl	8001c44 <TIM_SelectInputTrigger>
C:\Users\Filip\Eclipse\Template\Debug/../STM32F4xx_StdPeriph_Driver/src/stm32f4xx_tim.c:2704

  /* Select the External clock mode1 */
  TIMx->SMCR |= TIM_SlaveMode_External1;
 8001c5c:	8923      	ldrh	r3, [r4, #8]
 8001c5e:	b29b      	uxth	r3, r3
 8001c60:	f043 0307 	orr.w	r3, r3, #7
 8001c64:	8123      	strh	r3, [r4, #8]
 8001c66:	bd10      	pop	{r4, pc}

08001c68 <TIM_TIxExternalClockConfig>:
TIM_TIxExternalClockConfig():
C:\Users\Filip\Eclipse\Template\Debug/../STM32F4xx_StdPeriph_Driver/src/stm32f4xx_tim.c:2726
  *          This parameter must be a value between 0x0 and 0xF.
  * @retval None
  */
void TIM_TIxExternalClockConfig(TIM_TypeDef* TIMx, uint16_t TIM_TIxExternalCLKSource,
                                uint16_t TIM_ICPolarity, uint16_t ICFilter)
{
 8001c68:	b538      	push	{r3, r4, r5, lr}
 8001c6a:	4604      	mov	r4, r0
 8001c6c:	460d      	mov	r5, r1
C:\Users\Filip\Eclipse\Template\Debug/../STM32F4xx_StdPeriph_Driver/src/stm32f4xx_tim.c:2733
  assert_param(IS_TIM_LIST1_PERIPH(TIMx));
  assert_param(IS_TIM_IC_POLARITY(TIM_ICPolarity));
  assert_param(IS_TIM_IC_FILTER(ICFilter));

  /* Configure the Timer Input Clock Source */
  if (TIM_TIxExternalCLKSource == TIM_TIxExternalCLK1Source_TI2)
 8001c6e:	2960      	cmp	r1, #96	; 0x60
 8001c70:	d104      	bne.n	8001c7c <TIM_TIxExternalClockConfig+0x14>
C:\Users\Filip\Eclipse\Template\Debug/../STM32F4xx_StdPeriph_Driver/src/stm32f4xx_tim.c:2735
  {
    TI2_Config(TIMx, TIM_ICPolarity, TIM_ICSelection_DirectTI, ICFilter);
 8001c72:	4611      	mov	r1, r2
 8001c74:	2201      	movs	r2, #1
 8001c76:	f7ff faa7 	bl	80011c8 <TI2_Config>
 8001c7a:	e003      	b.n	8001c84 <TIM_TIxExternalClockConfig+0x1c>
C:\Users\Filip\Eclipse\Template\Debug/../STM32F4xx_StdPeriph_Driver/src/stm32f4xx_tim.c:2739
  }
  else
  {
    TI1_Config(TIMx, TIM_ICPolarity, TIM_ICSelection_DirectTI, ICFilter);
 8001c7c:	4611      	mov	r1, r2
 8001c7e:	2201      	movs	r2, #1
 8001c80:	f7ff fa86 	bl	8001190 <TI1_Config>
C:\Users\Filip\Eclipse\Template\Debug/../STM32F4xx_StdPeriph_Driver/src/stm32f4xx_tim.c:2742
  }
  /* Select the Trigger source */
  TIM_SelectInputTrigger(TIMx, TIM_TIxExternalCLKSource);
 8001c84:	4620      	mov	r0, r4
 8001c86:	4629      	mov	r1, r5
 8001c88:	f7ff ffdc 	bl	8001c44 <TIM_SelectInputTrigger>
C:\Users\Filip\Eclipse\Template\Debug/../STM32F4xx_StdPeriph_Driver/src/stm32f4xx_tim.c:2744
  /* Select the External clock mode1 */
  TIMx->SMCR |= TIM_SlaveMode_External1;
 8001c8c:	8923      	ldrh	r3, [r4, #8]
 8001c8e:	b29b      	uxth	r3, r3
 8001c90:	f043 0307 	orr.w	r3, r3, #7
 8001c94:	8123      	strh	r3, [r4, #8]
 8001c96:	bd38      	pop	{r3, r4, r5, pc}

08001c98 <TIM_SelectOutputTrigger>:
TIM_SelectOutputTrigger():
C:\Users\Filip\Eclipse\Template\Debug/../STM32F4xx_StdPeriph_Driver/src/stm32f4xx_tim.c:2929
  /* Check the parameters */
  assert_param(IS_TIM_LIST5_PERIPH(TIMx));
  assert_param(IS_TIM_TRGO_SOURCE(TIM_TRGOSource));

  /* Reset the MMS Bits */
  TIMx->CR2 &= (uint16_t)~TIM_CR2_MMS;
 8001c98:	8883      	ldrh	r3, [r0, #4]
 8001c9a:	f023 0370 	bic.w	r3, r3, #112	; 0x70
 8001c9e:	041b      	lsls	r3, r3, #16
 8001ca0:	0c1b      	lsrs	r3, r3, #16
 8001ca2:	8083      	strh	r3, [r0, #4]
C:\Users\Filip\Eclipse\Template\Debug/../STM32F4xx_StdPeriph_Driver/src/stm32f4xx_tim.c:2931
  /* Select the TRGO source */
  TIMx->CR2 |=  TIM_TRGOSource;
 8001ca4:	8883      	ldrh	r3, [r0, #4]
 8001ca6:	b29b      	uxth	r3, r3
 8001ca8:	4319      	orrs	r1, r3
 8001caa:	8081      	strh	r1, [r0, #4]
 8001cac:	4770      	bx	lr
 8001cae:	bf00      	nop

08001cb0 <TIM_SelectSlaveMode>:
TIM_SelectSlaveMode():
C:\Users\Filip\Eclipse\Template\Debug/../STM32F4xx_StdPeriph_Driver/src/stm32f4xx_tim.c:2953
  /* Check the parameters */
  assert_param(IS_TIM_LIST2_PERIPH(TIMx));
  assert_param(IS_TIM_SLAVE_MODE(TIM_SlaveMode));

  /* Reset the SMS Bits */
  TIMx->SMCR &= (uint16_t)~TIM_SMCR_SMS;
 8001cb0:	8903      	ldrh	r3, [r0, #8]
 8001cb2:	f023 0307 	bic.w	r3, r3, #7
 8001cb6:	041b      	lsls	r3, r3, #16
 8001cb8:	0c1b      	lsrs	r3, r3, #16
 8001cba:	8103      	strh	r3, [r0, #8]
C:\Users\Filip\Eclipse\Template\Debug/../STM32F4xx_StdPeriph_Driver/src/stm32f4xx_tim.c:2956

  /* Select the Slave Mode */
  TIMx->SMCR |= TIM_SlaveMode;
 8001cbc:	8903      	ldrh	r3, [r0, #8]
 8001cbe:	b29b      	uxth	r3, r3
 8001cc0:	4319      	orrs	r1, r3
 8001cc2:	8101      	strh	r1, [r0, #8]
 8001cc4:	4770      	bx	lr
 8001cc6:	bf00      	nop

08001cc8 <TIM_SelectMasterSlaveMode>:
TIM_SelectMasterSlaveMode():
C:\Users\Filip\Eclipse\Template\Debug/../STM32F4xx_StdPeriph_Driver/src/stm32f4xx_tim.c:2976
  /* Check the parameters */
  assert_param(IS_TIM_LIST2_PERIPH(TIMx));
  assert_param(IS_TIM_MSM_STATE(TIM_MasterSlaveMode));

  /* Reset the MSM Bit */
  TIMx->SMCR &= (uint16_t)~TIM_SMCR_MSM;
 8001cc8:	8903      	ldrh	r3, [r0, #8]
 8001cca:	f023 0380 	bic.w	r3, r3, #128	; 0x80
 8001cce:	041b      	lsls	r3, r3, #16
 8001cd0:	0c1b      	lsrs	r3, r3, #16
 8001cd2:	8103      	strh	r3, [r0, #8]
C:\Users\Filip\Eclipse\Template\Debug/../STM32F4xx_StdPeriph_Driver/src/stm32f4xx_tim.c:2979
  
  /* Set or Reset the MSM Bit */
  TIMx->SMCR |= TIM_MasterSlaveMode;
 8001cd4:	8903      	ldrh	r3, [r0, #8]
 8001cd6:	b29b      	uxth	r3, r3
 8001cd8:	4319      	orrs	r1, r3
 8001cda:	8101      	strh	r1, [r0, #8]
 8001cdc:	4770      	bx	lr
 8001cde:	bf00      	nop

08001ce0 <TIM_ETRConfig>:
TIM_ETRConfig():
C:\Users\Filip\Eclipse\Template\Debug/../STM32F4xx_StdPeriph_Driver/src/stm32f4xx_tim.c:3001
  *          This parameter must be a value between 0x00 and 0x0F
  * @retval None
  */
void TIM_ETRConfig(TIM_TypeDef* TIMx, uint16_t TIM_ExtTRGPrescaler,
                   uint16_t TIM_ExtTRGPolarity, uint16_t ExtTRGFilter)
{
 8001ce0:	b410      	push	{r4}
C:\Users\Filip\Eclipse\Template\Debug/../STM32F4xx_StdPeriph_Driver/src/stm32f4xx_tim.c:3010
  assert_param(IS_TIM_LIST3_PERIPH(TIMx));
  assert_param(IS_TIM_EXT_PRESCALER(TIM_ExtTRGPrescaler));
  assert_param(IS_TIM_EXT_POLARITY(TIM_ExtTRGPolarity));
  assert_param(IS_TIM_EXT_FILTER(ExtTRGFilter));

  tmpsmcr = TIMx->SMCR;
 8001ce2:	8904      	ldrh	r4, [r0, #8]
C:\Users\Filip\Eclipse\Template\Debug/../STM32F4xx_StdPeriph_Driver/src/stm32f4xx_tim.c:3013

  /* Reset the ETR Bits */
  tmpsmcr &= SMCR_ETR_MASK;
 8001ce4:	b2e4      	uxtb	r4, r4
C:\Users\Filip\Eclipse\Template\Debug/../STM32F4xx_StdPeriph_Driver/src/stm32f4xx_tim.c:3016

  /* Set the Prescaler, the Filter value and the Polarity */
  tmpsmcr |= (uint16_t)(TIM_ExtTRGPrescaler | (uint16_t)(TIM_ExtTRGPolarity | (uint16_t)(ExtTRGFilter << (uint16_t)8)));
 8001ce6:	021b      	lsls	r3, r3, #8
 8001ce8:	b29b      	uxth	r3, r3
 8001cea:	431a      	orrs	r2, r3
 8001cec:	4311      	orrs	r1, r2
 8001cee:	430c      	orrs	r4, r1
C:\Users\Filip\Eclipse\Template\Debug/../STM32F4xx_StdPeriph_Driver/src/stm32f4xx_tim.c:3019

  /* Write to TIMx SMCR */
  TIMx->SMCR = tmpsmcr;
 8001cf0:	8104      	strh	r4, [r0, #8]
C:\Users\Filip\Eclipse\Template\Debug/../STM32F4xx_StdPeriph_Driver/src/stm32f4xx_tim.c:3020
}
 8001cf2:	f85d 4b04 	ldr.w	r4, [sp], #4
 8001cf6:	4770      	bx	lr

08001cf8 <TIM_ETRClockMode1Config>:
TIM_ETRClockMode1Config():
C:\Users\Filip\Eclipse\Template\Debug/../STM32F4xx_StdPeriph_Driver/src/stm32f4xx_tim.c:2766
  *          This parameter must be a value between 0x00 and 0x0F
  * @retval None
  */
void TIM_ETRClockMode1Config(TIM_TypeDef* TIMx, uint16_t TIM_ExtTRGPrescaler,
                            uint16_t TIM_ExtTRGPolarity, uint16_t ExtTRGFilter)
{
 8001cf8:	b510      	push	{r4, lr}
 8001cfa:	4604      	mov	r4, r0
C:\Users\Filip\Eclipse\Template\Debug/../STM32F4xx_StdPeriph_Driver/src/stm32f4xx_tim.c:2775
  assert_param(IS_TIM_LIST3_PERIPH(TIMx));
  assert_param(IS_TIM_EXT_PRESCALER(TIM_ExtTRGPrescaler));
  assert_param(IS_TIM_EXT_POLARITY(TIM_ExtTRGPolarity));
  assert_param(IS_TIM_EXT_FILTER(ExtTRGFilter));
  /* Configure the ETR Clock source */
  TIM_ETRConfig(TIMx, TIM_ExtTRGPrescaler, TIM_ExtTRGPolarity, ExtTRGFilter);
 8001cfc:	f7ff fff0 	bl	8001ce0 <TIM_ETRConfig>
C:\Users\Filip\Eclipse\Template\Debug/../STM32F4xx_StdPeriph_Driver/src/stm32f4xx_tim.c:2778
  
  /* Get the TIMx SMCR register value */
  tmpsmcr = TIMx->SMCR;
 8001d00:	8923      	ldrh	r3, [r4, #8]
C:\Users\Filip\Eclipse\Template\Debug/../STM32F4xx_StdPeriph_Driver/src/stm32f4xx_tim.c:2787

  /* Select the External clock mode1 */
  tmpsmcr |= TIM_SlaveMode_External1;

  /* Select the Trigger selection : ETRF */
  tmpsmcr &= (uint16_t)~TIM_SMCR_TS;
 8001d02:	f023 0377 	bic.w	r3, r3, #119	; 0x77
 8001d06:	041b      	lsls	r3, r3, #16
 8001d08:	0c1b      	lsrs	r3, r3, #16
C:\Users\Filip\Eclipse\Template\Debug/../STM32F4xx_StdPeriph_Driver/src/stm32f4xx_tim.c:2788
  tmpsmcr |= TIM_TS_ETRF;
 8001d0a:	f043 0377 	orr.w	r3, r3, #119	; 0x77
C:\Users\Filip\Eclipse\Template\Debug/../STM32F4xx_StdPeriph_Driver/src/stm32f4xx_tim.c:2791

  /* Write to TIMx SMCR */
  TIMx->SMCR = tmpsmcr;
 8001d0e:	8123      	strh	r3, [r4, #8]
 8001d10:	bd10      	pop	{r4, pc}
 8001d12:	bf00      	nop

08001d14 <TIM_ETRClockMode2Config>:
TIM_ETRClockMode2Config():
C:\Users\Filip\Eclipse\Template\Debug/../STM32F4xx_StdPeriph_Driver/src/stm32f4xx_tim.c:2813
  *          This parameter must be a value between 0x00 and 0x0F
  * @retval None
  */
void TIM_ETRClockMode2Config(TIM_TypeDef* TIMx, uint16_t TIM_ExtTRGPrescaler, 
                             uint16_t TIM_ExtTRGPolarity, uint16_t ExtTRGFilter)
{
 8001d14:	b510      	push	{r4, lr}
 8001d16:	4604      	mov	r4, r0
C:\Users\Filip\Eclipse\Template\Debug/../STM32F4xx_StdPeriph_Driver/src/stm32f4xx_tim.c:2821
  assert_param(IS_TIM_EXT_PRESCALER(TIM_ExtTRGPrescaler));
  assert_param(IS_TIM_EXT_POLARITY(TIM_ExtTRGPolarity));
  assert_param(IS_TIM_EXT_FILTER(ExtTRGFilter));

  /* Configure the ETR Clock source */
  TIM_ETRConfig(TIMx, TIM_ExtTRGPrescaler, TIM_ExtTRGPolarity, ExtTRGFilter);
 8001d18:	f7ff ffe2 	bl	8001ce0 <TIM_ETRConfig>
C:\Users\Filip\Eclipse\Template\Debug/../STM32F4xx_StdPeriph_Driver/src/stm32f4xx_tim.c:2824

  /* Enable the External clock mode2 */
  TIMx->SMCR |= TIM_SMCR_ECE;
 8001d1c:	8923      	ldrh	r3, [r4, #8]
 8001d1e:	b29b      	uxth	r3, r3
 8001d20:	f443 4380 	orr.w	r3, r3, #16384	; 0x4000
 8001d24:	8123      	strh	r3, [r4, #8]
 8001d26:	bd10      	pop	{r4, pc}

08001d28 <TIM_EncoderInterfaceConfig>:
TIM_EncoderInterfaceConfig():
C:\Users\Filip\Eclipse\Template\Debug/../STM32F4xx_StdPeriph_Driver/src/stm32f4xx_tim.c:3059
  *            @arg TIM_ICPolarity_Rising: IC Rising edge.
  * @retval None
  */
void TIM_EncoderInterfaceConfig(TIM_TypeDef* TIMx, uint16_t TIM_EncoderMode,
                                uint16_t TIM_IC1Polarity, uint16_t TIM_IC2Polarity)
{
 8001d28:	b470      	push	{r4, r5, r6}
C:\Users\Filip\Eclipse\Template\Debug/../STM32F4xx_StdPeriph_Driver/src/stm32f4xx_tim.c:3071
  assert_param(IS_TIM_ENCODER_MODE(TIM_EncoderMode));
  assert_param(IS_TIM_IC_POLARITY(TIM_IC1Polarity));
  assert_param(IS_TIM_IC_POLARITY(TIM_IC2Polarity));

  /* Get the TIMx SMCR register value */
  tmpsmcr = TIMx->SMCR;
 8001d2a:	8904      	ldrh	r4, [r0, #8]
C:\Users\Filip\Eclipse\Template\Debug/../STM32F4xx_StdPeriph_Driver/src/stm32f4xx_tim.c:3074

  /* Get the TIMx CCMR1 register value */
  tmpccmr1 = TIMx->CCMR1;
 8001d2c:	8b06      	ldrh	r6, [r0, #24]
 8001d2e:	b2b6      	uxth	r6, r6
C:\Users\Filip\Eclipse\Template\Debug/../STM32F4xx_StdPeriph_Driver/src/stm32f4xx_tim.c:3077

  /* Get the TIMx CCER register value */
  tmpccer = TIMx->CCER;
 8001d30:	8c05      	ldrh	r5, [r0, #32]
C:\Users\Filip\Eclipse\Template\Debug/../STM32F4xx_StdPeriph_Driver/src/stm32f4xx_tim.c:3080

  /* Set the encoder Mode */
  tmpsmcr &= (uint16_t)~TIM_SMCR_SMS;
 8001d32:	f024 0407 	bic.w	r4, r4, #7
 8001d36:	0424      	lsls	r4, r4, #16
 8001d38:	0c24      	lsrs	r4, r4, #16
C:\Users\Filip\Eclipse\Template\Debug/../STM32F4xx_StdPeriph_Driver/src/stm32f4xx_tim.c:3081
  tmpsmcr |= TIM_EncoderMode;
 8001d3a:	4321      	orrs	r1, r4
C:\Users\Filip\Eclipse\Template\Debug/../STM32F4xx_StdPeriph_Driver/src/stm32f4xx_tim.c:3084

  /* Select the Capture Compare 1 and the Capture Compare 2 as input */
  tmpccmr1 &= ((uint16_t)~TIM_CCMR1_CC1S) & ((uint16_t)~TIM_CCMR1_CC2S);
 8001d3c:	f426 7640 	bic.w	r6, r6, #768	; 0x300
 8001d40:	f026 0603 	bic.w	r6, r6, #3
C:\Users\Filip\Eclipse\Template\Debug/../STM32F4xx_StdPeriph_Driver/src/stm32f4xx_tim.c:3085
  tmpccmr1 |= TIM_CCMR1_CC1S_0 | TIM_CCMR1_CC2S_0;
 8001d44:	f446 7680 	orr.w	r6, r6, #256	; 0x100
 8001d48:	f046 0601 	orr.w	r6, r6, #1
C:\Users\Filip\Eclipse\Template\Debug/../STM32F4xx_StdPeriph_Driver/src/stm32f4xx_tim.c:3088

  /* Set the TI1 and the TI2 Polarities */
  tmpccer &= ((uint16_t)~TIM_CCER_CC1P) & ((uint16_t)~TIM_CCER_CC2P);
 8001d4c:	f025 0522 	bic.w	r5, r5, #34	; 0x22
 8001d50:	042d      	lsls	r5, r5, #16
 8001d52:	0c2d      	lsrs	r5, r5, #16
C:\Users\Filip\Eclipse\Template\Debug/../STM32F4xx_StdPeriph_Driver/src/stm32f4xx_tim.c:3089
  tmpccer |= (uint16_t)(TIM_IC1Polarity | (uint16_t)(TIM_IC2Polarity << (uint16_t)4));
 8001d54:	011b      	lsls	r3, r3, #4
 8001d56:	b29b      	uxth	r3, r3
 8001d58:	431a      	orrs	r2, r3
 8001d5a:	4315      	orrs	r5, r2
C:\Users\Filip\Eclipse\Template\Debug/../STM32F4xx_StdPeriph_Driver/src/stm32f4xx_tim.c:3092

  /* Write to TIMx SMCR */
  TIMx->SMCR = tmpsmcr;
 8001d5c:	8101      	strh	r1, [r0, #8]
C:\Users\Filip\Eclipse\Template\Debug/../STM32F4xx_StdPeriph_Driver/src/stm32f4xx_tim.c:3095

  /* Write to TIMx CCMR1 */
  TIMx->CCMR1 = tmpccmr1;
 8001d5e:	8306      	strh	r6, [r0, #24]
C:\Users\Filip\Eclipse\Template\Debug/../STM32F4xx_StdPeriph_Driver/src/stm32f4xx_tim.c:3098

  /* Write to TIMx CCER */
  TIMx->CCER = tmpccer;
 8001d60:	8405      	strh	r5, [r0, #32]
C:\Users\Filip\Eclipse\Template\Debug/../STM32F4xx_StdPeriph_Driver/src/stm32f4xx_tim.c:3099
}
 8001d62:	bc70      	pop	{r4, r5, r6}
 8001d64:	4770      	bx	lr
 8001d66:	bf00      	nop

08001d68 <TIM_SelectHallSensor>:
TIM_SelectHallSensor():
C:\Users\Filip\Eclipse\Template\Debug/../STM32F4xx_StdPeriph_Driver/src/stm32f4xx_tim.c:3115
{
  /* Check the parameters */
  assert_param(IS_TIM_LIST2_PERIPH(TIMx));
  assert_param(IS_FUNCTIONAL_STATE(NewState));

  if (NewState != DISABLE)
 8001d68:	b129      	cbz	r1, 8001d76 <TIM_SelectHallSensor+0xe>
C:\Users\Filip\Eclipse\Template\Debug/../STM32F4xx_StdPeriph_Driver/src/stm32f4xx_tim.c:3118
  {
    /* Set the TI1S Bit */
    TIMx->CR2 |= TIM_CR2_TI1S;
 8001d6a:	8883      	ldrh	r3, [r0, #4]
 8001d6c:	b29b      	uxth	r3, r3
 8001d6e:	f043 0380 	orr.w	r3, r3, #128	; 0x80
 8001d72:	8083      	strh	r3, [r0, #4]
 8001d74:	4770      	bx	lr
C:\Users\Filip\Eclipse\Template\Debug/../STM32F4xx_StdPeriph_Driver/src/stm32f4xx_tim.c:3123
  }
  else
  {
    /* Reset the TI1S Bit */
    TIMx->CR2 &= (uint16_t)~TIM_CR2_TI1S;
 8001d76:	8883      	ldrh	r3, [r0, #4]
 8001d78:	f023 0380 	bic.w	r3, r3, #128	; 0x80
 8001d7c:	041b      	lsls	r3, r3, #16
 8001d7e:	0c1b      	lsrs	r3, r3, #16
 8001d80:	8083      	strh	r3, [r0, #4]
 8001d82:	4770      	bx	lr

08001d84 <TIM_RemapConfig>:
TIM_RemapConfig():
C:\Users\Filip\Eclipse\Template\Debug/../STM32F4xx_StdPeriph_Driver/src/stm32f4xx_tim.c:3167
 /* Check the parameters */
  assert_param(IS_TIM_LIST6_PERIPH(TIMx));
  assert_param(IS_TIM_REMAP(TIM_Remap));

  /* Set the Timer remapping configuration */
  TIMx->OR =  TIM_Remap;
 8001d84:	f8a0 1050 	strh.w	r1, [r0, #80]	; 0x50
 8001d88:	4770      	bx	lr
 8001d8a:	bf00      	nop

08001d8c <USART_DeInit>:
USART_DeInit():
C:\Users\Filip\Eclipse\Template\Debug/../STM32F4xx_StdPeriph_Driver/src/stm32f4xx_usart.c:179
  * @param  USARTx: where x can be 1, 2, 3, 4, 5 or 6 to select the USART or 
  *         UART peripheral.
  * @retval None
  */
void USART_DeInit(USART_TypeDef* USARTx)
{
 8001d8c:	b508      	push	{r3, lr}
C:\Users\Filip\Eclipse\Template\Debug/../STM32F4xx_StdPeriph_Driver/src/stm32f4xx_usart.c:183
  /* Check the parameters */
  assert_param(IS_USART_ALL_PERIPH(USARTx));

  if (USARTx == USART1)
 8001d8e:	4b28      	ldr	r3, [pc, #160]	; (8001e30 <USART_DeInit+0xa4>)
 8001d90:	4298      	cmp	r0, r3
 8001d92:	d108      	bne.n	8001da6 <USART_DeInit+0x1a>
C:\Users\Filip\Eclipse\Template\Debug/../STM32F4xx_StdPeriph_Driver/src/stm32f4xx_usart.c:185
  {
    RCC_APB2PeriphResetCmd(RCC_APB2Periph_USART1, ENABLE);
 8001d94:	2010      	movs	r0, #16
 8001d96:	2101      	movs	r1, #1
 8001d98:	f7ff f910 	bl	8000fbc <RCC_APB2PeriphResetCmd>
C:\Users\Filip\Eclipse\Template\Debug/../STM32F4xx_StdPeriph_Driver/src/stm32f4xx_usart.c:186
    RCC_APB2PeriphResetCmd(RCC_APB2Periph_USART1, DISABLE);
 8001d9c:	2010      	movs	r0, #16
 8001d9e:	2100      	movs	r1, #0
 8001da0:	f7ff f90c 	bl	8000fbc <RCC_APB2PeriphResetCmd>
 8001da4:	bd08      	pop	{r3, pc}
C:\Users\Filip\Eclipse\Template\Debug/../STM32F4xx_StdPeriph_Driver/src/stm32f4xx_usart.c:188
  }
  else if (USARTx == USART2)
 8001da6:	4b23      	ldr	r3, [pc, #140]	; (8001e34 <USART_DeInit+0xa8>)
 8001da8:	4298      	cmp	r0, r3
 8001daa:	d10a      	bne.n	8001dc2 <USART_DeInit+0x36>
C:\Users\Filip\Eclipse\Template\Debug/../STM32F4xx_StdPeriph_Driver/src/stm32f4xx_usart.c:190
  {
    RCC_APB1PeriphResetCmd(RCC_APB1Periph_USART2, ENABLE);
 8001dac:	f44f 3000 	mov.w	r0, #131072	; 0x20000
 8001db0:	2101      	movs	r1, #1
 8001db2:	f7ff f8f5 	bl	8000fa0 <RCC_APB1PeriphResetCmd>
C:\Users\Filip\Eclipse\Template\Debug/../STM32F4xx_StdPeriph_Driver/src/stm32f4xx_usart.c:191
    RCC_APB1PeriphResetCmd(RCC_APB1Periph_USART2, DISABLE);
 8001db6:	f44f 3000 	mov.w	r0, #131072	; 0x20000
 8001dba:	2100      	movs	r1, #0
 8001dbc:	f7ff f8f0 	bl	8000fa0 <RCC_APB1PeriphResetCmd>
 8001dc0:	bd08      	pop	{r3, pc}
C:\Users\Filip\Eclipse\Template\Debug/../STM32F4xx_StdPeriph_Driver/src/stm32f4xx_usart.c:193
  }
  else if (USARTx == USART3)
 8001dc2:	4b1d      	ldr	r3, [pc, #116]	; (8001e38 <USART_DeInit+0xac>)
 8001dc4:	4298      	cmp	r0, r3
 8001dc6:	d10a      	bne.n	8001dde <USART_DeInit+0x52>
C:\Users\Filip\Eclipse\Template\Debug/../STM32F4xx_StdPeriph_Driver/src/stm32f4xx_usart.c:195
  {
    RCC_APB1PeriphResetCmd(RCC_APB1Periph_USART3, ENABLE);
 8001dc8:	f44f 2080 	mov.w	r0, #262144	; 0x40000
 8001dcc:	2101      	movs	r1, #1
 8001dce:	f7ff f8e7 	bl	8000fa0 <RCC_APB1PeriphResetCmd>
C:\Users\Filip\Eclipse\Template\Debug/../STM32F4xx_StdPeriph_Driver/src/stm32f4xx_usart.c:196
    RCC_APB1PeriphResetCmd(RCC_APB1Periph_USART3, DISABLE);
 8001dd2:	f44f 2080 	mov.w	r0, #262144	; 0x40000
 8001dd6:	2100      	movs	r1, #0
 8001dd8:	f7ff f8e2 	bl	8000fa0 <RCC_APB1PeriphResetCmd>
 8001ddc:	bd08      	pop	{r3, pc}
C:\Users\Filip\Eclipse\Template\Debug/../STM32F4xx_StdPeriph_Driver/src/stm32f4xx_usart.c:198
  }    
  else if (USARTx == UART4)
 8001dde:	4b17      	ldr	r3, [pc, #92]	; (8001e3c <USART_DeInit+0xb0>)
 8001de0:	4298      	cmp	r0, r3
 8001de2:	d10a      	bne.n	8001dfa <USART_DeInit+0x6e>
C:\Users\Filip\Eclipse\Template\Debug/../STM32F4xx_StdPeriph_Driver/src/stm32f4xx_usart.c:200
  {
    RCC_APB1PeriphResetCmd(RCC_APB1Periph_UART4, ENABLE);
 8001de4:	f44f 2000 	mov.w	r0, #524288	; 0x80000
 8001de8:	2101      	movs	r1, #1
 8001dea:	f7ff f8d9 	bl	8000fa0 <RCC_APB1PeriphResetCmd>
C:\Users\Filip\Eclipse\Template\Debug/../STM32F4xx_StdPeriph_Driver/src/stm32f4xx_usart.c:201
    RCC_APB1PeriphResetCmd(RCC_APB1Periph_UART4, DISABLE);
 8001dee:	f44f 2000 	mov.w	r0, #524288	; 0x80000
 8001df2:	2100      	movs	r1, #0
 8001df4:	f7ff f8d4 	bl	8000fa0 <RCC_APB1PeriphResetCmd>
 8001df8:	bd08      	pop	{r3, pc}
C:\Users\Filip\Eclipse\Template\Debug/../STM32F4xx_StdPeriph_Driver/src/stm32f4xx_usart.c:203
  }
  else if (USARTx == UART5)
 8001dfa:	4b11      	ldr	r3, [pc, #68]	; (8001e40 <USART_DeInit+0xb4>)
 8001dfc:	4298      	cmp	r0, r3
 8001dfe:	d10a      	bne.n	8001e16 <USART_DeInit+0x8a>
C:\Users\Filip\Eclipse\Template\Debug/../STM32F4xx_StdPeriph_Driver/src/stm32f4xx_usart.c:205
  {
    RCC_APB1PeriphResetCmd(RCC_APB1Periph_UART5, ENABLE);
 8001e00:	f44f 1080 	mov.w	r0, #1048576	; 0x100000
 8001e04:	2101      	movs	r1, #1
 8001e06:	f7ff f8cb 	bl	8000fa0 <RCC_APB1PeriphResetCmd>
C:\Users\Filip\Eclipse\Template\Debug/../STM32F4xx_StdPeriph_Driver/src/stm32f4xx_usart.c:206
    RCC_APB1PeriphResetCmd(RCC_APB1Periph_UART5, DISABLE);
 8001e0a:	f44f 1080 	mov.w	r0, #1048576	; 0x100000
 8001e0e:	2100      	movs	r1, #0
 8001e10:	f7ff f8c6 	bl	8000fa0 <RCC_APB1PeriphResetCmd>
 8001e14:	bd08      	pop	{r3, pc}
C:\Users\Filip\Eclipse\Template\Debug/../STM32F4xx_StdPeriph_Driver/src/stm32f4xx_usart.c:210
  }     
  else
  {
    if (USARTx == USART6)
 8001e16:	4b0b      	ldr	r3, [pc, #44]	; (8001e44 <USART_DeInit+0xb8>)
 8001e18:	4298      	cmp	r0, r3
 8001e1a:	d107      	bne.n	8001e2c <USART_DeInit+0xa0>
C:\Users\Filip\Eclipse\Template\Debug/../STM32F4xx_StdPeriph_Driver/src/stm32f4xx_usart.c:212
    { 
      RCC_APB2PeriphResetCmd(RCC_APB2Periph_USART6, ENABLE);
 8001e1c:	2020      	movs	r0, #32
 8001e1e:	2101      	movs	r1, #1
 8001e20:	f7ff f8cc 	bl	8000fbc <RCC_APB2PeriphResetCmd>
C:\Users\Filip\Eclipse\Template\Debug/../STM32F4xx_StdPeriph_Driver/src/stm32f4xx_usart.c:213
      RCC_APB2PeriphResetCmd(RCC_APB2Periph_USART6, DISABLE);
 8001e24:	2020      	movs	r0, #32
 8001e26:	2100      	movs	r1, #0
 8001e28:	f7ff f8c8 	bl	8000fbc <RCC_APB2PeriphResetCmd>
 8001e2c:	bd08      	pop	{r3, pc}
 8001e2e:	bf00      	nop
 8001e30:	40011000 	.word	0x40011000
 8001e34:	40004400 	.word	0x40004400
 8001e38:	40004800 	.word	0x40004800
 8001e3c:	40004c00 	.word	0x40004c00
 8001e40:	40005000 	.word	0x40005000
 8001e44:	40011400 	.word	0x40011400

08001e48 <USART_Init>:
USART_Init():
C:\Users\Filip\Eclipse\Template\Debug/../STM32F4xx_StdPeriph_Driver/src/stm32f4xx_usart.c:228
  * @param  USART_InitStruct: pointer to a USART_InitTypeDef structure that contains
  *         the configuration information for the specified USART peripheral.
  * @retval None
  */
void USART_Init(USART_TypeDef* USARTx, USART_InitTypeDef* USART_InitStruct)
{
 8001e48:	b530      	push	{r4, r5, lr}
 8001e4a:	b085      	sub	sp, #20
 8001e4c:	4604      	mov	r4, r0
 8001e4e:	460d      	mov	r5, r1
C:\Users\Filip\Eclipse\Template\Debug/../STM32F4xx_StdPeriph_Driver/src/stm32f4xx_usart.c:250
  {
    assert_param(IS_USART_1236_PERIPH(USARTx));
  }

/*---------------------------- USART CR2 Configuration -----------------------*/
  tmpreg = USARTx->CR2;
 8001e50:	8a03      	ldrh	r3, [r0, #16]
 8001e52:	b29b      	uxth	r3, r3
C:\Users\Filip\Eclipse\Template\Debug/../STM32F4xx_StdPeriph_Driver/src/stm32f4xx_usart.c:253

  /* Clear STOP[13:12] bits */
  tmpreg &= (uint32_t)~((uint32_t)USART_CR2_STOP);
 8001e54:	f423 5340 	bic.w	r3, r3, #12288	; 0x3000
C:\Users\Filip\Eclipse\Template\Debug/../STM32F4xx_StdPeriph_Driver/src/stm32f4xx_usart.c:257

  /* Configure the USART Stop Bits, Clock, CPOL, CPHA and LastBit :
      Set STOP[13:12] bits according to USART_StopBits value */
  tmpreg |= (uint32_t)USART_InitStruct->USART_StopBits;
 8001e58:	88ca      	ldrh	r2, [r1, #6]
C:\Users\Filip\Eclipse\Template\Debug/../STM32F4xx_StdPeriph_Driver/src/stm32f4xx_usart.c:260
  
  /* Write to USART CR2 */
  USARTx->CR2 = (uint16_t)tmpreg;
 8001e5a:	4313      	orrs	r3, r2
 8001e5c:	8203      	strh	r3, [r0, #16]
C:\Users\Filip\Eclipse\Template\Debug/../STM32F4xx_StdPeriph_Driver/src/stm32f4xx_usart.c:263

/*---------------------------- USART CR1 Configuration -----------------------*/
  tmpreg = USARTx->CR1;
 8001e5e:	8982      	ldrh	r2, [r0, #12]
 8001e60:	b292      	uxth	r2, r2
C:\Users\Filip\Eclipse\Template\Debug/../STM32F4xx_StdPeriph_Driver/src/stm32f4xx_usart.c:266

  /* Clear M, PCE, PS, TE and RE bits */
  tmpreg &= (uint32_t)~((uint32_t)CR1_CLEAR_MASK);
 8001e62:	f422 52b0 	bic.w	r2, r2, #5632	; 0x1600
 8001e66:	f022 020c 	bic.w	r2, r2, #12
C:\Users\Filip\Eclipse\Template\Debug/../STM32F4xx_StdPeriph_Driver/src/stm32f4xx_usart.c:272

  /* Configure the USART Word Length, Parity and mode: 
     Set the M bits according to USART_WordLength value 
     Set PCE and PS bits according to USART_Parity value
     Set TE and RE bits according to USART_Mode value */
  tmpreg |= (uint32_t)USART_InitStruct->USART_WordLength | USART_InitStruct->USART_Parity |
 8001e6a:	8888      	ldrh	r0, [r1, #4]
 8001e6c:	890b      	ldrh	r3, [r1, #8]
C:\Users\Filip\Eclipse\Template\Debug/../STM32F4xx_StdPeriph_Driver/src/stm32f4xx_usart.c:273
            USART_InitStruct->USART_Mode;
 8001e6e:	8949      	ldrh	r1, [r1, #10]
C:\Users\Filip\Eclipse\Template\Debug/../STM32F4xx_StdPeriph_Driver/src/stm32f4xx_usart.c:272

  /* Configure the USART Word Length, Parity and mode: 
     Set the M bits according to USART_WordLength value 
     Set PCE and PS bits according to USART_Parity value
     Set TE and RE bits according to USART_Mode value */
  tmpreg |= (uint32_t)USART_InitStruct->USART_WordLength | USART_InitStruct->USART_Parity |
 8001e70:	4303      	orrs	r3, r0
 8001e72:	430b      	orrs	r3, r1
C:\Users\Filip\Eclipse\Template\Debug/../STM32F4xx_StdPeriph_Driver/src/stm32f4xx_usart.c:276
            USART_InitStruct->USART_Mode;

  /* Write to USART CR1 */
  USARTx->CR1 = (uint16_t)tmpreg;
 8001e74:	4313      	orrs	r3, r2
 8001e76:	81a3      	strh	r3, [r4, #12]
C:\Users\Filip\Eclipse\Template\Debug/../STM32F4xx_StdPeriph_Driver/src/stm32f4xx_usart.c:279

/*---------------------------- USART CR3 Configuration -----------------------*/  
  tmpreg = USARTx->CR3;
 8001e78:	8aa3      	ldrh	r3, [r4, #20]
 8001e7a:	b29b      	uxth	r3, r3
C:\Users\Filip\Eclipse\Template\Debug/../STM32F4xx_StdPeriph_Driver/src/stm32f4xx_usart.c:282

  /* Clear CTSE and RTSE bits */
  tmpreg &= (uint32_t)~((uint32_t)CR3_CLEAR_MASK);
 8001e7c:	f423 7340 	bic.w	r3, r3, #768	; 0x300
C:\Users\Filip\Eclipse\Template\Debug/../STM32F4xx_StdPeriph_Driver/src/stm32f4xx_usart.c:286

  /* Configure the USART HFC : 
      Set CTSE and RTSE bits according to USART_HardwareFlowControl value */
  tmpreg |= USART_InitStruct->USART_HardwareFlowControl;
 8001e80:	89aa      	ldrh	r2, [r5, #12]
C:\Users\Filip\Eclipse\Template\Debug/../STM32F4xx_StdPeriph_Driver/src/stm32f4xx_usart.c:289

  /* Write to USART CR3 */
  USARTx->CR3 = (uint16_t)tmpreg;
 8001e82:	4313      	orrs	r3, r2
 8001e84:	82a3      	strh	r3, [r4, #20]
C:\Users\Filip\Eclipse\Template\Debug/../STM32F4xx_StdPeriph_Driver/src/stm32f4xx_usart.c:293

/*---------------------------- USART BRR Configuration -----------------------*/
  /* Configure the USART Baud Rate */
  RCC_GetClocksFreq(&RCC_ClocksStatus);
 8001e86:	4668      	mov	r0, sp
 8001e88:	f7fe ff9c 	bl	8000dc4 <RCC_GetClocksFreq>
C:\Users\Filip\Eclipse\Template\Debug/../STM32F4xx_StdPeriph_Driver/src/stm32f4xx_usart.c:295

  if ((USARTx == USART1) || (USARTx == USART6))
 8001e8c:	4b1f      	ldr	r3, [pc, #124]	; (8001f0c <USART_Init+0xc4>)
 8001e8e:	429c      	cmp	r4, r3
 8001e90:	d003      	beq.n	8001e9a <USART_Init+0x52>
C:\Users\Filip\Eclipse\Template\Debug/../STM32F4xx_StdPeriph_Driver/src/stm32f4xx_usart.c:295 (discriminator 1)
 8001e92:	f503 6380 	add.w	r3, r3, #1024	; 0x400
 8001e96:	429c      	cmp	r4, r3
 8001e98:	d101      	bne.n	8001e9e <USART_Init+0x56>
C:\Users\Filip\Eclipse\Template\Debug/../STM32F4xx_StdPeriph_Driver/src/stm32f4xx_usart.c:297
  {
    apbclock = RCC_ClocksStatus.PCLK2_Frequency;
 8001e9a:	9a03      	ldr	r2, [sp, #12]
 8001e9c:	e000      	b.n	8001ea0 <USART_Init+0x58>
C:\Users\Filip\Eclipse\Template\Debug/../STM32F4xx_StdPeriph_Driver/src/stm32f4xx_usart.c:301
  }
  else
  {
    apbclock = RCC_ClocksStatus.PCLK1_Frequency;
 8001e9e:	9a02      	ldr	r2, [sp, #8]
C:\Users\Filip\Eclipse\Template\Debug/../STM32F4xx_StdPeriph_Driver/src/stm32f4xx_usart.c:305
  }
  
  /* Determine the integer part */
  if ((USARTx->CR1 & USART_CR1_OVER8) != 0)
 8001ea0:	89a3      	ldrh	r3, [r4, #12]
 8001ea2:	b21b      	sxth	r3, r3
 8001ea4:	2b00      	cmp	r3, #0
 8001ea6:	da08      	bge.n	8001eba <USART_Init+0x72>
C:\Users\Filip\Eclipse\Template\Debug/../STM32F4xx_StdPeriph_Driver/src/stm32f4xx_usart.c:308
  {
    /* Integer part computing in case Oversampling mode is 8 Samples */
    integerdivider = ((25 * apbclock) / (2 * (USART_InitStruct->USART_BaudRate)));    
 8001ea8:	eb02 0282 	add.w	r2, r2, r2, lsl #2
 8001eac:	eb02 0282 	add.w	r2, r2, r2, lsl #2
 8001eb0:	682b      	ldr	r3, [r5, #0]
 8001eb2:	005b      	lsls	r3, r3, #1
 8001eb4:	fbb2 f2f3 	udiv	r2, r2, r3
 8001eb8:	e007      	b.n	8001eca <USART_Init+0x82>
C:\Users\Filip\Eclipse\Template\Debug/../STM32F4xx_StdPeriph_Driver/src/stm32f4xx_usart.c:313
  }
  else /* if ((USARTx->CR1 & USART_CR1_OVER8) == 0) */
  {
    /* Integer part computing in case Oversampling mode is 16 Samples */
    integerdivider = ((25 * apbclock) / (4 * (USART_InitStruct->USART_BaudRate)));    
 8001eba:	eb02 0282 	add.w	r2, r2, r2, lsl #2
 8001ebe:	eb02 0282 	add.w	r2, r2, r2, lsl #2
 8001ec2:	6829      	ldr	r1, [r5, #0]
 8001ec4:	0089      	lsls	r1, r1, #2
 8001ec6:	fbb2 f2f1 	udiv	r2, r2, r1
C:\Users\Filip\Eclipse\Template\Debug/../STM32F4xx_StdPeriph_Driver/src/stm32f4xx_usart.c:315
  }
  tmpreg = (integerdivider / 100) << 4;
 8001eca:	4b11      	ldr	r3, [pc, #68]	; (8001f10 <USART_Init+0xc8>)
 8001ecc:	fba3 1302 	umull	r1, r3, r3, r2
 8001ed0:	095b      	lsrs	r3, r3, #5
C:\Users\Filip\Eclipse\Template\Debug/../STM32F4xx_StdPeriph_Driver/src/stm32f4xx_usart.c:318

  /* Determine the fractional part */
  fractionaldivider = integerdivider - (100 * (tmpreg >> 4));
 8001ed2:	0118      	lsls	r0, r3, #4
 8001ed4:	2164      	movs	r1, #100	; 0x64
 8001ed6:	fb03 2311 	mls	r3, r3, r1, r2
C:\Users\Filip\Eclipse\Template\Debug/../STM32F4xx_StdPeriph_Driver/src/stm32f4xx_usart.c:321

  /* Implement the fractional part in the register */
  if ((USARTx->CR1 & USART_CR1_OVER8) != 0)
 8001eda:	89a1      	ldrh	r1, [r4, #12]
 8001edc:	b209      	sxth	r1, r1
 8001ede:	2900      	cmp	r1, #0
 8001ee0:	da08      	bge.n	8001ef4 <USART_Init+0xac>
C:\Users\Filip\Eclipse\Template\Debug/../STM32F4xx_StdPeriph_Driver/src/stm32f4xx_usart.c:323
  {
    tmpreg |= ((((fractionaldivider * 8) + 50) / 100)) & ((uint8_t)0x07);
 8001ee2:	00db      	lsls	r3, r3, #3
 8001ee4:	3332      	adds	r3, #50	; 0x32
 8001ee6:	4d0a      	ldr	r5, [pc, #40]	; (8001f10 <USART_Init+0xc8>)
 8001ee8:	fba5 2303 	umull	r2, r3, r5, r3
 8001eec:	f3c3 1342 	ubfx	r3, r3, #5, #3
 8001ef0:	4303      	orrs	r3, r0
 8001ef2:	e007      	b.n	8001f04 <USART_Init+0xbc>
C:\Users\Filip\Eclipse\Template\Debug/../STM32F4xx_StdPeriph_Driver/src/stm32f4xx_usart.c:327
  }
  else /* if ((USARTx->CR1 & USART_CR1_OVER8) == 0) */
  {
    tmpreg |= ((((fractionaldivider * 16) + 50) / 100)) & ((uint8_t)0x0F);
 8001ef4:	011b      	lsls	r3, r3, #4
 8001ef6:	3332      	adds	r3, #50	; 0x32
 8001ef8:	4d05      	ldr	r5, [pc, #20]	; (8001f10 <USART_Init+0xc8>)
 8001efa:	fba5 1303 	umull	r1, r3, r5, r3
 8001efe:	f3c3 1343 	ubfx	r3, r3, #5, #4
 8001f02:	4303      	orrs	r3, r0
C:\Users\Filip\Eclipse\Template\Debug/../STM32F4xx_StdPeriph_Driver/src/stm32f4xx_usart.c:331
  }
  
  /* Write to USART BRR register */
  USARTx->BRR = (uint16_t)tmpreg;
 8001f04:	b29b      	uxth	r3, r3
 8001f06:	8123      	strh	r3, [r4, #8]
C:\Users\Filip\Eclipse\Template\Debug/../STM32F4xx_StdPeriph_Driver/src/stm32f4xx_usart.c:332
}
 8001f08:	b005      	add	sp, #20
 8001f0a:	bd30      	pop	{r4, r5, pc}
 8001f0c:	40011000 	.word	0x40011000
 8001f10:	51eb851f 	.word	0x51eb851f

08001f14 <USART_StructInit>:
USART_StructInit():
C:\Users\Filip\Eclipse\Template\Debug/../STM32F4xx_StdPeriph_Driver/src/stm32f4xx_usart.c:343
  * @retval None
  */
void USART_StructInit(USART_InitTypeDef* USART_InitStruct)
{
  /* USART_InitStruct members default value */
  USART_InitStruct->USART_BaudRate = 9600;
 8001f14:	f44f 5316 	mov.w	r3, #9600	; 0x2580
 8001f18:	6003      	str	r3, [r0, #0]
C:\Users\Filip\Eclipse\Template\Debug/../STM32F4xx_StdPeriph_Driver/src/stm32f4xx_usart.c:344
  USART_InitStruct->USART_WordLength = USART_WordLength_8b;
 8001f1a:	2300      	movs	r3, #0
 8001f1c:	8083      	strh	r3, [r0, #4]
C:\Users\Filip\Eclipse\Template\Debug/../STM32F4xx_StdPeriph_Driver/src/stm32f4xx_usart.c:345
  USART_InitStruct->USART_StopBits = USART_StopBits_1;
 8001f1e:	80c3      	strh	r3, [r0, #6]
C:\Users\Filip\Eclipse\Template\Debug/../STM32F4xx_StdPeriph_Driver/src/stm32f4xx_usart.c:346
  USART_InitStruct->USART_Parity = USART_Parity_No ;
 8001f20:	8103      	strh	r3, [r0, #8]
C:\Users\Filip\Eclipse\Template\Debug/../STM32F4xx_StdPeriph_Driver/src/stm32f4xx_usart.c:347
  USART_InitStruct->USART_Mode = USART_Mode_Rx | USART_Mode_Tx;
 8001f22:	220c      	movs	r2, #12
 8001f24:	8142      	strh	r2, [r0, #10]
C:\Users\Filip\Eclipse\Template\Debug/../STM32F4xx_StdPeriph_Driver/src/stm32f4xx_usart.c:348
  USART_InitStruct->USART_HardwareFlowControl = USART_HardwareFlowControl_None;  
 8001f26:	8183      	strh	r3, [r0, #12]
 8001f28:	4770      	bx	lr
 8001f2a:	bf00      	nop

08001f2c <USART_ClockInit>:
USART_ClockInit():
C:\Users\Filip\Eclipse\Template\Debug/../STM32F4xx_StdPeriph_Driver/src/stm32f4xx_usart.c:361
  *         contains the configuration information for the specified  USART peripheral.
  * @note   The Smart Card and Synchronous modes are not available for UART4 and UART5.    
  * @retval None
  */
void USART_ClockInit(USART_TypeDef* USARTx, USART_ClockInitTypeDef* USART_ClockInitStruct)
{
 8001f2c:	b430      	push	{r4, r5}
C:\Users\Filip\Eclipse\Template\Debug/../STM32F4xx_StdPeriph_Driver/src/stm32f4xx_usart.c:371
  assert_param(IS_USART_CPOL(USART_ClockInitStruct->USART_CPOL));
  assert_param(IS_USART_CPHA(USART_ClockInitStruct->USART_CPHA));
  assert_param(IS_USART_LASTBIT(USART_ClockInitStruct->USART_LastBit));
  
/*---------------------------- USART CR2 Configuration -----------------------*/
  tmpreg = USARTx->CR2;
 8001f2e:	8a02      	ldrh	r2, [r0, #16]
 8001f30:	b292      	uxth	r2, r2
C:\Users\Filip\Eclipse\Template\Debug/../STM32F4xx_StdPeriph_Driver/src/stm32f4xx_usart.c:373
  /* Clear CLKEN, CPOL, CPHA and LBCL bits */
  tmpreg &= (uint32_t)~((uint32_t)CR2_CLOCK_CLEAR_MASK);
 8001f32:	f422 6270 	bic.w	r2, r2, #3840	; 0xf00
C:\Users\Filip\Eclipse\Template\Debug/../STM32F4xx_StdPeriph_Driver/src/stm32f4xx_usart.c:379
  /* Configure the USART Clock, CPOL, CPHA and LastBit ------------*/
  /* Set CLKEN bit according to USART_Clock value */
  /* Set CPOL bit according to USART_CPOL value */
  /* Set CPHA bit according to USART_CPHA value */
  /* Set LBCL bit according to USART_LastBit value */
  tmpreg |= (uint32_t)USART_ClockInitStruct->USART_Clock | USART_ClockInitStruct->USART_CPOL | 
 8001f36:	880d      	ldrh	r5, [r1, #0]
 8001f38:	884b      	ldrh	r3, [r1, #2]
C:\Users\Filip\Eclipse\Template\Debug/../STM32F4xx_StdPeriph_Driver/src/stm32f4xx_usart.c:380
                 USART_ClockInitStruct->USART_CPHA | USART_ClockInitStruct->USART_LastBit;
 8001f3a:	888c      	ldrh	r4, [r1, #4]
 8001f3c:	88c9      	ldrh	r1, [r1, #6]
 8001f3e:	432b      	orrs	r3, r5
 8001f40:	4323      	orrs	r3, r4
 8001f42:	430b      	orrs	r3, r1
C:\Users\Filip\Eclipse\Template\Debug/../STM32F4xx_StdPeriph_Driver/src/stm32f4xx_usart.c:382
  /* Write to USART CR2 */
  USARTx->CR2 = (uint16_t)tmpreg;
 8001f44:	4313      	orrs	r3, r2
 8001f46:	8203      	strh	r3, [r0, #16]
C:\Users\Filip\Eclipse\Template\Debug/../STM32F4xx_StdPeriph_Driver/src/stm32f4xx_usart.c:383
}
 8001f48:	bc30      	pop	{r4, r5}
 8001f4a:	4770      	bx	lr

08001f4c <USART_ClockStructInit>:
USART_ClockStructInit():
C:\Users\Filip\Eclipse\Template\Debug/../STM32F4xx_StdPeriph_Driver/src/stm32f4xx_usart.c:394
  * @retval None
  */
void USART_ClockStructInit(USART_ClockInitTypeDef* USART_ClockInitStruct)
{
  /* USART_ClockInitStruct members default value */
  USART_ClockInitStruct->USART_Clock = USART_Clock_Disable;
 8001f4c:	2300      	movs	r3, #0
 8001f4e:	8003      	strh	r3, [r0, #0]
C:\Users\Filip\Eclipse\Template\Debug/../STM32F4xx_StdPeriph_Driver/src/stm32f4xx_usart.c:395
  USART_ClockInitStruct->USART_CPOL = USART_CPOL_Low;
 8001f50:	8043      	strh	r3, [r0, #2]
C:\Users\Filip\Eclipse\Template\Debug/../STM32F4xx_StdPeriph_Driver/src/stm32f4xx_usart.c:396
  USART_ClockInitStruct->USART_CPHA = USART_CPHA_1Edge;
 8001f52:	8083      	strh	r3, [r0, #4]
C:\Users\Filip\Eclipse\Template\Debug/../STM32F4xx_StdPeriph_Driver/src/stm32f4xx_usart.c:397
  USART_ClockInitStruct->USART_LastBit = USART_LastBit_Disable;
 8001f54:	80c3      	strh	r3, [r0, #6]
 8001f56:	4770      	bx	lr

08001f58 <USART_Cmd>:
USART_Cmd():
C:\Users\Filip\Eclipse\Template\Debug/../STM32F4xx_StdPeriph_Driver/src/stm32f4xx_usart.c:414
{
  /* Check the parameters */
  assert_param(IS_USART_ALL_PERIPH(USARTx));
  assert_param(IS_FUNCTIONAL_STATE(NewState));
  
  if (NewState != DISABLE)
 8001f58:	b129      	cbz	r1, 8001f66 <USART_Cmd+0xe>
C:\Users\Filip\Eclipse\Template\Debug/../STM32F4xx_StdPeriph_Driver/src/stm32f4xx_usart.c:417
  {
    /* Enable the selected USART by setting the UE bit in the CR1 register */
    USARTx->CR1 |= USART_CR1_UE;
 8001f5a:	8983      	ldrh	r3, [r0, #12]
 8001f5c:	b29b      	uxth	r3, r3
 8001f5e:	f443 5300 	orr.w	r3, r3, #8192	; 0x2000
 8001f62:	8183      	strh	r3, [r0, #12]
 8001f64:	4770      	bx	lr
C:\Users\Filip\Eclipse\Template\Debug/../STM32F4xx_StdPeriph_Driver/src/stm32f4xx_usart.c:422
  }
  else
  {
    /* Disable the selected USART by clearing the UE bit in the CR1 register */
    USARTx->CR1 &= (uint16_t)~((uint16_t)USART_CR1_UE);
 8001f66:	8983      	ldrh	r3, [r0, #12]
 8001f68:	f423 5300 	bic.w	r3, r3, #8192	; 0x2000
 8001f6c:	041b      	lsls	r3, r3, #16
 8001f6e:	0c1b      	lsrs	r3, r3, #16
 8001f70:	8183      	strh	r3, [r0, #12]
 8001f72:	4770      	bx	lr

08001f74 <USART_SetPrescaler>:
USART_SetPrescaler():
C:\Users\Filip\Eclipse\Template\Debug/../STM32F4xx_StdPeriph_Driver/src/stm32f4xx_usart.c:440
{ 
  /* Check the parameters */
  assert_param(IS_USART_ALL_PERIPH(USARTx));
  
  /* Clear the USART prescaler */
  USARTx->GTPR &= USART_GTPR_GT;
 8001f74:	8b03      	ldrh	r3, [r0, #24]
 8001f76:	f403 437f 	and.w	r3, r3, #65280	; 0xff00
 8001f7a:	8303      	strh	r3, [r0, #24]
C:\Users\Filip\Eclipse\Template\Debug/../STM32F4xx_StdPeriph_Driver/src/stm32f4xx_usart.c:442
  /* Set the USART prescaler */
  USARTx->GTPR |= USART_Prescaler;
 8001f7c:	8b03      	ldrh	r3, [r0, #24]
 8001f7e:	b29b      	uxth	r3, r3
 8001f80:	4319      	orrs	r1, r3
 8001f82:	8301      	strh	r1, [r0, #24]
 8001f84:	4770      	bx	lr
 8001f86:	bf00      	nop

08001f88 <USART_OverSampling8Cmd>:
USART_OverSampling8Cmd():
C:\Users\Filip\Eclipse\Template\Debug/../STM32F4xx_StdPeriph_Driver/src/stm32f4xx_usart.c:461
{
  /* Check the parameters */
  assert_param(IS_USART_ALL_PERIPH(USARTx));
  assert_param(IS_FUNCTIONAL_STATE(NewState));
  
  if (NewState != DISABLE)
 8001f88:	b139      	cbz	r1, 8001f9a <USART_OverSampling8Cmd+0x12>
C:\Users\Filip\Eclipse\Template\Debug/../STM32F4xx_StdPeriph_Driver/src/stm32f4xx_usart.c:464
  {
    /* Enable the 8x Oversampling mode by setting the OVER8 bit in the CR1 register */
    USARTx->CR1 |= USART_CR1_OVER8;
 8001f8a:	8983      	ldrh	r3, [r0, #12]
 8001f8c:	ea6f 4343 	mvn.w	r3, r3, lsl #17
 8001f90:	ea6f 4353 	mvn.w	r3, r3, lsr #17
 8001f94:	b29b      	uxth	r3, r3
 8001f96:	8183      	strh	r3, [r0, #12]
 8001f98:	4770      	bx	lr
C:\Users\Filip\Eclipse\Template\Debug/../STM32F4xx_StdPeriph_Driver/src/stm32f4xx_usart.c:469
  }
  else
  {
    /* Disable the 8x Oversampling mode by clearing the OVER8 bit in the CR1 register */
    USARTx->CR1 &= (uint16_t)~((uint16_t)USART_CR1_OVER8);
 8001f9a:	8983      	ldrh	r3, [r0, #12]
 8001f9c:	f3c3 030e 	ubfx	r3, r3, #0, #15
 8001fa0:	8183      	strh	r3, [r0, #12]
 8001fa2:	4770      	bx	lr

08001fa4 <USART_OneBitMethodCmd>:
USART_OneBitMethodCmd():
C:\Users\Filip\Eclipse\Template\Debug/../STM32F4xx_StdPeriph_Driver/src/stm32f4xx_usart.c:487
{
  /* Check the parameters */
  assert_param(IS_USART_ALL_PERIPH(USARTx));
  assert_param(IS_FUNCTIONAL_STATE(NewState));
  
  if (NewState != DISABLE)
 8001fa4:	b129      	cbz	r1, 8001fb2 <USART_OneBitMethodCmd+0xe>
C:\Users\Filip\Eclipse\Template\Debug/../STM32F4xx_StdPeriph_Driver/src/stm32f4xx_usart.c:490
  {
    /* Enable the one bit method by setting the ONEBITE bit in the CR3 register */
    USARTx->CR3 |= USART_CR3_ONEBIT;
 8001fa6:	8a83      	ldrh	r3, [r0, #20]
 8001fa8:	b29b      	uxth	r3, r3
 8001faa:	f443 6300 	orr.w	r3, r3, #2048	; 0x800
 8001fae:	8283      	strh	r3, [r0, #20]
 8001fb0:	4770      	bx	lr
C:\Users\Filip\Eclipse\Template\Debug/../STM32F4xx_StdPeriph_Driver/src/stm32f4xx_usart.c:495
  }
  else
  {
    /* Disable the one bit method by clearing the ONEBITE bit in the CR3 register */
    USARTx->CR3 &= (uint16_t)~((uint16_t)USART_CR3_ONEBIT);
 8001fb2:	8a83      	ldrh	r3, [r0, #20]
 8001fb4:	f423 6300 	bic.w	r3, r3, #2048	; 0x800
 8001fb8:	041b      	lsls	r3, r3, #16
 8001fba:	0c1b      	lsrs	r3, r3, #16
 8001fbc:	8283      	strh	r3, [r0, #20]
 8001fbe:	4770      	bx	lr

08001fc0 <USART_SendData>:
USART_SendData():
C:\Users\Filip\Eclipse\Template\Debug/../STM32F4xx_StdPeriph_Driver/src/stm32f4xx_usart.c:545
  /* Check the parameters */
  assert_param(IS_USART_ALL_PERIPH(USARTx));
  assert_param(IS_USART_DATA(Data)); 
    
  /* Transmit Data */
  USARTx->DR = (Data & (uint16_t)0x01FF);
 8001fc0:	f3c1 0108 	ubfx	r1, r1, #0, #9
 8001fc4:	8081      	strh	r1, [r0, #4]
 8001fc6:	4770      	bx	lr

08001fc8 <USART_ReceiveData>:
USART_ReceiveData():
C:\Users\Filip\Eclipse\Template\Debug/../STM32F4xx_StdPeriph_Driver/src/stm32f4xx_usart.c:560
{
  /* Check the parameters */
  assert_param(IS_USART_ALL_PERIPH(USARTx));
  
  /* Receive Data */
  return (uint16_t)(USARTx->DR & (uint16_t)0x01FF);
 8001fc8:	8880      	ldrh	r0, [r0, #4]
C:\Users\Filip\Eclipse\Template\Debug/../STM32F4xx_StdPeriph_Driver/src/stm32f4xx_usart.c:561
}
 8001fca:	f3c0 0008 	ubfx	r0, r0, #0, #9
 8001fce:	4770      	bx	lr

08001fd0 <USART_SetAddress>:
USART_SetAddress():
C:\Users\Filip\Eclipse\Template\Debug/../STM32F4xx_StdPeriph_Driver/src/stm32f4xx_usart.c:612
  /* Check the parameters */
  assert_param(IS_USART_ALL_PERIPH(USARTx));
  assert_param(IS_USART_ADDRESS(USART_Address)); 
    
  /* Clear the USART address */
  USARTx->CR2 &= (uint16_t)~((uint16_t)USART_CR2_ADD);
 8001fd0:	8a03      	ldrh	r3, [r0, #16]
 8001fd2:	f023 030f 	bic.w	r3, r3, #15
 8001fd6:	041b      	lsls	r3, r3, #16
 8001fd8:	0c1b      	lsrs	r3, r3, #16
 8001fda:	8203      	strh	r3, [r0, #16]
C:\Users\Filip\Eclipse\Template\Debug/../STM32F4xx_StdPeriph_Driver/src/stm32f4xx_usart.c:614
  /* Set the USART address node */
  USARTx->CR2 |= USART_Address;
 8001fdc:	8a03      	ldrh	r3, [r0, #16]
 8001fde:	b29b      	uxth	r3, r3
 8001fe0:	4319      	orrs	r1, r3
 8001fe2:	8201      	strh	r1, [r0, #16]
 8001fe4:	4770      	bx	lr
 8001fe6:	bf00      	nop

08001fe8 <USART_ReceiverWakeUpCmd>:
USART_ReceiverWakeUpCmd():
C:\Users\Filip\Eclipse\Template\Debug/../STM32F4xx_StdPeriph_Driver/src/stm32f4xx_usart.c:631
{
  /* Check the parameters */
  assert_param(IS_USART_ALL_PERIPH(USARTx));
  assert_param(IS_FUNCTIONAL_STATE(NewState)); 
  
  if (NewState != DISABLE)
 8001fe8:	b129      	cbz	r1, 8001ff6 <USART_ReceiverWakeUpCmd+0xe>
C:\Users\Filip\Eclipse\Template\Debug/../STM32F4xx_StdPeriph_Driver/src/stm32f4xx_usart.c:634
  {
    /* Enable the USART mute mode  by setting the RWU bit in the CR1 register */
    USARTx->CR1 |= USART_CR1_RWU;
 8001fea:	8983      	ldrh	r3, [r0, #12]
 8001fec:	b29b      	uxth	r3, r3
 8001fee:	f043 0302 	orr.w	r3, r3, #2
 8001ff2:	8183      	strh	r3, [r0, #12]
 8001ff4:	4770      	bx	lr
C:\Users\Filip\Eclipse\Template\Debug/../STM32F4xx_StdPeriph_Driver/src/stm32f4xx_usart.c:639
  }
  else
  {
    /* Disable the USART mute mode by clearing the RWU bit in the CR1 register */
    USARTx->CR1 &= (uint16_t)~((uint16_t)USART_CR1_RWU);
 8001ff6:	8983      	ldrh	r3, [r0, #12]
 8001ff8:	f023 0302 	bic.w	r3, r3, #2
 8001ffc:	041b      	lsls	r3, r3, #16
 8001ffe:	0c1b      	lsrs	r3, r3, #16
 8002000:	8183      	strh	r3, [r0, #12]
 8002002:	4770      	bx	lr

08002004 <USART_WakeUpConfig>:
USART_WakeUpConfig():
C:\Users\Filip\Eclipse\Template\Debug/../STM32F4xx_StdPeriph_Driver/src/stm32f4xx_usart.c:658
{
  /* Check the parameters */
  assert_param(IS_USART_ALL_PERIPH(USARTx));
  assert_param(IS_USART_WAKEUP(USART_WakeUp));
  
  USARTx->CR1 &= (uint16_t)~((uint16_t)USART_CR1_WAKE);
 8002004:	8983      	ldrh	r3, [r0, #12]
 8002006:	f423 6300 	bic.w	r3, r3, #2048	; 0x800
 800200a:	041b      	lsls	r3, r3, #16
 800200c:	0c1b      	lsrs	r3, r3, #16
 800200e:	8183      	strh	r3, [r0, #12]
C:\Users\Filip\Eclipse\Template\Debug/../STM32F4xx_StdPeriph_Driver/src/stm32f4xx_usart.c:659
  USARTx->CR1 |= USART_WakeUp;
 8002010:	8983      	ldrh	r3, [r0, #12]
 8002012:	b29b      	uxth	r3, r3
 8002014:	4319      	orrs	r1, r3
 8002016:	8181      	strh	r1, [r0, #12]
 8002018:	4770      	bx	lr
 800201a:	bf00      	nop

0800201c <USART_LINBreakDetectLengthConfig>:
USART_LINBreakDetectLengthConfig():
C:\Users\Filip\Eclipse\Template\Debug/../STM32F4xx_StdPeriph_Driver/src/stm32f4xx_usart.c:727
{
  /* Check the parameters */
  assert_param(IS_USART_ALL_PERIPH(USARTx));
  assert_param(IS_USART_LIN_BREAK_DETECT_LENGTH(USART_LINBreakDetectLength));
  
  USARTx->CR2 &= (uint16_t)~((uint16_t)USART_CR2_LBDL);
 800201c:	8a03      	ldrh	r3, [r0, #16]
 800201e:	f023 0320 	bic.w	r3, r3, #32
 8002022:	041b      	lsls	r3, r3, #16
 8002024:	0c1b      	lsrs	r3, r3, #16
 8002026:	8203      	strh	r3, [r0, #16]
C:\Users\Filip\Eclipse\Template\Debug/../STM32F4xx_StdPeriph_Driver/src/stm32f4xx_usart.c:728
  USARTx->CR2 |= USART_LINBreakDetectLength;  
 8002028:	8a03      	ldrh	r3, [r0, #16]
 800202a:	b29b      	uxth	r3, r3
 800202c:	4319      	orrs	r1, r3
 800202e:	8201      	strh	r1, [r0, #16]
 8002030:	4770      	bx	lr
 8002032:	bf00      	nop

08002034 <USART_LINCmd>:
USART_LINCmd():
C:\Users\Filip\Eclipse\Template\Debug/../STM32F4xx_StdPeriph_Driver/src/stm32f4xx_usart.c:745
{
  /* Check the parameters */
  assert_param(IS_USART_ALL_PERIPH(USARTx));
  assert_param(IS_FUNCTIONAL_STATE(NewState));
  
  if (NewState != DISABLE)
 8002034:	b129      	cbz	r1, 8002042 <USART_LINCmd+0xe>
C:\Users\Filip\Eclipse\Template\Debug/../STM32F4xx_StdPeriph_Driver/src/stm32f4xx_usart.c:748
  {
    /* Enable the LIN mode by setting the LINEN bit in the CR2 register */
    USARTx->CR2 |= USART_CR2_LINEN;
 8002036:	8a03      	ldrh	r3, [r0, #16]
 8002038:	b29b      	uxth	r3, r3
 800203a:	f443 4380 	orr.w	r3, r3, #16384	; 0x4000
 800203e:	8203      	strh	r3, [r0, #16]
 8002040:	4770      	bx	lr
C:\Users\Filip\Eclipse\Template\Debug/../STM32F4xx_StdPeriph_Driver/src/stm32f4xx_usart.c:753
  }
  else
  {
    /* Disable the LIN mode by clearing the LINEN bit in the CR2 register */
    USARTx->CR2 &= (uint16_t)~((uint16_t)USART_CR2_LINEN);
 8002042:	8a03      	ldrh	r3, [r0, #16]
 8002044:	f423 4380 	bic.w	r3, r3, #16384	; 0x4000
 8002048:	041b      	lsls	r3, r3, #16
 800204a:	0c1b      	lsrs	r3, r3, #16
 800204c:	8203      	strh	r3, [r0, #16]
 800204e:	4770      	bx	lr

08002050 <USART_SendBreak>:
USART_SendBreak():
C:\Users\Filip\Eclipse\Template\Debug/../STM32F4xx_StdPeriph_Driver/src/stm32f4xx_usart.c:769
{
  /* Check the parameters */
  assert_param(IS_USART_ALL_PERIPH(USARTx));
  
  /* Send break characters */
  USARTx->CR1 |= USART_CR1_SBK;
 8002050:	8983      	ldrh	r3, [r0, #12]
 8002052:	b29b      	uxth	r3, r3
 8002054:	f043 0301 	orr.w	r3, r3, #1
 8002058:	8183      	strh	r3, [r0, #12]
 800205a:	4770      	bx	lr

0800205c <USART_HalfDuplexCmd>:
USART_HalfDuplexCmd():
C:\Users\Filip\Eclipse\Template\Debug/../STM32F4xx_StdPeriph_Driver/src/stm32f4xx_usart.c:822
{
  /* Check the parameters */
  assert_param(IS_USART_ALL_PERIPH(USARTx));
  assert_param(IS_FUNCTIONAL_STATE(NewState));
  
  if (NewState != DISABLE)
 800205c:	b129      	cbz	r1, 800206a <USART_HalfDuplexCmd+0xe>
C:\Users\Filip\Eclipse\Template\Debug/../STM32F4xx_StdPeriph_Driver/src/stm32f4xx_usart.c:825
  {
    /* Enable the Half-Duplex mode by setting the HDSEL bit in the CR3 register */
    USARTx->CR3 |= USART_CR3_HDSEL;
 800205e:	8a83      	ldrh	r3, [r0, #20]
 8002060:	b29b      	uxth	r3, r3
 8002062:	f043 0308 	orr.w	r3, r3, #8
 8002066:	8283      	strh	r3, [r0, #20]
 8002068:	4770      	bx	lr
C:\Users\Filip\Eclipse\Template\Debug/../STM32F4xx_StdPeriph_Driver/src/stm32f4xx_usart.c:830
  }
  else
  {
    /* Disable the Half-Duplex mode by clearing the HDSEL bit in the CR3 register */
    USARTx->CR3 &= (uint16_t)~((uint16_t)USART_CR3_HDSEL);
 800206a:	8a83      	ldrh	r3, [r0, #20]
 800206c:	f023 0308 	bic.w	r3, r3, #8
 8002070:	041b      	lsls	r3, r3, #16
 8002072:	0c1b      	lsrs	r3, r3, #16
 8002074:	8283      	strh	r3, [r0, #20]
 8002076:	4770      	bx	lr

08002078 <USART_SetGuardTime>:
USART_SetGuardTime():
C:\Users\Filip\Eclipse\Template\Debug/../STM32F4xx_StdPeriph_Driver/src/stm32f4xx_usart.c:907
{    
  /* Check the parameters */
  assert_param(IS_USART_1236_PERIPH(USARTx));
  
  /* Clear the USART Guard time */
  USARTx->GTPR &= USART_GTPR_PSC;
 8002078:	8b03      	ldrh	r3, [r0, #24]
 800207a:	b2db      	uxtb	r3, r3
 800207c:	8303      	strh	r3, [r0, #24]
C:\Users\Filip\Eclipse\Template\Debug/../STM32F4xx_StdPeriph_Driver/src/stm32f4xx_usart.c:909
  /* Set the USART guard time */
  USARTx->GTPR |= (uint16_t)((uint16_t)USART_GuardTime << 0x08);
 800207e:	8b03      	ldrh	r3, [r0, #24]
 8002080:	b29b      	uxth	r3, r3
 8002082:	ea43 2101 	orr.w	r1, r3, r1, lsl #8
 8002086:	8301      	strh	r1, [r0, #24]
 8002088:	4770      	bx	lr
 800208a:	bf00      	nop

0800208c <USART_SmartCardCmd>:
USART_SmartCardCmd():
C:\Users\Filip\Eclipse\Template\Debug/../STM32F4xx_StdPeriph_Driver/src/stm32f4xx_usart.c:925
void USART_SmartCardCmd(USART_TypeDef* USARTx, FunctionalState NewState)
{
  /* Check the parameters */
  assert_param(IS_USART_1236_PERIPH(USARTx));
  assert_param(IS_FUNCTIONAL_STATE(NewState));
  if (NewState != DISABLE)
 800208c:	b129      	cbz	r1, 800209a <USART_SmartCardCmd+0xe>
C:\Users\Filip\Eclipse\Template\Debug/../STM32F4xx_StdPeriph_Driver/src/stm32f4xx_usart.c:928
  {
    /* Enable the SC mode by setting the SCEN bit in the CR3 register */
    USARTx->CR3 |= USART_CR3_SCEN;
 800208e:	8a83      	ldrh	r3, [r0, #20]
 8002090:	b29b      	uxth	r3, r3
 8002092:	f043 0320 	orr.w	r3, r3, #32
 8002096:	8283      	strh	r3, [r0, #20]
 8002098:	4770      	bx	lr
C:\Users\Filip\Eclipse\Template\Debug/../STM32F4xx_StdPeriph_Driver/src/stm32f4xx_usart.c:933
  }
  else
  {
    /* Disable the SC mode by clearing the SCEN bit in the CR3 register */
    USARTx->CR3 &= (uint16_t)~((uint16_t)USART_CR3_SCEN);
 800209a:	8a83      	ldrh	r3, [r0, #20]
 800209c:	f023 0320 	bic.w	r3, r3, #32
 80020a0:	041b      	lsls	r3, r3, #16
 80020a2:	0c1b      	lsrs	r3, r3, #16
 80020a4:	8283      	strh	r3, [r0, #20]
 80020a6:	4770      	bx	lr

080020a8 <USART_SmartCardNACKCmd>:
USART_SmartCardNACKCmd():
C:\Users\Filip\Eclipse\Template\Debug/../STM32F4xx_StdPeriph_Driver/src/stm32f4xx_usart.c:950
void USART_SmartCardNACKCmd(USART_TypeDef* USARTx, FunctionalState NewState)
{
  /* Check the parameters */
  assert_param(IS_USART_1236_PERIPH(USARTx)); 
  assert_param(IS_FUNCTIONAL_STATE(NewState));
  if (NewState != DISABLE)
 80020a8:	b129      	cbz	r1, 80020b6 <USART_SmartCardNACKCmd+0xe>
C:\Users\Filip\Eclipse\Template\Debug/../STM32F4xx_StdPeriph_Driver/src/stm32f4xx_usart.c:953
  {
    /* Enable the NACK transmission by setting the NACK bit in the CR3 register */
    USARTx->CR3 |= USART_CR3_NACK;
 80020aa:	8a83      	ldrh	r3, [r0, #20]
 80020ac:	b29b      	uxth	r3, r3
 80020ae:	f043 0310 	orr.w	r3, r3, #16
 80020b2:	8283      	strh	r3, [r0, #20]
 80020b4:	4770      	bx	lr
C:\Users\Filip\Eclipse\Template\Debug/../STM32F4xx_StdPeriph_Driver/src/stm32f4xx_usart.c:958
  }
  else
  {
    /* Disable the NACK transmission by clearing the NACK bit in the CR3 register */
    USARTx->CR3 &= (uint16_t)~((uint16_t)USART_CR3_NACK);
 80020b6:	8a83      	ldrh	r3, [r0, #20]
 80020b8:	f023 0310 	bic.w	r3, r3, #16
 80020bc:	041b      	lsls	r3, r3, #16
 80020be:	0c1b      	lsrs	r3, r3, #16
 80020c0:	8283      	strh	r3, [r0, #20]
 80020c2:	4770      	bx	lr

080020c4 <USART_IrDAConfig>:
USART_IrDAConfig():
C:\Users\Filip\Eclipse\Template\Debug/../STM32F4xx_StdPeriph_Driver/src/stm32f4xx_usart.c:1022
{
  /* Check the parameters */
  assert_param(IS_USART_ALL_PERIPH(USARTx));
  assert_param(IS_USART_IRDA_MODE(USART_IrDAMode));
    
  USARTx->CR3 &= (uint16_t)~((uint16_t)USART_CR3_IRLP);
 80020c4:	8a83      	ldrh	r3, [r0, #20]
 80020c6:	f023 0304 	bic.w	r3, r3, #4
 80020ca:	041b      	lsls	r3, r3, #16
 80020cc:	0c1b      	lsrs	r3, r3, #16
 80020ce:	8283      	strh	r3, [r0, #20]
C:\Users\Filip\Eclipse\Template\Debug/../STM32F4xx_StdPeriph_Driver/src/stm32f4xx_usart.c:1023
  USARTx->CR3 |= USART_IrDAMode;
 80020d0:	8a83      	ldrh	r3, [r0, #20]
 80020d2:	b29b      	uxth	r3, r3
 80020d4:	4319      	orrs	r1, r3
 80020d6:	8281      	strh	r1, [r0, #20]
 80020d8:	4770      	bx	lr
 80020da:	bf00      	nop

080020dc <USART_IrDACmd>:
USART_IrDACmd():
C:\Users\Filip\Eclipse\Template\Debug/../STM32F4xx_StdPeriph_Driver/src/stm32f4xx_usart.c:1040
{
  /* Check the parameters */
  assert_param(IS_USART_ALL_PERIPH(USARTx));
  assert_param(IS_FUNCTIONAL_STATE(NewState));
    
  if (NewState != DISABLE)
 80020dc:	b129      	cbz	r1, 80020ea <USART_IrDACmd+0xe>
C:\Users\Filip\Eclipse\Template\Debug/../STM32F4xx_StdPeriph_Driver/src/stm32f4xx_usart.c:1043
  {
    /* Enable the IrDA mode by setting the IREN bit in the CR3 register */
    USARTx->CR3 |= USART_CR3_IREN;
 80020de:	8a83      	ldrh	r3, [r0, #20]
 80020e0:	b29b      	uxth	r3, r3
 80020e2:	f043 0302 	orr.w	r3, r3, #2
 80020e6:	8283      	strh	r3, [r0, #20]
 80020e8:	4770      	bx	lr
C:\Users\Filip\Eclipse\Template\Debug/../STM32F4xx_StdPeriph_Driver/src/stm32f4xx_usart.c:1048
  }
  else
  {
    /* Disable the IrDA mode by clearing the IREN bit in the CR3 register */
    USARTx->CR3 &= (uint16_t)~((uint16_t)USART_CR3_IREN);
 80020ea:	8a83      	ldrh	r3, [r0, #20]
 80020ec:	f023 0302 	bic.w	r3, r3, #2
 80020f0:	041b      	lsls	r3, r3, #16
 80020f2:	0c1b      	lsrs	r3, r3, #16
 80020f4:	8283      	strh	r3, [r0, #20]
 80020f6:	4770      	bx	lr

080020f8 <USART_DMACmd>:
USART_DMACmd():
C:\Users\Filip\Eclipse\Template\Debug/../STM32F4xx_StdPeriph_Driver/src/stm32f4xx_usart.c:1087
  /* Check the parameters */
  assert_param(IS_USART_ALL_PERIPH(USARTx));
  assert_param(IS_USART_DMAREQ(USART_DMAReq));  
  assert_param(IS_FUNCTIONAL_STATE(NewState)); 

  if (NewState != DISABLE)
 80020f8:	b122      	cbz	r2, 8002104 <USART_DMACmd+0xc>
C:\Users\Filip\Eclipse\Template\Debug/../STM32F4xx_StdPeriph_Driver/src/stm32f4xx_usart.c:1091
  {
    /* Enable the DMA transfer for selected requests by setting the DMAT and/or
       DMAR bits in the USART CR3 register */
    USARTx->CR3 |= USART_DMAReq;
 80020fa:	8a83      	ldrh	r3, [r0, #20]
 80020fc:	b29b      	uxth	r3, r3
 80020fe:	4319      	orrs	r1, r3
 8002100:	8281      	strh	r1, [r0, #20]
 8002102:	4770      	bx	lr
C:\Users\Filip\Eclipse\Template\Debug/../STM32F4xx_StdPeriph_Driver/src/stm32f4xx_usart.c:1097
  }
  else
  {
    /* Disable the DMA transfer for selected requests by clearing the DMAT and/or
       DMAR bits in the USART CR3 register */
    USARTx->CR3 &= (uint16_t)~USART_DMAReq;
 8002104:	8a83      	ldrh	r3, [r0, #20]
 8002106:	43c9      	mvns	r1, r1
 8002108:	b289      	uxth	r1, r1
 800210a:	4019      	ands	r1, r3
 800210c:	8281      	strh	r1, [r0, #20]
 800210e:	4770      	bx	lr

08002110 <USART_ITConfig>:
USART_ITConfig():
C:\Users\Filip\Eclipse\Template\Debug/../STM32F4xx_StdPeriph_Driver/src/stm32f4xx_usart.c:1209
  * @param  NewState: new state of the specified USARTx interrupts.
  *          This parameter can be: ENABLE or DISABLE.
  * @retval None
  */
void USART_ITConfig(USART_TypeDef* USARTx, uint16_t USART_IT, FunctionalState NewState)
{
 8002110:	b410      	push	{r4}
C:\Users\Filip\Eclipse\Template\Debug/../STM32F4xx_StdPeriph_Driver/src/stm32f4xx_usart.c:1226
  } 
    
  usartxbase = (uint32_t)USARTx;

  /* Get the USART register index */
  usartreg = (((uint8_t)USART_IT) >> 0x05);
 8002112:	f3c1 1342 	ubfx	r3, r1, #5, #3
C:\Users\Filip\Eclipse\Template\Debug/../STM32F4xx_StdPeriph_Driver/src/stm32f4xx_usart.c:1229

  /* Get the interrupt position */
  itpos = USART_IT & IT_MASK;
 8002116:	f001 011f 	and.w	r1, r1, #31
C:\Users\Filip\Eclipse\Template\Debug/../STM32F4xx_StdPeriph_Driver/src/stm32f4xx_usart.c:1230
  itmask = (((uint32_t)0x01) << itpos);
 800211a:	2401      	movs	r4, #1
 800211c:	fa04 f101 	lsl.w	r1, r4, r1
C:\Users\Filip\Eclipse\Template\Debug/../STM32F4xx_StdPeriph_Driver/src/stm32f4xx_usart.c:1232
    
  if (usartreg == 0x01) /* The IT is in CR1 register */
 8002120:	42a3      	cmp	r3, r4
 8002122:	d101      	bne.n	8002128 <USART_ITConfig+0x18>
C:\Users\Filip\Eclipse\Template\Debug/../STM32F4xx_StdPeriph_Driver/src/stm32f4xx_usart.c:1234
  {
    usartxbase += 0x0C;
 8002124:	300c      	adds	r0, #12
 8002126:	e003      	b.n	8002130 <USART_ITConfig+0x20>
C:\Users\Filip\Eclipse\Template\Debug/../STM32F4xx_StdPeriph_Driver/src/stm32f4xx_usart.c:1236
  }
  else if (usartreg == 0x02) /* The IT is in CR2 register */
 8002128:	2b02      	cmp	r3, #2
C:\Users\Filip\Eclipse\Template\Debug/../STM32F4xx_StdPeriph_Driver/src/stm32f4xx_usart.c:1238
  {
    usartxbase += 0x10;
 800212a:	bf0c      	ite	eq
 800212c:	3010      	addeq	r0, #16
C:\Users\Filip\Eclipse\Template\Debug/../STM32F4xx_StdPeriph_Driver/src/stm32f4xx_usart.c:1242
  }
  else /* The IT is in CR3 register */
  {
    usartxbase += 0x14; 
 800212e:	3014      	addne	r0, #20
C:\Users\Filip\Eclipse\Template\Debug/../STM32F4xx_StdPeriph_Driver/src/stm32f4xx_usart.c:1244
  }
  if (NewState != DISABLE)
 8002130:	b11a      	cbz	r2, 800213a <USART_ITConfig+0x2a>
C:\Users\Filip\Eclipse\Template\Debug/../STM32F4xx_StdPeriph_Driver/src/stm32f4xx_usart.c:1246
  {
    *(__IO uint32_t*)usartxbase  |= itmask;
 8002132:	6803      	ldr	r3, [r0, #0]
 8002134:	4319      	orrs	r1, r3
 8002136:	6001      	str	r1, [r0, #0]
 8002138:	e003      	b.n	8002142 <USART_ITConfig+0x32>
C:\Users\Filip\Eclipse\Template\Debug/../STM32F4xx_StdPeriph_Driver/src/stm32f4xx_usart.c:1250
  }
  else
  {
    *(__IO uint32_t*)usartxbase &= ~itmask;
 800213a:	6803      	ldr	r3, [r0, #0]
 800213c:	ea23 0101 	bic.w	r1, r3, r1
 8002140:	6001      	str	r1, [r0, #0]
C:\Users\Filip\Eclipse\Template\Debug/../STM32F4xx_StdPeriph_Driver/src/stm32f4xx_usart.c:1252
  }
}
 8002142:	f85d 4b04 	ldr.w	r4, [sp], #4
 8002146:	4770      	bx	lr

08002148 <USART_GetFlagStatus>:
USART_GetFlagStatus():
C:\Users\Filip\Eclipse\Template\Debug/../STM32F4xx_StdPeriph_Driver/src/stm32f4xx_usart.c:1285
  if (USART_FLAG == USART_FLAG_CTS)
  {
    assert_param(IS_USART_1236_PERIPH(USARTx));
  } 
    
  if ((USARTx->SR & USART_FLAG) != (uint16_t)RESET)
 8002148:	8800      	ldrh	r0, [r0, #0]
 800214a:	4008      	ands	r0, r1
C:\Users\Filip\Eclipse\Template\Debug/../STM32F4xx_StdPeriph_Driver/src/stm32f4xx_usart.c:1294
  else
  {
    bitstatus = RESET;
  }
  return bitstatus;
}
 800214c:	3000      	adds	r0, #0
 800214e:	bf18      	it	ne
 8002150:	2001      	movne	r0, #1
 8002152:	4770      	bx	lr

08002154 <USART_ClearFlag>:
USART_ClearFlag():
C:\Users\Filip\Eclipse\Template\Debug/../STM32F4xx_StdPeriph_Driver/src/stm32f4xx_usart.c:1333
  if ((USART_FLAG & USART_FLAG_CTS) == USART_FLAG_CTS)
  {
    assert_param(IS_USART_1236_PERIPH(USARTx));
  } 
       
  USARTx->SR = (uint16_t)~USART_FLAG;
 8002154:	43c9      	mvns	r1, r1
 8002156:	b289      	uxth	r1, r1
 8002158:	8001      	strh	r1, [r0, #0]
 800215a:	4770      	bx	lr

0800215c <USART_GetITStatus>:
USART_GetITStatus():
C:\Users\Filip\Eclipse\Template\Debug/../STM32F4xx_StdPeriph_Driver/src/stm32f4xx_usart.c:1356
  *            @arg USART_IT_FE:   Framing Error interrupt
  *            @arg USART_IT_PE:   Parity Error interrupt
  * @retval The new state of USART_IT (SET or RESET).
  */
ITStatus USART_GetITStatus(USART_TypeDef* USARTx, uint16_t USART_IT)
{
 800215c:	b410      	push	{r4}
C:\Users\Filip\Eclipse\Template\Debug/../STM32F4xx_StdPeriph_Driver/src/stm32f4xx_usart.c:1370
  {
    assert_param(IS_USART_1236_PERIPH(USARTx));
  } 
    
  /* Get the USART register index */
  usartreg = (((uint8_t)USART_IT) >> 0x05);
 800215e:	f3c1 1342 	ubfx	r3, r1, #5, #3
C:\Users\Filip\Eclipse\Template\Debug/../STM32F4xx_StdPeriph_Driver/src/stm32f4xx_usart.c:1372
  /* Get the interrupt position */
  itmask = USART_IT & IT_MASK;
 8002162:	f001 021f 	and.w	r2, r1, #31
C:\Users\Filip\Eclipse\Template\Debug/../STM32F4xx_StdPeriph_Driver/src/stm32f4xx_usart.c:1373
  itmask = (uint32_t)0x01 << itmask;
 8002166:	2401      	movs	r4, #1
 8002168:	4094      	lsls	r4, r2
C:\Users\Filip\Eclipse\Template\Debug/../STM32F4xx_StdPeriph_Driver/src/stm32f4xx_usart.c:1375
  
  if (usartreg == 0x01) /* The IT  is in CR1 register */
 800216a:	2b01      	cmp	r3, #1
 800216c:	d103      	bne.n	8002176 <USART_GetITStatus+0x1a>
C:\Users\Filip\Eclipse\Template\Debug/../STM32F4xx_StdPeriph_Driver/src/stm32f4xx_usart.c:1377
  {
    itmask &= USARTx->CR1;
 800216e:	8982      	ldrh	r2, [r0, #12]
 8002170:	b292      	uxth	r2, r2
 8002172:	4022      	ands	r2, r4
 8002174:	e005      	b.n	8002182 <USART_GetITStatus+0x26>
C:\Users\Filip\Eclipse\Template\Debug/../STM32F4xx_StdPeriph_Driver/src/stm32f4xx_usart.c:1379
  }
  else if (usartreg == 0x02) /* The IT  is in CR2 register */
 8002176:	2b02      	cmp	r3, #2
C:\Users\Filip\Eclipse\Template\Debug/../STM32F4xx_StdPeriph_Driver/src/stm32f4xx_usart.c:1381
  {
    itmask &= USARTx->CR2;
 8002178:	bf0c      	ite	eq
 800217a:	8a02      	ldrheq	r2, [r0, #16]
C:\Users\Filip\Eclipse\Template\Debug/../STM32F4xx_StdPeriph_Driver/src/stm32f4xx_usart.c:1385
  }
  else /* The IT  is in CR3 register */
  {
    itmask &= USARTx->CR3;
 800217c:	8a82      	ldrhne	r2, [r0, #20]
 800217e:	b292      	uxth	r2, r2
 8002180:	4022      	ands	r2, r4
C:\Users\Filip\Eclipse\Template\Debug/../STM32F4xx_StdPeriph_Driver/src/stm32f4xx_usart.c:1388
  }
  
  bitpos = USART_IT >> 0x08;
 8002182:	0a09      	lsrs	r1, r1, #8
C:\Users\Filip\Eclipse\Template\Debug/../STM32F4xx_StdPeriph_Driver/src/stm32f4xx_usart.c:1389
  bitpos = (uint32_t)0x01 << bitpos;
 8002184:	2301      	movs	r3, #1
 8002186:	fa03 f101 	lsl.w	r1, r3, r1
C:\Users\Filip\Eclipse\Template\Debug/../STM32F4xx_StdPeriph_Driver/src/stm32f4xx_usart.c:1390
  bitpos &= USARTx->SR;
 800218a:	8800      	ldrh	r0, [r0, #0]
 800218c:	b280      	uxth	r0, r0
 800218e:	4008      	ands	r0, r1
C:\Users\Filip\Eclipse\Template\Debug/../STM32F4xx_StdPeriph_Driver/src/stm32f4xx_usart.c:1391
  if ((itmask != (uint16_t)RESET)&&(bitpos != (uint16_t)RESET))
 8002190:	b11a      	cbz	r2, 800219a <USART_GetITStatus+0x3e>
C:\Users\Filip\Eclipse\Template\Debug/../STM32F4xx_StdPeriph_Driver/src/stm32f4xx_usart.c:1397 (discriminator 1)
  {
    bitstatus = SET;
  }
  else
  {
    bitstatus = RESET;
 8002192:	3000      	adds	r0, #0
 8002194:	bf18      	it	ne
 8002196:	2001      	movne	r0, #1
 8002198:	e000      	b.n	800219c <USART_GetITStatus+0x40>
C:\Users\Filip\Eclipse\Template\Debug/../STM32F4xx_StdPeriph_Driver/src/stm32f4xx_usart.c:1397
 800219a:	2000      	movs	r0, #0
C:\Users\Filip\Eclipse\Template\Debug/../STM32F4xx_StdPeriph_Driver/src/stm32f4xx_usart.c:1401
  }
  
  return bitstatus;  
}
 800219c:	f85d 4b04 	ldr.w	r4, [sp], #4
 80021a0:	4770      	bx	lr
 80021a2:	bf00      	nop

080021a4 <USART_ClearITPendingBit>:
USART_ClearITPendingBit():
C:\Users\Filip\Eclipse\Template\Debug/../STM32F4xx_StdPeriph_Driver/src/stm32f4xx_usart.c:1442
  if (USART_IT == USART_IT_CTS)
  {
    assert_param(IS_USART_1236_PERIPH(USARTx));
  } 
    
  bitpos = USART_IT >> 0x08;
 80021a4:	0a09      	lsrs	r1, r1, #8
C:\Users\Filip\Eclipse\Template\Debug/../STM32F4xx_StdPeriph_Driver/src/stm32f4xx_usart.c:1443
  itmask = ((uint16_t)0x01 << (uint16_t)bitpos);
 80021a6:	2301      	movs	r3, #1
 80021a8:	408b      	lsls	r3, r1
C:\Users\Filip\Eclipse\Template\Debug/../STM32F4xx_StdPeriph_Driver/src/stm32f4xx_usart.c:1444
  USARTx->SR = (uint16_t)~itmask;
 80021aa:	43db      	mvns	r3, r3
 80021ac:	b29b      	uxth	r3, r3
 80021ae:	8003      	strh	r3, [r0, #0]
 80021b0:	4770      	bx	lr
 80021b2:	bf00      	nop

080021b4 <STM_EVAL_LEDInit>:
STM_EVAL_LEDInit():
C:\Users\Filip\Eclipse\Template\Debug/../Discovery/stm32f4_discovery.c:117
  *     @arg LED5
  *     @arg LED6
  * @retval None
  */
void STM_EVAL_LEDInit(Led_TypeDef Led)
{
 80021b4:	b530      	push	{r4, r5, lr}
 80021b6:	b083      	sub	sp, #12
 80021b8:	4604      	mov	r4, r0
C:\Users\Filip\Eclipse\Template\Debug/../Discovery/stm32f4_discovery.c:121
  GPIO_InitTypeDef  GPIO_InitStructure;
  
  /* Enable the GPIO_LED Clock */
  RCC_AHB1PeriphClockCmd(GPIO_CLK[Led], ENABLE);
 80021ba:	4d0e      	ldr	r5, [pc, #56]	; (80021f4 <STM_EVAL_LEDInit+0x40>)
 80021bc:	f855 0020 	ldr.w	r0, [r5, r0, lsl #2]
 80021c0:	2101      	movs	r1, #1
 80021c2:	f7fe fe7d 	bl	8000ec0 <RCC_AHB1PeriphClockCmd>
C:\Users\Filip\Eclipse\Template\Debug/../Discovery/stm32f4_discovery.c:124

  /* Configure the GPIO_LED pin */
  GPIO_InitStructure.GPIO_Pin = GPIO_PIN[Led];
 80021c6:	eb05 0544 	add.w	r5, r5, r4, lsl #1
 80021ca:	8a2b      	ldrh	r3, [r5, #16]
 80021cc:	9300      	str	r3, [sp, #0]
C:\Users\Filip\Eclipse\Template\Debug/../Discovery/stm32f4_discovery.c:125
  GPIO_InitStructure.GPIO_Mode = GPIO_Mode_OUT;
 80021ce:	2301      	movs	r3, #1
 80021d0:	f88d 3004 	strb.w	r3, [sp, #4]
C:\Users\Filip\Eclipse\Template\Debug/../Discovery/stm32f4_discovery.c:126
  GPIO_InitStructure.GPIO_OType = GPIO_OType_PP;
 80021d4:	2200      	movs	r2, #0
 80021d6:	f88d 2006 	strb.w	r2, [sp, #6]
C:\Users\Filip\Eclipse\Template\Debug/../Discovery/stm32f4_discovery.c:127
  GPIO_InitStructure.GPIO_PuPd = GPIO_PuPd_UP;
 80021da:	f88d 3007 	strb.w	r3, [sp, #7]
C:\Users\Filip\Eclipse\Template\Debug/../Discovery/stm32f4_discovery.c:128
  GPIO_InitStructure.GPIO_Speed = GPIO_Speed_50MHz;
 80021de:	2302      	movs	r3, #2
 80021e0:	f88d 3005 	strb.w	r3, [sp, #5]
C:\Users\Filip\Eclipse\Template\Debug/../Discovery/stm32f4_discovery.c:129
  GPIO_Init(GPIO_PORT[Led], &GPIO_InitStructure);
 80021e4:	4b04      	ldr	r3, [pc, #16]	; (80021f8 <STM_EVAL_LEDInit+0x44>)
 80021e6:	f853 0024 	ldr.w	r0, [r3, r4, lsl #2]
 80021ea:	4669      	mov	r1, sp
 80021ec:	f7fe fc8e 	bl	8000b0c <GPIO_Init>
C:\Users\Filip\Eclipse\Template\Debug/../Discovery/stm32f4_discovery.c:130
}
 80021f0:	b003      	add	sp, #12
 80021f2:	bd30      	pop	{r4, r5, pc}
 80021f4:	0800233c 	.word	0x0800233c
 80021f8:	20000024 	.word	0x20000024

080021fc <STM_EVAL_LEDOn>:
STM_EVAL_LEDOn():
C:\Users\Filip\Eclipse\Template\Debug/../Discovery/stm32f4_discovery.c:144
  *     @arg LED6  
  * @retval None
  */
void STM_EVAL_LEDOn(Led_TypeDef Led)
{
  GPIO_PORT[Led]->BSRRL = GPIO_PIN[Led];
 80021fc:	4b04      	ldr	r3, [pc, #16]	; (8002210 <STM_EVAL_LEDOn+0x14>)
 80021fe:	f853 3020 	ldr.w	r3, [r3, r0, lsl #2]
 8002202:	4a04      	ldr	r2, [pc, #16]	; (8002214 <STM_EVAL_LEDOn+0x18>)
 8002204:	eb02 0040 	add.w	r0, r2, r0, lsl #1
 8002208:	8a02      	ldrh	r2, [r0, #16]
 800220a:	831a      	strh	r2, [r3, #24]
 800220c:	4770      	bx	lr
 800220e:	bf00      	nop
 8002210:	20000024 	.word	0x20000024
 8002214:	0800233c 	.word	0x0800233c

08002218 <STM_EVAL_LEDOff>:
STM_EVAL_LEDOff():
C:\Users\Filip\Eclipse\Template\Debug/../Discovery/stm32f4_discovery.c:159
  *     @arg LED6 
  * @retval None
  */
void STM_EVAL_LEDOff(Led_TypeDef Led)
{
  GPIO_PORT[Led]->BSRRH = GPIO_PIN[Led];  
 8002218:	4b04      	ldr	r3, [pc, #16]	; (800222c <STM_EVAL_LEDOff+0x14>)
 800221a:	f853 3020 	ldr.w	r3, [r3, r0, lsl #2]
 800221e:	4a04      	ldr	r2, [pc, #16]	; (8002230 <STM_EVAL_LEDOff+0x18>)
 8002220:	eb02 0040 	add.w	r0, r2, r0, lsl #1
 8002224:	8a02      	ldrh	r2, [r0, #16]
 8002226:	835a      	strh	r2, [r3, #26]
 8002228:	4770      	bx	lr
 800222a:	bf00      	nop
 800222c:	20000024 	.word	0x20000024
 8002230:	0800233c 	.word	0x0800233c

08002234 <STM_EVAL_LEDToggle>:
STM_EVAL_LEDToggle():
C:\Users\Filip\Eclipse\Template\Debug/../Discovery/stm32f4_discovery.c:174
  *     @arg LED6  
  * @retval None
  */
void STM_EVAL_LEDToggle(Led_TypeDef Led)
{
  GPIO_PORT[Led]->ODR ^= GPIO_PIN[Led];
 8002234:	4b05      	ldr	r3, [pc, #20]	; (800224c <STM_EVAL_LEDToggle+0x18>)
 8002236:	f853 3020 	ldr.w	r3, [r3, r0, lsl #2]
 800223a:	6959      	ldr	r1, [r3, #20]
 800223c:	4a04      	ldr	r2, [pc, #16]	; (8002250 <STM_EVAL_LEDToggle+0x1c>)
 800223e:	eb02 0040 	add.w	r0, r2, r0, lsl #1
 8002242:	8a02      	ldrh	r2, [r0, #16]
 8002244:	404a      	eors	r2, r1
 8002246:	615a      	str	r2, [r3, #20]
 8002248:	4770      	bx	lr
 800224a:	bf00      	nop
 800224c:	20000024 	.word	0x20000024
 8002250:	0800233c 	.word	0x0800233c

08002254 <STM_EVAL_PBInit>:
STM_EVAL_PBInit():
C:\Users\Filip\Eclipse\Template\Debug/../Discovery/stm32f4_discovery.c:189
  *     @arg BUTTON_MODE_EXTI: Button will be connected to EXTI line with interrupt
  *                            generation capability  
  * @retval None
  */
void STM_EVAL_PBInit(Button_TypeDef Button, ButtonMode_TypeDef Button_Mode)
{
 8002254:	b530      	push	{r4, r5, lr}
 8002256:	b087      	sub	sp, #28
 8002258:	4605      	mov	r5, r0
 800225a:	460c      	mov	r4, r1
C:\Users\Filip\Eclipse\Template\Debug/../Discovery/stm32f4_discovery.c:195
  GPIO_InitTypeDef GPIO_InitStructure;
  EXTI_InitTypeDef EXTI_InitStructure;
  NVIC_InitTypeDef NVIC_InitStructure;

  /* Enable the BUTTON Clock */
  RCC_AHB1PeriphClockCmd(BUTTON_CLK[Button], ENABLE);
 800225c:	2001      	movs	r0, #1
 800225e:	4601      	mov	r1, r0
 8002260:	f7fe fe2e 	bl	8000ec0 <RCC_AHB1PeriphClockCmd>
C:\Users\Filip\Eclipse\Template\Debug/../Discovery/stm32f4_discovery.c:196
  RCC_APB2PeriphClockCmd(RCC_APB2Periph_SYSCFG, ENABLE);
 8002264:	f44f 4080 	mov.w	r0, #16384	; 0x4000
 8002268:	2101      	movs	r1, #1
 800226a:	f7fe fe61 	bl	8000f30 <RCC_APB2PeriphClockCmd>
C:\Users\Filip\Eclipse\Template\Debug/../Discovery/stm32f4_discovery.c:199

  /* Configure Button pin as input */
  GPIO_InitStructure.GPIO_Mode = GPIO_Mode_IN;
 800226e:	2300      	movs	r3, #0
 8002270:	f88d 3014 	strb.w	r3, [sp, #20]
C:\Users\Filip\Eclipse\Template\Debug/../Discovery/stm32f4_discovery.c:200
  GPIO_InitStructure.GPIO_PuPd = GPIO_PuPd_NOPULL;
 8002274:	f88d 3017 	strb.w	r3, [sp, #23]
C:\Users\Filip\Eclipse\Template\Debug/../Discovery/stm32f4_discovery.c:201
  GPIO_InitStructure.GPIO_Pin = BUTTON_PIN[Button];
 8002278:	a906      	add	r1, sp, #24
 800227a:	2201      	movs	r2, #1
 800227c:	f841 2d08 	str.w	r2, [r1, #-8]!
C:\Users\Filip\Eclipse\Template\Debug/../Discovery/stm32f4_discovery.c:202
  GPIO_Init(BUTTON_PORT[Button], &GPIO_InitStructure);
 8002280:	4a13      	ldr	r2, [pc, #76]	; (80022d0 <STM_EVAL_PBInit+0x7c>)
 8002282:	eb02 0585 	add.w	r5, r2, r5, lsl #2
 8002286:	6928      	ldr	r0, [r5, #16]
 8002288:	f7fe fc40 	bl	8000b0c <GPIO_Init>
C:\Users\Filip\Eclipse\Template\Debug/../Discovery/stm32f4_discovery.c:204

  if (Button_Mode == BUTTON_MODE_EXTI)
 800228c:	2c01      	cmp	r4, #1
 800228e:	d11d      	bne.n	80022cc <STM_EVAL_PBInit+0x78>
C:\Users\Filip\Eclipse\Template\Debug/../Discovery/stm32f4_discovery.c:207
  {
    /* Connect Button EXTI Line to Button GPIO Pin */
    SYSCFG_EXTILineConfig(BUTTON_PORT_SOURCE[Button], BUTTON_PIN_SOURCE[Button]);
 8002290:	2000      	movs	r0, #0
 8002292:	4601      	mov	r1, r0
 8002294:	f7fe ff4c 	bl	8001130 <SYSCFG_EXTILineConfig>
C:\Users\Filip\Eclipse\Template\Debug/../Discovery/stm32f4_discovery.c:210

    /* Configure Button EXTI line */
    EXTI_InitStructure.EXTI_Line = BUTTON_EXTI_LINE[Button];
 8002298:	9402      	str	r4, [sp, #8]
C:\Users\Filip\Eclipse\Template\Debug/../Discovery/stm32f4_discovery.c:211
    EXTI_InitStructure.EXTI_Mode = EXTI_Mode_Interrupt;
 800229a:	2300      	movs	r3, #0
 800229c:	f88d 300c 	strb.w	r3, [sp, #12]
C:\Users\Filip\Eclipse\Template\Debug/../Discovery/stm32f4_discovery.c:212
    EXTI_InitStructure.EXTI_Trigger = EXTI_Trigger_Rising;  
 80022a0:	2308      	movs	r3, #8
 80022a2:	f88d 300d 	strb.w	r3, [sp, #13]
C:\Users\Filip\Eclipse\Template\Debug/../Discovery/stm32f4_discovery.c:213
    EXTI_InitStructure.EXTI_LineCmd = ENABLE;
 80022a6:	f88d 400e 	strb.w	r4, [sp, #14]
C:\Users\Filip\Eclipse\Template\Debug/../Discovery/stm32f4_discovery.c:214
    EXTI_Init(&EXTI_InitStructure);
 80022aa:	eb0d 0003 	add.w	r0, sp, r3
 80022ae:	f7fe fb2f 	bl	8000910 <EXTI_Init>
C:\Users\Filip\Eclipse\Template\Debug/../Discovery/stm32f4_discovery.c:217

    /* Enable and set Button EXTI Interrupt to the lowest priority */
    NVIC_InitStructure.NVIC_IRQChannel = BUTTON_IRQn[Button];
 80022b2:	2306      	movs	r3, #6
 80022b4:	f88d 3004 	strb.w	r3, [sp, #4]
C:\Users\Filip\Eclipse\Template\Debug/../Discovery/stm32f4_discovery.c:218
    NVIC_InitStructure.NVIC_IRQChannelPreemptionPriority = 0x0F;
 80022b8:	230f      	movs	r3, #15
 80022ba:	f88d 3005 	strb.w	r3, [sp, #5]
C:\Users\Filip\Eclipse\Template\Debug/../Discovery/stm32f4_discovery.c:219
    NVIC_InitStructure.NVIC_IRQChannelSubPriority = 0x0F;
 80022be:	f88d 3006 	strb.w	r3, [sp, #6]
C:\Users\Filip\Eclipse\Template\Debug/../Discovery/stm32f4_discovery.c:220
    NVIC_InitStructure.NVIC_IRQChannelCmd = ENABLE;
 80022c2:	f88d 4007 	strb.w	r4, [sp, #7]
C:\Users\Filip\Eclipse\Template\Debug/../Discovery/stm32f4_discovery.c:222

    NVIC_Init(&NVIC_InitStructure); 
 80022c6:	a801      	add	r0, sp, #4
 80022c8:	f7fe fab6 	bl	8000838 <NVIC_Init>
C:\Users\Filip\Eclipse\Template\Debug/../Discovery/stm32f4_discovery.c:224
  }
}
 80022cc:	b007      	add	sp, #28
 80022ce:	bd30      	pop	{r4, r5, pc}
 80022d0:	20000024 	.word	0x20000024

080022d4 <STM_EVAL_PBGetState>:
STM_EVAL_PBGetState():
C:\Users\Filip\Eclipse\Template\Debug/../Discovery/stm32f4_discovery.c:233
  * @param  Button: Specifies the Button to be checked.
  *   This parameter should be: BUTTON_USER  
  * @retval The Button GPIO pin value.
  */
uint32_t STM_EVAL_PBGetState(Button_TypeDef Button)
{
 80022d4:	b508      	push	{r3, lr}
C:\Users\Filip\Eclipse\Template\Debug/../Discovery/stm32f4_discovery.c:234
  return GPIO_ReadInputDataBit(BUTTON_PORT[Button], BUTTON_PIN[Button]);
 80022d6:	4b04      	ldr	r3, [pc, #16]	; (80022e8 <STM_EVAL_PBGetState+0x14>)
 80022d8:	eb03 0080 	add.w	r0, r3, r0, lsl #2
 80022dc:	6900      	ldr	r0, [r0, #16]
 80022de:	2101      	movs	r1, #1
 80022e0:	f7fe fc78 	bl	8000bd4 <GPIO_ReadInputDataBit>
C:\Users\Filip\Eclipse\Template\Debug/../Discovery/stm32f4_discovery.c:235
}
 80022e4:	bd08      	pop	{r3, pc}
 80022e6:	bf00      	nop
 80022e8:	20000024 	.word	0x20000024

080022ec <Reset_Handler>:
Reset_Handler():
C:\Users\Filip\Eclipse\Template\Debug/../STM32F4xx/Source/startup_stm32f4xx.S:69
  .weak  Reset_Handler
  .type  Reset_Handler, %function
Reset_Handler:  

/* Copy the data segment initializers from flash to SRAM */  
  movs  r1, #0
 80022ec:	2100      	movs	r1, #0
C:\Users\Filip\Eclipse\Template\Debug/../STM32F4xx/Source/startup_stm32f4xx.S:70
  b  LoopCopyDataInit
 80022ee:	f000 b804 	b.w	80022fa <LoopCopyDataInit>

080022f2 <CopyDataInit>:
C:\Users\Filip\Eclipse\Template\Debug/../STM32F4xx/Source/startup_stm32f4xx.S:73

CopyDataInit:
  ldr  r3, =_sidata
 80022f2:	4b0c      	ldr	r3, [pc, #48]	; (8002324 <LoopFillZerobss+0x12>)
C:\Users\Filip\Eclipse\Template\Debug/../STM32F4xx/Source/startup_stm32f4xx.S:74
  ldr  r3, [r3, r1]
 80022f4:	585b      	ldr	r3, [r3, r1]
C:\Users\Filip\Eclipse\Template\Debug/../STM32F4xx/Source/startup_stm32f4xx.S:75
  str  r3, [r0, r1]
 80022f6:	5043      	str	r3, [r0, r1]
C:\Users\Filip\Eclipse\Template\Debug/../STM32F4xx/Source/startup_stm32f4xx.S:76
  adds  r1, r1, #4
 80022f8:	3104      	adds	r1, #4

080022fa <LoopCopyDataInit>:
C:\Users\Filip\Eclipse\Template\Debug/../STM32F4xx/Source/startup_stm32f4xx.S:79
    
LoopCopyDataInit:
  ldr  r0, =_sdata
 80022fa:	480b      	ldr	r0, [pc, #44]	; (8002328 <LoopFillZerobss+0x16>)
C:\Users\Filip\Eclipse\Template\Debug/../STM32F4xx/Source/startup_stm32f4xx.S:80
  ldr  r3, =_edata
 80022fc:	4b0b      	ldr	r3, [pc, #44]	; (800232c <LoopFillZerobss+0x1a>)
C:\Users\Filip\Eclipse\Template\Debug/../STM32F4xx/Source/startup_stm32f4xx.S:81
  adds  r2, r0, r1
 80022fe:	1842      	adds	r2, r0, r1
C:\Users\Filip\Eclipse\Template\Debug/../STM32F4xx/Source/startup_stm32f4xx.S:82
  cmp  r2, r3
 8002300:	429a      	cmp	r2, r3
C:\Users\Filip\Eclipse\Template\Debug/../STM32F4xx/Source/startup_stm32f4xx.S:83
  bcc  CopyDataInit
 8002302:	f4ff aff6 	bcc.w	80022f2 <CopyDataInit>
C:\Users\Filip\Eclipse\Template\Debug/../STM32F4xx/Source/startup_stm32f4xx.S:84
  ldr  r2, =_sbss
 8002306:	4a0a      	ldr	r2, [pc, #40]	; (8002330 <LoopFillZerobss+0x1e>)
C:\Users\Filip\Eclipse\Template\Debug/../STM32F4xx/Source/startup_stm32f4xx.S:85
  b  LoopFillZerobss
 8002308:	f000 b803 	b.w	8002312 <LoopFillZerobss>

0800230c <FillZerobss>:
C:\Users\Filip\Eclipse\Template\Debug/../STM32F4xx/Source/startup_stm32f4xx.S:88
/* Zero fill the bss segment. */  
FillZerobss:
  movs  r3, #0
 800230c:	2300      	movs	r3, #0
C:\Users\Filip\Eclipse\Template\Debug/../STM32F4xx/Source/startup_stm32f4xx.S:89
  str  r3, [r2], #4
 800230e:	f842 3b04 	str.w	r3, [r2], #4

08002312 <LoopFillZerobss>:
C:\Users\Filip\Eclipse\Template\Debug/../STM32F4xx/Source/startup_stm32f4xx.S:92
    
LoopFillZerobss:
  ldr  r3, = _ebss
 8002312:	4b08      	ldr	r3, [pc, #32]	; (8002334 <LoopFillZerobss+0x22>)
C:\Users\Filip\Eclipse\Template\Debug/../STM32F4xx/Source/startup_stm32f4xx.S:93
  cmp  r2, r3
 8002314:	429a      	cmp	r2, r3
C:\Users\Filip\Eclipse\Template\Debug/../STM32F4xx/Source/startup_stm32f4xx.S:94
  bcc  FillZerobss
 8002316:	f4ff aff9 	bcc.w	800230c <FillZerobss>
C:\Users\Filip\Eclipse\Template\Debug/../STM32F4xx/Source/startup_stm32f4xx.S:97

/* Call the clock system intitialization function.*/
  bl  SystemInit   
 800231a:	f7fe fa1b 	bl	8000754 <SystemInit>
C:\Users\Filip\Eclipse\Template\Debug/../STM32F4xx/Source/startup_stm32f4xx.S:99
/* Call the application's entry point.*/
  bl  main
 800231e:	f7fe f8db 	bl	80004d8 <main>
C:\Users\Filip\Eclipse\Template\Debug/../STM32F4xx/Source/startup_stm32f4xx.S:100
  bx  lr    
 8002322:	4770      	bx	lr
$d():
C:\Users\Filip\Eclipse\Template\Debug/../STM32F4xx/Source/startup_stm32f4xx.S:73
/* Copy the data segment initializers from flash to SRAM */  
  movs  r1, #0
  b  LoopCopyDataInit

CopyDataInit:
  ldr  r3, =_sidata
 8002324:	08002458 	.word	0x08002458
C:\Users\Filip\Eclipse\Template\Debug/../STM32F4xx/Source/startup_stm32f4xx.S:79
  ldr  r3, [r3, r1]
  str  r3, [r0, r1]
  adds  r1, r1, #4
    
LoopCopyDataInit:
  ldr  r0, =_sdata
 8002328:	20000000 	.word	0x20000000
C:\Users\Filip\Eclipse\Template\Debug/../STM32F4xx/Source/startup_stm32f4xx.S:80
  ldr  r3, =_edata
 800232c:	20000038 	.word	0x20000038
C:\Users\Filip\Eclipse\Template\Debug/../STM32F4xx/Source/startup_stm32f4xx.S:84
  adds  r2, r0, r1
  cmp  r2, r3
  bcc  CopyDataInit
  ldr  r2, =_sbss
 8002330:	20000038 	.word	0x20000038
C:\Users\Filip\Eclipse\Template\Debug/../STM32F4xx/Source/startup_stm32f4xx.S:92
FillZerobss:
  movs  r3, #0
  str  r3, [r2], #4
    
LoopFillZerobss:
  ldr  r3, = _ebss
 8002334:	20000080 	.word	0x20000080

08002338 <ADC_IRQHandler>:
RTC_Alarm_IRQHandler():
C:\Users\Filip\Eclipse\Template\Debug/../STM32F4xx/Source/startup_stm32f4xx.S:113
 * @retval None       
*/
    .section  .text.Default_Handler,"ax",%progbits
Default_Handler:
Infinite_Loop:
  b  Infinite_Loop
 8002338:	f7ff bffe 	b.w	8002338 <ADC_IRQHandler>

0800233c <GPIO_CLK>:
$d():
 800233c:	0008 0000 0008 0000 0008 0000 0008 0000     ................

0800234c <GPIO_PIN>:
 800234c:	1000 2000 4000 8000                         ... .@..

08002354 <BUTTON_IRQn>:
 8002354:	0006 0000                                   ....

08002358 <BUTTON_PIN_SOURCE>:
 8002358:	0000 0000                                   ....

0800235c <BUTTON_PORT_SOURCE>:
 800235c:	0000 0000                                   ....

08002360 <BUTTON_EXTI_LINE>:
 8002360:	0001 0000                                   ....

08002364 <BUTTON_CLK>:
 8002364:	0001 0000                                   ....

08002368 <BUTTON_PIN>:
 8002368:	0001 0000 3130 3332 3534 3736 3938 4241     ....0123456789AB
 8002378:	4443 4645 0000 0000 4350 2030 4e4f 000a     CDEF....PC0 ON..
 8002388:	4350 2030 464f 0a46 0000 0000 6e55 6e6b     PC0 OFF.....Unkn
 8002398:	776f 206e 6f63 6d6d 6e61 0a64 0000 0000     own command.....
 80023a8:	530a 6977 6374 6968 676e 5020 776f 7265     .Switching Power
 80023b8:	5320 756f 6372 2065 6557 636c 6d6f 0a65      Source Welcome.
 80023c8:	0000 0000 4d4e 5f49 7845 6563 7470 6f69     ....NMI_Exceptio
 80023d8:	006e 0000 6148 6472 6146 6c75 5f74 7845     n...HardFault_Ex
 80023e8:	6563 7470 6f69 006e 654d 4d6d 6e61 6761     ception.MemManag
 80023f8:	5f65 7845 6563 7470 6f69 006e 7542 4673     e_Exception.BusF
 8002408:	7561 746c 455f 6378 7065 6974 6e6f 0000     ault_Exception..
 8002418:	7355 6761 4665 7561 746c 455f 6378 7065     UsageFault_Excep
 8002428:	6974 6e6f 0000 0000 6544 7562 4d67 6e6f     tion....DebugMon
 8002438:	455f 6378 7065 6974 6e6f 0000 6550 646e     _Exception..Pend
 8002448:	5653 5f43 7845 6563 7470 6f69 006e 0000     SVC_Exception...
