   1              		.syntax unified
   2              		.cpu cortex-m4
   3              		.fpu softvfp
   4              		.eabi_attribute 20, 1
   5              		.eabi_attribute 21, 1
   6              		.eabi_attribute 23, 3
   7              		.eabi_attribute 24, 1
   8              		.eabi_attribute 25, 1
   9              		.eabi_attribute 26, 1
  10              		.eabi_attribute 30, 1
  11              		.eabi_attribute 34, 1
  12              		.eabi_attribute 18, 4
  13              		.thumb
  14              		.file	"stm32f4xx_it.c"
  15              		.text
  16              	.Ltext0:
  17              		.cfi_sections	.debug_frame
  18              		.align	2
  19              		.global	NMI_Handler
  20              		.thumb
  21              		.thumb_func
  23              	NMI_Handler:
  24              	.LFB110:
  25              		.file 1 "../src/stm32f4xx_it.c"
   1:../src/stm32f4xx_it.c **** #include "stm32f4xx_it.h"
   2:../src/stm32f4xx_it.c **** #include "main.h"
   3:../src/stm32f4xx_it.c **** #include "comunication.h"
   4:../src/stm32f4xx_it.c **** 
   5:../src/stm32f4xx_it.c **** extern volatile uint32_t TimingDelay;
   6:../src/stm32f4xx_it.c **** extern  uint32_t output;
   7:../src/stm32f4xx_it.c **** volatile uint32_t Time;
   8:../src/stm32f4xx_it.c **** 
   9:../src/stm32f4xx_it.c **** /******************************************************************************/
  10:../src/stm32f4xx_it.c **** /*            Cortex-M3 Processor Exceptions Handlers                         */
  11:../src/stm32f4xx_it.c **** /******************************************************************************/
  12:../src/stm32f4xx_it.c **** 
  13:../src/stm32f4xx_it.c **** /**
  14:../src/stm32f4xx_it.c ****   * @brief   This function handles NMI exception.
  15:../src/stm32f4xx_it.c ****   * @param  None
  16:../src/stm32f4xx_it.c ****   * @retval None
  17:../src/stm32f4xx_it.c ****   */
  18:../src/stm32f4xx_it.c **** void NMI_Handler(void)
  19:../src/stm32f4xx_it.c **** {
  26              		.loc 1 19 0
  27              		.cfi_startproc
  28              		@ args = 0, pretend = 0, frame = 0
  29              		@ frame_needed = 0, uses_anonymous_args = 0
  30 0000 08B5     		push	{r3, lr}
  31              		.cfi_def_cfa_offset 8
  32              		.cfi_offset 3, -8
  33              		.cfi_offset 14, -4
  20:../src/stm32f4xx_it.c **** 	USART_SendString(USART6, "NMI_Exception");
  34              		.loc 1 20 0
  35 0002 0248     		ldr	r0, .L2
  36 0004 0249     		ldr	r1, .L2+4
  37 0006 FFF7FEFF 		bl	USART_SendString
  38              	.LVL0:
  39 000a 08BD     		pop	{r3, pc}
  40              	.L3:
  41              		.align	2
  42              	.L2:
  43 000c 00140140 		.word	1073812480
  44 0010 00000000 		.word	.LC0
  45              		.cfi_endproc
  46              	.LFE110:
  48              		.align	2
  49              		.global	HardFault_Handler
  50              		.thumb
  51              		.thumb_func
  53              	HardFault_Handler:
  54              	.LFB111:
  21:../src/stm32f4xx_it.c **** }
  22:../src/stm32f4xx_it.c **** 
  23:../src/stm32f4xx_it.c **** /**
  24:../src/stm32f4xx_it.c ****   * @brief  This function handles Hard Fault exception.
  25:../src/stm32f4xx_it.c ****   * @param  None
  26:../src/stm32f4xx_it.c ****   * @retval None
  27:../src/stm32f4xx_it.c ****   */
  28:../src/stm32f4xx_it.c **** void HardFault_Handler(void)
  29:../src/stm32f4xx_it.c **** {
  55              		.loc 1 29 0
  56              		.cfi_startproc
  57              		@ Volatile: function does not return.
  58              		@ args = 0, pretend = 0, frame = 0
  59              		@ frame_needed = 0, uses_anonymous_args = 0
  60 0014 08B5     		push	{r3, lr}
  61              		.cfi_def_cfa_offset 8
  62              		.cfi_offset 3, -8
  63              		.cfi_offset 14, -4
  30:../src/stm32f4xx_it.c ****   /* Go to infinite loop when Hard Fault exception occurs */
  31:../src/stm32f4xx_it.c ****   USART_SendString(USART6, "HardFault_Exception");
  64              		.loc 1 31 0
  65 0016 0248     		ldr	r0, .L6
  66 0018 0249     		ldr	r1, .L6+4
  67 001a FFF7FEFF 		bl	USART_SendString
  68              	.LVL1:
  69              	.L5:
  70 001e FEE7     		b	.L5
  71              	.L7:
  72              		.align	2
  73              	.L6:
  74 0020 00140140 		.word	1073812480
  75 0024 10000000 		.word	.LC1
  76              		.cfi_endproc
  77              	.LFE111:
  79              		.align	2
  80              		.global	MemManage_Handler
  81              		.thumb
  82              		.thumb_func
  84              	MemManage_Handler:
  85              	.LFB112:
  32:../src/stm32f4xx_it.c ****   while (1)
  33:../src/stm32f4xx_it.c ****   {
  34:../src/stm32f4xx_it.c ****   }
  35:../src/stm32f4xx_it.c **** }
  36:../src/stm32f4xx_it.c **** 
  37:../src/stm32f4xx_it.c **** /**
  38:../src/stm32f4xx_it.c ****   * @brief  This function handles Memory Manage exception.
  39:../src/stm32f4xx_it.c ****   * @param  None
  40:../src/stm32f4xx_it.c ****   * @retval None
  41:../src/stm32f4xx_it.c ****   */
  42:../src/stm32f4xx_it.c **** void MemManage_Handler(void)
  43:../src/stm32f4xx_it.c **** {
  86              		.loc 1 43 0
  87              		.cfi_startproc
  88              		@ Volatile: function does not return.
  89              		@ args = 0, pretend = 0, frame = 0
  90              		@ frame_needed = 0, uses_anonymous_args = 0
  91 0028 08B5     		push	{r3, lr}
  92              		.cfi_def_cfa_offset 8
  93              		.cfi_offset 3, -8
  94              		.cfi_offset 14, -4
  44:../src/stm32f4xx_it.c ****   /* Go to infinite loop when Memory Manage exception occurs */
  45:../src/stm32f4xx_it.c ****   USART_SendString(USART6, "MemManage_Exception");
  95              		.loc 1 45 0
  96 002a 0248     		ldr	r0, .L10
  97 002c 0249     		ldr	r1, .L10+4
  98 002e FFF7FEFF 		bl	USART_SendString
  99              	.LVL2:
 100              	.L9:
 101 0032 FEE7     		b	.L9
 102              	.L11:
 103              		.align	2
 104              	.L10:
 105 0034 00140140 		.word	1073812480
 106 0038 24000000 		.word	.LC2
 107              		.cfi_endproc
 108              	.LFE112:
 110              		.align	2
 111              		.global	BusFault_Handler
 112              		.thumb
 113              		.thumb_func
 115              	BusFault_Handler:
 116              	.LFB113:
  46:../src/stm32f4xx_it.c ****   while (1)
  47:../src/stm32f4xx_it.c ****   {
  48:../src/stm32f4xx_it.c ****   }
  49:../src/stm32f4xx_it.c **** }
  50:../src/stm32f4xx_it.c **** 
  51:../src/stm32f4xx_it.c **** /**
  52:../src/stm32f4xx_it.c ****   * @brief  This function handles Bus Fault exception.
  53:../src/stm32f4xx_it.c ****   * @param  None
  54:../src/stm32f4xx_it.c ****   * @retval None
  55:../src/stm32f4xx_it.c ****   */
  56:../src/stm32f4xx_it.c **** void BusFault_Handler(void)
  57:../src/stm32f4xx_it.c **** {
 117              		.loc 1 57 0
 118              		.cfi_startproc
 119              		@ Volatile: function does not return.
 120              		@ args = 0, pretend = 0, frame = 0
 121              		@ frame_needed = 0, uses_anonymous_args = 0
 122 003c 08B5     		push	{r3, lr}
 123              		.cfi_def_cfa_offset 8
 124              		.cfi_offset 3, -8
 125              		.cfi_offset 14, -4
  58:../src/stm32f4xx_it.c ****   /* Go to infinite loop when Bus Fault exception occurs */
  59:../src/stm32f4xx_it.c ****   USART_SendString(USART6, "BusFault_Exception");
 126              		.loc 1 59 0
 127 003e 0248     		ldr	r0, .L14
 128 0040 0249     		ldr	r1, .L14+4
 129 0042 FFF7FEFF 		bl	USART_SendString
 130              	.LVL3:
 131              	.L13:
 132 0046 FEE7     		b	.L13
 133              	.L15:
 134              		.align	2
 135              	.L14:
 136 0048 00140140 		.word	1073812480
 137 004c 38000000 		.word	.LC3
 138              		.cfi_endproc
 139              	.LFE113:
 141              		.align	2
 142              		.global	UsageFault_Handler
 143              		.thumb
 144              		.thumb_func
 146              	UsageFault_Handler:
 147              	.LFB114:
  60:../src/stm32f4xx_it.c ****   while (1)
  61:../src/stm32f4xx_it.c ****   {
  62:../src/stm32f4xx_it.c ****   }
  63:../src/stm32f4xx_it.c **** }
  64:../src/stm32f4xx_it.c **** 
  65:../src/stm32f4xx_it.c **** /**
  66:../src/stm32f4xx_it.c ****   * @brief  This function handles Usage Fault exception.
  67:../src/stm32f4xx_it.c ****   * @param  None
  68:../src/stm32f4xx_it.c ****   * @retval None
  69:../src/stm32f4xx_it.c ****   */
  70:../src/stm32f4xx_it.c **** void UsageFault_Handler(void)
  71:../src/stm32f4xx_it.c **** {
 148              		.loc 1 71 0
 149              		.cfi_startproc
 150              		@ Volatile: function does not return.
 151              		@ args = 0, pretend = 0, frame = 0
 152              		@ frame_needed = 0, uses_anonymous_args = 0
 153 0050 08B5     		push	{r3, lr}
 154              		.cfi_def_cfa_offset 8
 155              		.cfi_offset 3, -8
 156              		.cfi_offset 14, -4
  72:../src/stm32f4xx_it.c ****   /* Go to infinite loop when Usage Fault exception occurs */
  73:../src/stm32f4xx_it.c ****   USART_SendString(USART6, "UsageFault_Exception");
 157              		.loc 1 73 0
 158 0052 0248     		ldr	r0, .L18
 159 0054 0249     		ldr	r1, .L18+4
 160 0056 FFF7FEFF 		bl	USART_SendString
 161              	.LVL4:
 162              	.L17:
 163 005a FEE7     		b	.L17
 164              	.L19:
 165              		.align	2
 166              	.L18:
 167 005c 00140140 		.word	1073812480
 168 0060 4C000000 		.word	.LC4
 169              		.cfi_endproc
 170              	.LFE114:
 172              		.align	2
 173              		.global	SVC_Handler
 174              		.thumb
 175              		.thumb_func
 177              	SVC_Handler:
 178              	.LFB115:
  74:../src/stm32f4xx_it.c ****   while (1)
  75:../src/stm32f4xx_it.c ****   {
  76:../src/stm32f4xx_it.c ****   }
  77:../src/stm32f4xx_it.c **** }
  78:../src/stm32f4xx_it.c **** 
  79:../src/stm32f4xx_it.c **** /**
  80:../src/stm32f4xx_it.c ****   * @brief  This function handles SVCall exception.
  81:../src/stm32f4xx_it.c ****   * @param  None
  82:../src/stm32f4xx_it.c ****   * @retval None
  83:../src/stm32f4xx_it.c ****   */
  84:../src/stm32f4xx_it.c **** void SVC_Handler(void)
  85:../src/stm32f4xx_it.c **** {
 179              		.loc 1 85 0
 180              		.cfi_startproc
 181              		@ args = 0, pretend = 0, frame = 0
 182              		@ frame_needed = 0, uses_anonymous_args = 0
 183 0064 08B5     		push	{r3, lr}
 184              		.cfi_def_cfa_offset 8
 185              		.cfi_offset 3, -8
 186              		.cfi_offset 14, -4
  86:../src/stm32f4xx_it.c **** 	USART_SendString(USART6, "SVC_Exception");
 187              		.loc 1 86 0
 188 0066 0248     		ldr	r0, .L21
 189 0068 0249     		ldr	r1, .L21+4
 190 006a FFF7FEFF 		bl	USART_SendString
 191              	.LVL5:
 192 006e 08BD     		pop	{r3, pc}
 193              	.L22:
 194              		.align	2
 195              	.L21:
 196 0070 00140140 		.word	1073812480
 197 0074 64000000 		.word	.LC5
 198              		.cfi_endproc
 199              	.LFE115:
 201              		.align	2
 202              		.global	DebugMon_Handler
 203              		.thumb
 204              		.thumb_func
 206              	DebugMon_Handler:
 207              	.LFB116:
  87:../src/stm32f4xx_it.c **** }
  88:../src/stm32f4xx_it.c **** 
  89:../src/stm32f4xx_it.c **** /**
  90:../src/stm32f4xx_it.c ****   * @brief  This function handles Debug Monitor exception.
  91:../src/stm32f4xx_it.c ****   * @param  None
  92:../src/stm32f4xx_it.c ****   * @retval None
  93:../src/stm32f4xx_it.c ****   */
  94:../src/stm32f4xx_it.c **** void DebugMon_Handler(void)
  95:../src/stm32f4xx_it.c **** {
 208              		.loc 1 95 0
 209              		.cfi_startproc
 210              		@ args = 0, pretend = 0, frame = 0
 211              		@ frame_needed = 0, uses_anonymous_args = 0
 212 0078 08B5     		push	{r3, lr}
 213              		.cfi_def_cfa_offset 8
 214              		.cfi_offset 3, -8
 215              		.cfi_offset 14, -4
  96:../src/stm32f4xx_it.c **** 	USART_SendString(USART6, "DebugMon_Exception");
 216              		.loc 1 96 0
 217 007a 0248     		ldr	r0, .L24
 218 007c 0249     		ldr	r1, .L24+4
 219 007e FFF7FEFF 		bl	USART_SendString
 220              	.LVL6:
 221 0082 08BD     		pop	{r3, pc}
 222              	.L25:
 223              		.align	2
 224              	.L24:
 225 0084 00140140 		.word	1073812480
 226 0088 74000000 		.word	.LC6
 227              		.cfi_endproc
 228              	.LFE116:
 230              		.align	2
 231              		.global	PendSV_Handler
 232              		.thumb
 233              		.thumb_func
 235              	PendSV_Handler:
 236              	.LFB117:
  97:../src/stm32f4xx_it.c **** }
  98:../src/stm32f4xx_it.c **** 
  99:../src/stm32f4xx_it.c **** /**
 100:../src/stm32f4xx_it.c ****   * @brief  This function handles PendSVC exception.
 101:../src/stm32f4xx_it.c ****   * @param  None
 102:../src/stm32f4xx_it.c ****   * @retval None
 103:../src/stm32f4xx_it.c ****   */
 104:../src/stm32f4xx_it.c **** void PendSV_Handler(void)
 105:../src/stm32f4xx_it.c **** {
 237              		.loc 1 105 0
 238              		.cfi_startproc
 239              		@ args = 0, pretend = 0, frame = 0
 240              		@ frame_needed = 0, uses_anonymous_args = 0
 241 008c 08B5     		push	{r3, lr}
 242              		.cfi_def_cfa_offset 8
 243              		.cfi_offset 3, -8
 244              		.cfi_offset 14, -4
 106:../src/stm32f4xx_it.c **** 	USART_SendString(USART6, "PendSVC_Exception");
 245              		.loc 1 106 0
 246 008e 0248     		ldr	r0, .L27
 247 0090 0249     		ldr	r1, .L27+4
 248 0092 FFF7FEFF 		bl	USART_SendString
 249              	.LVL7:
 250 0096 08BD     		pop	{r3, pc}
 251              	.L28:
 252              		.align	2
 253              	.L27:
 254 0098 00140140 		.word	1073812480
 255 009c 88000000 		.word	.LC7
 256              		.cfi_endproc
 257              	.LFE117:
 259              		.align	2
 260              		.global	EXTI0_IRQHandler
 261              		.thumb
 262              		.thumb_func
 264              	EXTI0_IRQHandler:
 265              	.LFB119:
 107:../src/stm32f4xx_it.c **** }
 108:../src/stm32f4xx_it.c **** 
 109:../src/stm32f4xx_it.c **** /**
 110:../src/stm32f4xx_it.c ****   * @brief  This function handles SysTick Handler.
 111:../src/stm32f4xx_it.c ****   * @param  None
 112:../src/stm32f4xx_it.c ****   * @retval None
 113:../src/stm32f4xx_it.c ****   */
 114:../src/stm32f4xx_it.c **** void SysTick_Handler(void)
 115:../src/stm32f4xx_it.c **** {  
 116:../src/stm32f4xx_it.c ****   if (TimingDelay != 0x00)
 117:../src/stm32f4xx_it.c ****   {
 118:../src/stm32f4xx_it.c ****     TimingDelay_Decrement();
 119:../src/stm32f4xx_it.c ****   }
 120:../src/stm32f4xx_it.c **** 	Time++;
 121:../src/stm32f4xx_it.c **** }
 122:../src/stm32f4xx_it.c **** 
 123:../src/stm32f4xx_it.c **** /******************************************************************************/
 124:../src/stm32f4xx_it.c **** /*                 STM32F4xx Peripherals Interrupt Handlers                   */
 125:../src/stm32f4xx_it.c **** /*  Add here the Interrupt Handler for the used peripheral(s) (PPP), for the  */
 126:../src/stm32f4xx_it.c **** /*  available peripheral interrupt handler's name please refer to the startup */
 127:../src/stm32f4xx_it.c **** /*  file (startup_stm32f4xx.s).                                               */
 128:../src/stm32f4xx_it.c **** /******************************************************************************/
 129:../src/stm32f4xx_it.c **** 
 130:../src/stm32f4xx_it.c **** void EXTI0_IRQHandler(void)
 131:../src/stm32f4xx_it.c **** {
 266              		.loc 1 131 0
 267              		.cfi_startproc
 268              		@ args = 0, pretend = 0, frame = 0
 269              		@ frame_needed = 0, uses_anonymous_args = 0
 270 00a0 38B5     		push	{r3, r4, r5, lr}
 271              		.cfi_def_cfa_offset 16
 272              		.cfi_offset 3, -16
 273              		.cfi_offset 4, -12
 274              		.cfi_offset 5, -8
 275              		.cfi_offset 14, -4
 132:../src/stm32f4xx_it.c **** 	uint32_t i;
 133:../src/stm32f4xx_it.c ****   if(EXTI_GetITStatus(EXTI_Line0) != RESET)
 276              		.loc 1 133 0
 277 00a2 0120     		movs	r0, #1
 278 00a4 FFF7FEFF 		bl	EXTI_GetITStatus
 279              	.LVL8:
 280 00a8 78B1     		cbz	r0, .L29
 134:../src/stm32f4xx_it.c ****   {
 135:../src/stm32f4xx_it.c ****     output = !output;
 281              		.loc 1 135 0
 282 00aa 084B     		ldr	r3, .L33
 283 00ac 1A68     		ldr	r2, [r3]
 284 00ae D2F10102 		rsbs	r2, r2, #1
 285 00b2 38BF     		it	cc
 286 00b4 0022     		movcc	r2, #0
 287 00b6 1A60     		str	r2, [r3]
 288              	.LVL9:
 136:../src/stm32f4xx_it.c **** 		for(i = 2000000;i>0;i--){
 289              		.loc 1 136 0
 290 00b8 054C     		ldr	r4, .L33+4
 137:../src/stm32f4xx_it.c ****     EXTI_ClearITPendingBit(EXTI_Line0);
 291              		.loc 1 137 0
 292 00ba 0125     		movs	r5, #1
 136:../src/stm32f4xx_it.c **** 		for(i = 2000000;i>0;i--){
 293              		.loc 1 136 0
 294 00bc 03E0     		b	.L31
 295              	.LVL10:
 296              	.L32:
 297              		.loc 1 137 0 discriminator 2
 298 00be 2846     		mov	r0, r5
 299 00c0 FFF7FEFF 		bl	EXTI_ClearITPendingBit
 300              	.LVL11:
 136:../src/stm32f4xx_it.c **** 		for(i = 2000000;i>0;i--){
 301              		.loc 1 136 0 discriminator 2
 302 00c4 013C     		subs	r4, r4, #1
 303              	.LVL12:
 304              	.L31:
 136:../src/stm32f4xx_it.c **** 		for(i = 2000000;i>0;i--){
 305              		.loc 1 136 0 is_stmt 0 discriminator 1
 306 00c6 002C     		cmp	r4, #0
 307 00c8 F9D1     		bne	.L32
 308              	.LVL13:
 309              	.L29:
 310 00ca 38BD     		pop	{r3, r4, r5, pc}
 311              	.L34:
 312              		.align	2
 313              	.L33:
 314 00cc 00000000 		.word	output
 315 00d0 80841E00 		.word	2000000
 316              		.cfi_endproc
 317              	.LFE119:
 319              		.align	2
 320              		.global	Delay
 321              		.thumb
 322              		.thumb_func
 324              	Delay:
 325              	.LFB120:
 138:../src/stm32f4xx_it.c **** 		}
 139:../src/stm32f4xx_it.c ****   }
 140:../src/stm32f4xx_it.c **** }
 141:../src/stm32f4xx_it.c **** 
 142:../src/stm32f4xx_it.c **** /******************* (C) COPYRIGHT 2011 STMicroelectronics *****END OF FILE****/
 143:../src/stm32f4xx_it.c **** __IO uint32_t TimingDelay = 0;
 144:../src/stm32f4xx_it.c **** 
 145:../src/stm32f4xx_it.c **** void Delay(__IO uint32_t nTime)
 146:../src/stm32f4xx_it.c **** { 
 326              		.loc 1 146 0 is_stmt 1
 327              		.cfi_startproc
 328              		@ args = 0, pretend = 0, frame = 8
 329              		@ frame_needed = 0, uses_anonymous_args = 0
 330              		@ link register save eliminated.
 331              	.LVL14:
 332 00d4 82B0     		sub	sp, sp, #8
 333              		.cfi_def_cfa_offset 8
 334 00d6 0190     		str	r0, [sp, #4]
 147:../src/stm32f4xx_it.c ****   TimingDelay = nTime;
 335              		.loc 1 147 0
 336 00d8 019A     		ldr	r2, [sp, #4]
 337 00da 044B     		ldr	r3, .L38
 338 00dc 1A60     		str	r2, [r3]
 148:../src/stm32f4xx_it.c **** 
 149:../src/stm32f4xx_it.c ****   while(TimingDelay != 0);
 339              		.loc 1 149 0
 340 00de 1A46     		mov	r2, r3
 341              	.L36:
 342              		.loc 1 149 0 is_stmt 0 discriminator 1
 343 00e0 1368     		ldr	r3, [r2]
 344 00e2 002B     		cmp	r3, #0
 345 00e4 FCD1     		bne	.L36
 150:../src/stm32f4xx_it.c **** }
 346              		.loc 1 150 0 is_stmt 1
 347 00e6 02B0     		add	sp, sp, #8
 348              		@ sp needed
 349 00e8 7047     		bx	lr
 350              	.L39:
 351 00ea 00BF     		.align	2
 352              	.L38:
 353 00ec 00000000 		.word	.LANCHOR0
 354              		.cfi_endproc
 355              	.LFE120:
 357              		.align	2
 358              		.global	TimingDelay_Decrement
 359              		.thumb
 360              		.thumb_func
 362              	TimingDelay_Decrement:
 363              	.LFB121:
 151:../src/stm32f4xx_it.c **** 
 152:../src/stm32f4xx_it.c **** void TimingDelay_Decrement(void)
 153:../src/stm32f4xx_it.c **** {
 364              		.loc 1 153 0
 365              		.cfi_startproc
 366              		@ args = 0, pretend = 0, frame = 0
 367              		@ frame_needed = 0, uses_anonymous_args = 0
 368              		@ link register save eliminated.
 154:../src/stm32f4xx_it.c ****   if (TimingDelay != 0x00)
 369              		.loc 1 154 0
 370 00f0 034B     		ldr	r3, .L42
 371 00f2 1B68     		ldr	r3, [r3]
 372 00f4 1BB1     		cbz	r3, .L40
 155:../src/stm32f4xx_it.c ****   { 
 156:../src/stm32f4xx_it.c ****     TimingDelay--;
 373              		.loc 1 156 0
 374 00f6 024B     		ldr	r3, .L42
 375 00f8 1A68     		ldr	r2, [r3]
 376 00fa 013A     		subs	r2, r2, #1
 377 00fc 1A60     		str	r2, [r3]
 378              	.L40:
 379 00fe 7047     		bx	lr
 380              	.L43:
 381              		.align	2
 382              	.L42:
 383 0100 00000000 		.word	.LANCHOR0
 384              		.cfi_endproc
 385              	.LFE121:
 387              		.align	2
 388              		.global	SysTick_Handler
 389              		.thumb
 390              		.thumb_func
 392              	SysTick_Handler:
 393              	.LFB118:
 115:../src/stm32f4xx_it.c **** {  
 394              		.loc 1 115 0
 395              		.cfi_startproc
 396              		@ args = 0, pretend = 0, frame = 0
 397              		@ frame_needed = 0, uses_anonymous_args = 0
 398 0104 08B5     		push	{r3, lr}
 399              		.cfi_def_cfa_offset 8
 400              		.cfi_offset 3, -8
 401              		.cfi_offset 14, -4
 116:../src/stm32f4xx_it.c ****   if (TimingDelay != 0x00)
 402              		.loc 1 116 0
 403 0106 054B     		ldr	r3, .L46
 404 0108 1B68     		ldr	r3, [r3]
 405 010a 0BB1     		cbz	r3, .L45
 118:../src/stm32f4xx_it.c ****     TimingDelay_Decrement();
 406              		.loc 1 118 0
 407 010c FFF7FEFF 		bl	TimingDelay_Decrement
 408              	.LVL15:
 409              	.L45:
 120:../src/stm32f4xx_it.c **** 	Time++;
 410              		.loc 1 120 0
 411 0110 034B     		ldr	r3, .L46+4
 412 0112 1A68     		ldr	r2, [r3]
 413 0114 0132     		adds	r2, r2, #1
 414 0116 1A60     		str	r2, [r3]
 415 0118 08BD     		pop	{r3, pc}
 416              	.L47:
 417 011a 00BF     		.align	2
 418              	.L46:
 419 011c 00000000 		.word	.LANCHOR0
 420 0120 00000000 		.word	Time
 421              		.cfi_endproc
 422              	.LFE118:
 424              		.global	TimingDelay
 425              		.comm	Time,4,4
 426              		.section	.rodata.str1.4,"aMS",%progbits,1
 427              		.align	2
 428              	.LC0:
 429 0000 4E4D495F 		.ascii	"NMI_Exception\000"
 429      45786365 
 429      7074696F 
 429      6E00
 430 000e 0000     		.space	2
 431              	.LC1:
 432 0010 48617264 		.ascii	"HardFault_Exception\000"
 432      4661756C 
 432      745F4578 
 432      63657074 
 432      696F6E00 
 433              	.LC2:
 434 0024 4D656D4D 		.ascii	"MemManage_Exception\000"
 434      616E6167 
 434      655F4578 
 434      63657074 
 434      696F6E00 
 435              	.LC3:
 436 0038 42757346 		.ascii	"BusFault_Exception\000"
 436      61756C74 
 436      5F457863 
 436      65707469 
 436      6F6E00
 437 004b 00       		.space	1
 438              	.LC4:
 439 004c 55736167 		.ascii	"UsageFault_Exception\000"
 439      65466175 
 439      6C745F45 
 439      78636570 
 439      74696F6E 
 440 0061 000000   		.space	3
 441              	.LC5:
 442 0064 5356435F 		.ascii	"SVC_Exception\000"
 442      45786365 
 442      7074696F 
 442      6E00
 443 0072 0000     		.space	2
 444              	.LC6:
 445 0074 44656275 		.ascii	"DebugMon_Exception\000"
 445      674D6F6E 
 445      5F457863 
 445      65707469 
 445      6F6E00
 446 0087 00       		.space	1
 447              	.LC7:
 448 0088 50656E64 		.ascii	"PendSVC_Exception\000"
 448      5356435F 
 448      45786365 
 448      7074696F 
 448      6E00
 449 009a 0000     		.bss
 450              		.align	2
 451              		.set	.LANCHOR0,. + 0
 454              	TimingDelay:
 455 0000 00000000 		.space	4
 456              		.text
 457              	.Letext0:
 458              		.file 2 "c:\\program files (x86)\\gnu tools arm embedded\\4.8 2014q1\\arm-none-eabi\\include\\mach
 459              		.file 3 "c:\\program files (x86)\\gnu tools arm embedded\\4.8 2014q1\\arm-none-eabi\\include\\stdi
 460              		.file 4 "C:\\Users\\Filip\\Eclipse\\Template\\STM32F4xx\\Include/stm32f4xx.h"
 461              		.file 5 "C:\\Users\\Filip\\Eclipse\\Template\\CMSIS\\Include/core_cm4.h"
 462              		.file 6 "../src/comunication.h"
 463              		.file 7 "C:\\Users\\Filip\\Eclipse\\Template\\STM32F4xx_StdPeriph_Driver\\inc/stm32f4xx_exti.h"